	.text
	.file	"hisi-blk-core.c"
                                        // Start of file scope inline assembly
	.section "___kcrctab+blk_queue_set_inline_crypto_flag", "a"	
	.weak	__crc_blk_queue_set_inline_crypto_flag	
	.long	__crc_blk_queue_set_inline_crypto_flag	
	.previous					
	.section "___kcrctab+is_blk_queue_support_crypto", "a"	
	.weak	__crc_is_blk_queue_support_crypto	
	.long	__crc_is_blk_queue_support_crypto	
	.previous					
	.section "___kcrctab+blk_generic_freeze", "a"	
	.weak	__crc_blk_generic_freeze	
	.long	__crc_blk_generic_freeze	
	.previous					

                                        // End of file scope inline assembly
	.file	1 "/mnt/ssddisk/jslave/ci/workspace/chipset_WLZ_4g_release/opensource/component_code/vendor/huawei/extra/build/build_script/kirin_kernel_release/kernel/include/linux/export.h"
	.file	2 "/mnt/ssddisk/jslave/ci/workspace/chipset_WLZ_4g_release/opensource/component_code/vendor/huawei/extra/build/build_script/kirin_kernel_release/kernel/block/hisi-blk-core.c"
	.file	3 "/mnt/ssddisk/jslave/ci/workspace/chipset_WLZ_4g_release/opensource/component_code/vendor/huawei/extra/build/build_script/kirin_kernel_release/kernel/include/linux/lockdep.h"
	.file	4 "/mnt/ssddisk/jslave/ci/workspace/chipset_WLZ_4g_release/opensource/component_code/vendor/huawei/extra/build/build_script/kirin_kernel_release/kernel/include/linux/blkdev.h"
	.file	5 "/mnt/ssddisk/jslave/ci/workspace/chipset_WLZ_4g_release/opensource/component_code/vendor/huawei/extra/build/build_script/kirin_kernel_release/kernel/include/linux/kobject_ns.h"
	.file	6 "/mnt/ssddisk/jslave/ci/workspace/chipset_WLZ_4g_release/opensource/component_code/vendor/huawei/extra/build/build_script/kirin_kernel_release/kernel/include/linux/hrtimer.h"
	.file	7 "/mnt/ssddisk/jslave/ci/workspace/chipset_WLZ_4g_release/opensource/component_code/vendor/huawei/extra/build/build_script/kirin_kernel_release/kernel/include/linux/module.h"
	.file	8 "/mnt/ssddisk/jslave/ci/workspace/chipset_WLZ_4g_release/opensource/component_code/vendor/huawei/extra/build/build_script/kirin_kernel_release/kernel/include/linux/quota.h"
	.file	9 "/mnt/ssddisk/jslave/ci/workspace/chipset_WLZ_4g_release/opensource/component_code/vendor/huawei/extra/build/build_script/kirin_kernel_release/kernel/include/linux/fs.h"
	.file	10 "/mnt/ssddisk/jslave/ci/workspace/chipset_WLZ_4g_release/opensource/component_code/vendor/huawei/extra/build/build_script/kirin_kernel_release/kernel/include/linux/pid.h"
	.file	11 "/mnt/ssddisk/jslave/ci/workspace/chipset_WLZ_4g_release/opensource/component_code/vendor/huawei/extra/build/build_script/kirin_kernel_release/kernel/include/linux/device.h"
	.file	12 "/mnt/ssddisk/jslave/ci/workspace/chipset_WLZ_4g_release/opensource/component_code/vendor/huawei/extra/build/build_script/kirin_kernel_release/kernel/include/linux/pm.h"
	.file	13 "/mnt/ssddisk/jslave/ci/workspace/chipset_WLZ_4g_release/opensource/component_code/vendor/huawei/extra/build/build_script/kirin_kernel_release/kernel/include/linux/rcu_sync.h"
	.file	14 "/mnt/ssddisk/jslave/ci/workspace/chipset_WLZ_4g_release/opensource/component_code/vendor/huawei/extra/build/build_script/kirin_kernel_release/kernel/include/linux/migrate_mode.h"
	.file	15 "/mnt/ssddisk/jslave/ci/workspace/chipset_WLZ_4g_release/opensource/component_code/vendor/huawei/extra/build/build_script/kirin_kernel_release/kernel/include/linux/memremap.h"
	.file	16 "/mnt/ssddisk/jslave/ci/workspace/chipset_WLZ_4g_release/opensource/component_code/vendor/huawei/extra/build/build_script/kirin_kernel_release/kernel/include/linux/mm.h"
	.file	17 "/mnt/ssddisk/jslave/ci/workspace/chipset_WLZ_4g_release/opensource/component_code/vendor/huawei/extra/build/build_script/kirin_kernel_release/kernel/include/linux/restart_block.h"
	.file	18 "/mnt/ssddisk/jslave/ci/workspace/chipset_WLZ_4g_release/opensource/component_code/vendor/huawei/extra/build/build_script/kirin_kernel_release/kernel/include/linux/elevator.h"
	.file	19 "/mnt/ssddisk/jslave/ci/workspace/chipset_WLZ_4g_release/opensource/component_code/vendor/huawei/extra/build/build_script/kirin_kernel_release/kernel/block/hisi-blk.h"
	.file	20 "/mnt/ssddisk/jslave/ci/workspace/chipset_WLZ_4g_release/opensource/component_code/vendor/huawei/extra/build/build_script/kirin_kernel_release/kernel/include/linux/stddef.h"
	.file	21 "/mnt/ssddisk/jslave/ci/workspace/chipset_WLZ_4g_release/opensource/component_code/vendor/huawei/extra/build/build_script/kirin_kernel_release/kernel/include/linux/blk_types.h"
	.file	22 "/mnt/ssddisk/jslave/ci/workspace/chipset_WLZ_4g_release/opensource/component_code/vendor/huawei/extra/build/build_script/kirin_kernel_release/kernel/include/linux/hisi/rdr_hisi_platform.h"
	.file	23 "/mnt/ssddisk/jslave/ci/workspace/chipset_WLZ_4g_release/opensource/component_code/vendor/huawei/extra/build/build_script/kirin_kernel_release/kernel/include/linux/types.h"
	.file	24 "/mnt/ssddisk/jslave/ci/workspace/chipset_WLZ_4g_release/opensource/component_code/vendor/huawei/extra/build/build_script/kirin_kernel_release/kernel/include/linux/llist.h"
	.file	25 "/mnt/ssddisk/jslave/ci/workspace/chipset_WLZ_4g_release/opensource/component_code/vendor/huawei/extra/build/build_script/kirin_kernel_release/kernel/include/linux/smp.h"
	.file	26 "/mnt/ssddisk/jslave/ci/workspace/chipset_WLZ_4g_release/opensource/component_code/vendor/huawei/extra/build/build_script/kirin_kernel_release/kernel/include/asm-generic/int-ll64.h"
	.file	27 "/mnt/ssddisk/jslave/ci/workspace/chipset_WLZ_4g_release/opensource/component_code/vendor/huawei/extra/build/build_script/kirin_kernel_release/kernel/arch/arm64/include/asm/spinlock_types.h"
	.file	28 "/mnt/ssddisk/jslave/ci/workspace/chipset_WLZ_4g_release/opensource/component_code/vendor/huawei/extra/build/build_script/kirin_kernel_release/kernel/include/linux/spinlock_types.h"
	.file	29 "/mnt/ssddisk/jslave/ci/workspace/chipset_WLZ_4g_release/opensource/component_code/vendor/huawei/extra/build/build_script/kirin_kernel_release/kernel/block/blk-mq.h"
	.file	30 "/mnt/ssddisk/jslave/ci/workspace/chipset_WLZ_4g_release/opensource/component_code/vendor/huawei/extra/build/build_script/kirin_kernel_release/kernel/include/linux/kobject.h"
	.file	31 "/mnt/ssddisk/jslave/ci/workspace/chipset_WLZ_4g_release/opensource/component_code/vendor/huawei/extra/build/build_script/kirin_kernel_release/kernel/include/uapi/asm-generic/posix_types.h"
	.file	32 "/mnt/ssddisk/jslave/ci/workspace/chipset_WLZ_4g_release/opensource/component_code/vendor/huawei/extra/build/build_script/kirin_kernel_release/kernel/include/linux/sysfs.h"
	.file	33 "/mnt/ssddisk/jslave/ci/workspace/chipset_WLZ_4g_release/opensource/component_code/vendor/huawei/extra/build/build_script/kirin_kernel_release/kernel/include/linux/kernfs.h"
	.file	34 "/mnt/ssddisk/jslave/ci/workspace/chipset_WLZ_4g_release/opensource/component_code/vendor/huawei/extra/build/build_script/kirin_kernel_release/kernel/include/linux/rbtree.h"
	.file	35 "/mnt/ssddisk/jslave/ci/workspace/chipset_WLZ_4g_release/opensource/component_code/vendor/huawei/extra/build/build_script/kirin_kernel_release/kernel/include/linux/radix-tree.h"
	.file	36 "/mnt/ssddisk/jslave/ci/workspace/chipset_WLZ_4g_release/opensource/component_code/vendor/huawei/extra/build/build_script/kirin_kernel_release/kernel/include/linux/idr.h"
	.file	37 "/mnt/ssddisk/jslave/ci/workspace/chipset_WLZ_4g_release/opensource/component_code/vendor/huawei/extra/build/build_script/kirin_kernel_release/kernel/include/linux/seq_file.h"
	.file	38 "/mnt/ssddisk/jslave/ci/workspace/chipset_WLZ_4g_release/opensource/component_code/vendor/huawei/extra/build/build_script/kirin_kernel_release/kernel/include/asm-generic/atomic-long.h"
	.file	39 "/mnt/ssddisk/jslave/ci/workspace/chipset_WLZ_4g_release/opensource/component_code/vendor/huawei/extra/build/build_script/kirin_kernel_release/kernel/include/linux/mutex.h"
	.file	40 "/mnt/ssddisk/jslave/ci/workspace/chipset_WLZ_4g_release/opensource/component_code/vendor/huawei/extra/build/build_script/kirin_kernel_release/kernel/include/linux/osq_lock.h"
	.file	41 "/mnt/ssddisk/jslave/ci/workspace/chipset_WLZ_4g_release/opensource/component_code/vendor/huawei/extra/build/build_script/kirin_kernel_release/kernel/arch/arm64/include/asm/thread_info.h"
	.file	42 "/mnt/ssddisk/jslave/ci/workspace/chipset_WLZ_4g_release/opensource/component_code/vendor/huawei/extra/build/build_script/kirin_kernel_release/kernel/include/linux/sched.h"
	.file	43 "/mnt/ssddisk/jslave/ci/workspace/chipset_WLZ_4g_release/opensource/component_code/vendor/huawei/extra/build/build_script/kirin_kernel_release/kernel/include/linux/cpumask.h"
	.file	44 "/mnt/ssddisk/jslave/ci/workspace/chipset_WLZ_4g_release/opensource/component_code/vendor/huawei/extra/build/build_script/kirin_kernel_release/kernel/include/linux/timerqueue.h"
	.file	45 "/mnt/ssddisk/jslave/ci/workspace/chipset_WLZ_4g_release/opensource/component_code/vendor/huawei/extra/build/build_script/kirin_kernel_release/kernel/include/linux/ktime.h"
	.file	46 "/mnt/ssddisk/jslave/ci/workspace/chipset_WLZ_4g_release/opensource/component_code/vendor/huawei/extra/build/build_script/kirin_kernel_release/kernel/include/linux/seqlock.h"
	.file	47 "/mnt/ssddisk/jslave/ci/workspace/chipset_WLZ_4g_release/opensource/component_code/vendor/huawei/extra/build/build_script/kirin_kernel_release/kernel/include/linux/plist.h"
	.file	48 "/mnt/ssddisk/jslave/ci/workspace/chipset_WLZ_4g_release/opensource/component_code/vendor/huawei/extra/build/build_script/kirin_kernel_release/kernel/include/linux/mm_types.h"
	.file	49 "/mnt/ssddisk/jslave/ci/workspace/chipset_WLZ_4g_release/opensource/component_code/vendor/huawei/extra/build/build_script/kirin_kernel_release/kernel/arch/arm64/include/asm/pgtable-types.h"
	.file	50 "/mnt/ssddisk/jslave/ci/workspace/chipset_WLZ_4g_release/opensource/component_code/vendor/huawei/extra/build/build_script/kirin_kernel_release/kernel/include/asm-generic/pgtable-nop4d-hack.h"
	.file	51 "/mnt/ssddisk/jslave/ci/workspace/chipset_WLZ_4g_release/opensource/component_code/vendor/huawei/extra/build/build_script/kirin_kernel_release/kernel/include/linux/uidgid.h"
	.file	52 "/mnt/ssddisk/jslave/ci/workspace/chipset_WLZ_4g_release/opensource/component_code/vendor/huawei/extra/build/build_script/kirin_kernel_release/kernel/include/linux/dcache.h"
	.file	53 "/mnt/ssddisk/jslave/ci/workspace/chipset_WLZ_4g_release/opensource/component_code/vendor/huawei/extra/build/build_script/kirin_kernel_release/kernel/include/linux/list_bl.h"
	.file	54 "/mnt/ssddisk/jslave/ci/workspace/chipset_WLZ_4g_release/opensource/component_code/vendor/huawei/extra/build/build_script/kirin_kernel_release/kernel/include/linux/lockref.h"
	.file	55 "/mnt/ssddisk/jslave/ci/workspace/chipset_WLZ_4g_release/opensource/component_code/vendor/huawei/extra/build/build_script/kirin_kernel_release/kernel/include/linux/path.h"
	.file	56 "/mnt/ssddisk/jslave/ci/workspace/chipset_WLZ_4g_release/opensource/component_code/vendor/huawei/extra/build/build_script/kirin_kernel_release/kernel/include/uapi/asm-generic/int-ll64.h"
	.file	57 "/mnt/ssddisk/jslave/ci/workspace/chipset_WLZ_4g_release/opensource/component_code/vendor/huawei/extra/build/build_script/kirin_kernel_release/kernel/include/linux/completion.h"
	.file	58 "/mnt/ssddisk/jslave/ci/workspace/chipset_WLZ_4g_release/opensource/component_code/vendor/huawei/extra/build/build_script/kirin_kernel_release/kernel/include/linux/wait.h"
	.file	59 "/mnt/ssddisk/jslave/ci/workspace/chipset_WLZ_4g_release/opensource/component_code/vendor/huawei/extra/build/build_script/kirin_kernel_release/kernel/include/linux/cfi.h"
	.file	60 "/mnt/ssddisk/jslave/ci/workspace/chipset_WLZ_4g_release/opensource/component_code/vendor/huawei/extra/build/build_script/kirin_kernel_release/kernel/include/linux/moduleparam.h"
	.file	61 "/mnt/ssddisk/jslave/ci/workspace/chipset_WLZ_4g_release/opensource/component_code/vendor/huawei/extra/build/build_script/kirin_kernel_release/kernel/arch/arm64/include/asm/extable.h"
	.file	62 "/mnt/ssddisk/jslave/ci/workspace/chipset_WLZ_4g_release/opensource/component_code/vendor/huawei/extra/build/build_script/kirin_kernel_release/kernel/include/linux/rbtree_latch.h"
	.file	63 "/mnt/ssddisk/jslave/ci/workspace/chipset_WLZ_4g_release/opensource/component_code/vendor/huawei/extra/build/build_script/kirin_kernel_release/kernel/include/uapi/linux/elf.h"
	.file	64 "/mnt/ssddisk/jslave/ci/workspace/chipset_WLZ_4g_release/opensource/component_code/vendor/huawei/extra/build/build_script/kirin_kernel_release/kernel/arch/arm64/include/asm/module.h"
	.file	65 "/mnt/ssddisk/jslave/ci/workspace/chipset_WLZ_4g_release/opensource/component_code/vendor/huawei/extra/build/build_script/kirin_kernel_release/kernel/include/uapi/linux/types.h"
	.file	66 "/mnt/ssddisk/jslave/ci/workspace/chipset_WLZ_4g_release/opensource/component_code/vendor/huawei/extra/build/build_script/kirin_kernel_release/kernel/include/asm-generic/bug.h"
	.file	67 "/mnt/ssddisk/jslave/ci/workspace/chipset_WLZ_4g_release/opensource/component_code/vendor/huawei/extra/build/build_script/kirin_kernel_release/kernel/include/linux/tracepoint-defs.h"
	.file	68 "/mnt/ssddisk/jslave/ci/workspace/chipset_WLZ_4g_release/opensource/component_code/vendor/huawei/extra/build/build_script/kirin_kernel_release/kernel/include/linux/jump_label.h"
	.file	69 "/mnt/ssddisk/jslave/ci/workspace/chipset_WLZ_4g_release/opensource/component_code/vendor/huawei/extra/build/build_script/kirin_kernel_release/kernel/include/linux/tracepoint.h"
	.file	70 "/mnt/ssddisk/jslave/ci/workspace/chipset_WLZ_4g_release/opensource/component_code/vendor/huawei/extra/build/build_script/kirin_kernel_release/kernel/include/linux/projid.h"
	.file	71 "/mnt/ssddisk/jslave/ci/workspace/chipset_WLZ_4g_release/opensource/component_code/vendor/huawei/extra/build/build_script/kirin_kernel_release/kernel/include/linux/time64.h"
	.file	72 "/mnt/ssddisk/jslave/ci/workspace/chipset_WLZ_4g_release/opensource/component_code/vendor/huawei/extra/build/build_script/kirin_kernel_release/kernel/include/linux/shrinker.h"
	.file	73 "/mnt/ssddisk/jslave/ci/workspace/chipset_WLZ_4g_release/opensource/component_code/vendor/huawei/extra/build/build_script/kirin_kernel_release/kernel/include/linux/rwsem.h"
	.file	74 "/mnt/ssddisk/jslave/ci/workspace/chipset_WLZ_4g_release/opensource/component_code/vendor/huawei/extra/build/build_script/kirin_kernel_release/kernel/include/linux/genhd.h"
	.file	75 "/mnt/ssddisk/jslave/ci/workspace/chipset_WLZ_4g_release/opensource/component_code/vendor/huawei/extra/build/build_script/kirin_kernel_release/kernel/include/linux/uio.h"
	.file	76 "/mnt/ssddisk/jslave/ci/workspace/chipset_WLZ_4g_release/opensource/component_code/vendor/huawei/extra/build/build_script/kirin_kernel_release/kernel/include/uapi/linux/uio.h"
	.file	77 "/mnt/ssddisk/jslave/ci/workspace/chipset_WLZ_4g_release/opensource/component_code/vendor/huawei/extra/build/build_script/kirin_kernel_release/kernel/include/linux/bvec.h"
	.file	78 "/mnt/ssddisk/jslave/ci/workspace/chipset_WLZ_4g_release/opensource/component_code/vendor/huawei/extra/build/build_script/kirin_kernel_release/kernel/include/linux/poll.h"
	.file	79 "/mnt/ssddisk/jslave/ci/workspace/chipset_WLZ_4g_release/opensource/component_code/vendor/huawei/extra/build/build_script/kirin_kernel_release/kernel/include/linux/nfs_fs_i.h"
	.file	80 "/mnt/ssddisk/jslave/ci/workspace/chipset_WLZ_4g_release/opensource/component_code/vendor/huawei/extra/build/build_script/kirin_kernel_release/kernel/include/linux/rwlock_types.h"
	.file	81 "/mnt/ssddisk/jslave/ci/workspace/chipset_WLZ_4g_release/opensource/component_code/vendor/huawei/extra/build/build_script/kirin_kernel_release/kernel/include/linux/cred.h"
	.file	82 "/mnt/ssddisk/jslave/ci/workspace/chipset_WLZ_4g_release/opensource/component_code/vendor/huawei/extra/build/build_script/kirin_kernel_release/kernel/include/linux/capability.h"
	.file	83 "/mnt/ssddisk/jslave/ci/workspace/chipset_WLZ_4g_release/opensource/component_code/vendor/huawei/extra/build/build_script/kirin_kernel_release/kernel/include/linux/refcount.h"
	.file	84 "/mnt/ssddisk/jslave/ci/workspace/chipset_WLZ_4g_release/opensource/component_code/vendor/huawei/extra/build/build_script/kirin_kernel_release/kernel/include/linux/key.h"
	.file	85 "/mnt/ssddisk/jslave/ci/workspace/chipset_WLZ_4g_release/opensource/component_code/vendor/huawei/extra/build/build_script/kirin_kernel_release/kernel/include/linux/assoc_array.h"
	.file	86 "/mnt/ssddisk/jslave/ci/workspace/chipset_WLZ_4g_release/opensource/component_code/vendor/huawei/extra/build/build_script/kirin_kernel_release/kernel/include/linux/sched/user.h"
	.file	87 "/mnt/ssddisk/jslave/ci/workspace/chipset_WLZ_4g_release/opensource/component_code/vendor/huawei/extra/build/build_script/kirin_kernel_release/kernel/include/linux/errseq.h"
	.file	88 "/mnt/ssddisk/jslave/ci/workspace/chipset_WLZ_4g_release/opensource/component_code/vendor/huawei/extra/build/build_script/kirin_kernel_release/kernel/include/linux/pm_wakeup.h"
	.file	89 "/mnt/ssddisk/jslave/ci/workspace/chipset_WLZ_4g_release/opensource/component_code/vendor/huawei/extra/build/build_script/kirin_kernel_release/kernel/include/linux/timer.h"
	.file	90 "/mnt/ssddisk/jslave/ci/workspace/chipset_WLZ_4g_release/opensource/component_code/vendor/huawei/extra/build/build_script/kirin_kernel_release/kernel/include/linux/workqueue.h"
	.file	91 "/mnt/ssddisk/jslave/ci/workspace/chipset_WLZ_4g_release/opensource/component_code/vendor/huawei/extra/build/build_script/kirin_kernel_release/kernel/include/linux/pinctrl/devinfo.h"
	.file	92 "/mnt/ssddisk/jslave/ci/workspace/chipset_WLZ_4g_release/opensource/component_code/vendor/huawei/extra/build/build_script/kirin_kernel_release/kernel/arch/arm64/include/asm/device.h"
	.file	93 "/mnt/ssddisk/jslave/ci/workspace/chipset_WLZ_4g_release/opensource/component_code/vendor/huawei/extra/build/build_script/kirin_kernel_release/kernel/include/linux/klist.h"
	.file	94 "/mnt/ssddisk/jslave/ci/workspace/chipset_WLZ_4g_release/opensource/component_code/vendor/huawei/extra/build/build_script/kirin_kernel_release/kernel/include/linux/kref.h"
	.file	95 "/mnt/ssddisk/jslave/ci/workspace/chipset_WLZ_4g_release/opensource/component_code/vendor/huawei/extra/build/build_script/kirin_kernel_release/kernel/include/linux/percpu-refcount.h"
	.file	96 "/mnt/ssddisk/jslave/ci/workspace/chipset_WLZ_4g_release/opensource/component_code/vendor/huawei/extra/build/build_script/kirin_kernel_release/kernel/include/linux/backing-dev-defs.h"
	.file	97 "/mnt/ssddisk/jslave/ci/workspace/chipset_WLZ_4g_release/opensource/component_code/vendor/huawei/extra/build/build_script/kirin_kernel_release/kernel/include/linux/percpu_counter.h"
	.file	98 "/mnt/ssddisk/jslave/ci/workspace/chipset_WLZ_4g_release/opensource/component_code/vendor/huawei/extra/build/build_script/kirin_kernel_release/kernel/include/linux/flex_proportions.h"
	.file	99 "/mnt/ssddisk/jslave/ci/workspace/chipset_WLZ_4g_release/opensource/component_code/vendor/huawei/extra/build/build_script/kirin_kernel_release/kernel/include/linux/percpu-rwsem.h"
	.file	100 "/mnt/ssddisk/jslave/ci/workspace/chipset_WLZ_4g_release/opensource/component_code/vendor/huawei/extra/build/build_script/kirin_kernel_release/kernel/include/linux/rcuwait.h"
	.file	101 "/mnt/ssddisk/jslave/ci/workspace/chipset_WLZ_4g_release/opensource/component_code/vendor/huawei/extra/build/build_script/kirin_kernel_release/kernel/include/linux/uuid.h"
	.file	102 "/mnt/ssddisk/jslave/ci/workspace/chipset_WLZ_4g_release/opensource/component_code/vendor/huawei/extra/build/build_script/kirin_kernel_release/kernel/include/linux/list_lru.h"
	.file	103 "/mnt/ssddisk/jslave/ci/workspace/chipset_WLZ_4g_release/opensource/component_code/vendor/huawei/extra/build/build_script/kirin_kernel_release/kernel/include/linux/delayed_call.h"
	.file	104 "/mnt/ssddisk/jslave/ci/workspace/chipset_WLZ_4g_release/opensource/component_code/vendor/huawei/extra/build/build_script/kirin_kernel_release/kernel/include/uapi/linux/time.h"
	.file	105 "/mnt/ssddisk/jslave/ci/workspace/chipset_WLZ_4g_release/opensource/component_code/vendor/huawei/extra/build/build_script/kirin_kernel_release/kernel/include/linux/stat.h"
	.file	106 "/mnt/ssddisk/jslave/ci/workspace/chipset_WLZ_4g_release/opensource/component_code/vendor/huawei/extra/build/build_script/kirin_kernel_release/kernel/include/uapi/linux/fiemap.h"
	.file	107 "/mnt/ssddisk/jslave/ci/workspace/chipset_WLZ_4g_release/opensource/component_code/vendor/huawei/extra/build/build_script/kirin_kernel_release/kernel/include/linux/mmzone.h"
	.file	108 "/mnt/ssddisk/jslave/ci/workspace/chipset_WLZ_4g_release/opensource/component_code/vendor/huawei/extra/build/build_script/kirin_kernel_release/kernel/include/linux/ioport.h"
	.file	109 "/mnt/ssddisk/jslave/ci/workspace/chipset_WLZ_4g_release/opensource/component_code/vendor/huawei/extra/build/build_script/kirin_kernel_release/kernel/arch/arm64/include/asm/page.h"
	.file	110 "/mnt/ssddisk/jslave/ci/workspace/chipset_WLZ_4g_release/opensource/component_code/vendor/huawei/extra/build/build_script/kirin_kernel_release/kernel/include/linux/mm_types_task.h"
	.file	111 "/mnt/ssddisk/jslave/ci/workspace/chipset_WLZ_4g_release/opensource/component_code/vendor/huawei/extra/build/build_script/kirin_kernel_release/kernel/arch/arm64/include/asm/mmu.h"
	.file	112 "/mnt/ssddisk/jslave/ci/workspace/chipset_WLZ_4g_release/opensource/component_code/vendor/huawei/extra/build/build_script/kirin_kernel_release/kernel/include/linux/uprobes.h"
	.file	113 "/mnt/ssddisk/jslave/ci/workspace/chipset_WLZ_4g_release/opensource/component_code/vendor/huawei/extra/build/build_script/kirin_kernel_release/kernel/arch/arm64/include/asm/compat.h"
	.file	114 "/mnt/ssddisk/jslave/ci/workspace/chipset_WLZ_4g_release/opensource/component_code/vendor/huawei/extra/build/build_script/kirin_kernel_release/kernel/include/uapi/asm-generic/poll.h"
	.file	115 "/mnt/ssddisk/jslave/ci/workspace/chipset_WLZ_4g_release/opensource/component_code/vendor/huawei/extra/build/build_script/kirin_kernel_release/kernel/include/uapi/asm-generic/signal.h"
	.file	116 "/mnt/ssddisk/jslave/ci/workspace/chipset_WLZ_4g_release/opensource/component_code/vendor/huawei/extra/build/build_script/kirin_kernel_release/kernel/include/linux/signal_types.h"
	.file	117 "/mnt/ssddisk/jslave/ci/workspace/chipset_WLZ_4g_release/opensource/component_code/vendor/huawei/extra/build/build_script/kirin_kernel_release/kernel/include/linux/seccomp.h"
	.file	118 "/mnt/ssddisk/jslave/ci/workspace/chipset_WLZ_4g_release/opensource/component_code/vendor/huawei/extra/build/build_script/kirin_kernel_release/kernel/include/linux/iocontext.h"
	.file	119 "/mnt/ssddisk/jslave/ci/workspace/chipset_WLZ_4g_release/opensource/component_code/vendor/huawei/extra/build/build_script/kirin_kernel_release/kernel/include/linux/bio.h"
	.file	120 "/mnt/ssddisk/jslave/ci/workspace/chipset_WLZ_4g_release/opensource/component_code/vendor/huawei/extra/build/build_script/kirin_kernel_release/kernel/include/linux/mempool.h"
	.file	121 "/mnt/ssddisk/jslave/ci/workspace/chipset_WLZ_4g_release/opensource/component_code/vendor/huawei/extra/build/build_script/kirin_kernel_release/kernel/include/uapi/asm-generic/siginfo.h"
	.file	122 "/mnt/ssddisk/jslave/ci/workspace/chipset_WLZ_4g_release/opensource/component_code/vendor/huawei/extra/build/build_script/kirin_kernel_release/kernel/include/linux/task_io_accounting.h"
	.file	123 "/mnt/ssddisk/jslave/ci/workspace/chipset_WLZ_4g_release/opensource/component_code/vendor/huawei/extra/build/build_script/kirin_kernel_release/kernel/include/linux/nodemask.h"
	.file	124 "/mnt/ssddisk/jslave/ci/workspace/chipset_WLZ_4g_release/opensource/component_code/vendor/huawei/extra/build/build_script/kirin_kernel_release/kernel/include/linux/compat.h"
	.file	125 "/mnt/ssddisk/jslave/ci/workspace/chipset_WLZ_4g_release/opensource/component_code/vendor/huawei/extra/build/build_script/kirin_kernel_release/kernel/arch/arm64/include/asm/processor.h"
	.file	126 "/mnt/ssddisk/jslave/ci/workspace/chipset_WLZ_4g_release/opensource/component_code/vendor/huawei/extra/build/build_script/kirin_kernel_release/kernel/arch/arm64/include/uapi/asm/ptrace.h"
	.file	127 "/mnt/ssddisk/jslave/ci/workspace/chipset_WLZ_4g_release/opensource/component_code/vendor/huawei/extra/build/build_script/kirin_kernel_release/kernel/arch/arm64/include/asm/fpsimd.h"
	.file	128 "/mnt/ssddisk/jslave/ci/workspace/chipset_WLZ_4g_release/opensource/component_code/vendor/huawei/extra/build/build_script/kirin_kernel_release/kernel/include/linux/blk-mq.h"
	.file	129 "/mnt/ssddisk/jslave/ci/workspace/chipset_WLZ_4g_release/opensource/component_code/vendor/huawei/extra/build/build_script/kirin_kernel_release/kernel/block/blk.h"
	.file	130 "/mnt/ssddisk/jslave/ci/workspace/chipset_WLZ_4g_release/opensource/component_code/vendor/huawei/extra/build/build_script/kirin_kernel_release/kernel/include/linux/sbitmap.h"
	.file	131 "/mnt/ssddisk/jslave/ci/workspace/chipset_WLZ_4g_release/opensource/component_code/vendor/huawei/extra/build/build_script/kirin_kernel_release/kernel/include/linux/srcutree.h"
	.file	132 "/mnt/ssddisk/jslave/ci/workspace/chipset_WLZ_4g_release/opensource/component_code/vendor/huawei/extra/build/build_script/kirin_kernel_release/kernel/include/linux/rcu_segcblist.h"
	.file	133 "/mnt/ssddisk/jslave/ci/workspace/chipset_WLZ_4g_release/opensource/component_code/vendor/huawei/extra/build/build_script/kirin_kernel_release/kernel/include/linux/notifier.h"
	.file	134 "/mnt/ssddisk/jslave/ci/workspace/chipset_WLZ_4g_release/opensource/component_code/vendor/huawei/extra/build/build_script/kirin_kernel_release/kernel/block/blk-stat.h"
	.file	135 "/mnt/ssddisk/jslave/ci/workspace/chipset_WLZ_4g_release/opensource/component_code/vendor/huawei/extra/build/build_script/kirin_kernel_release/kernel/include/linux/bsg.h"
	.section	.text.hisi_blk_get_lld,"ax",@progbits
	.hidden	hisi_blk_get_lld        // -- Begin function hisi_blk_get_lld
	.globl	hisi_blk_get_lld
	.p2align	2
	.type	hisi_blk_get_lld,@function
hisi_blk_get_lld:                       // @hisi_blk_get_lld
.Lfunc_begin0:
	.loc	2 24 0                  // /mnt/ssddisk/jslave/ci/workspace/chipset_WLZ_4g_release/opensource/component_code/vendor/huawei/extra/build/build_script/kirin_kernel_release/kernel/block/hisi-blk-core.c:24:0
	.cfi_sections .debug_frame
	.cfi_startproc
// %bb.0:
	//DEBUG_VALUE: hisi_blk_get_lld:q <- $x0
	//DEBUG_VALUE: hisi_blk_get_lld:q <- $x0
	.loc	2 25 6 prologue_end     // /mnt/ssddisk/jslave/ci/workspace/chipset_WLZ_4g_release/opensource/component_code/vendor/huawei/extra/build/build_script/kirin_kernel_release/kernel/block/hisi-blk-core.c:25:6
	ldr	x8, [x0, #312]
.Ltmp0:
	.loc	2 25 6 is_stmt 0        // /mnt/ssddisk/jslave/ci/workspace/chipset_WLZ_4g_release/opensource/component_code/vendor/huawei/extra/build/build_script/kirin_kernel_release/kernel/block/hisi-blk-core.c:25:6
	cbz	x8, .LBB0_3
.Ltmp1:
// %bb.1:
	//DEBUG_VALUE: hisi_blk_get_lld:q <- $x0
	.loc	2 26 14 is_stmt 1       // /mnt/ssddisk/jslave/ci/workspace/chipset_WLZ_4g_release/opensource/component_code/vendor/huawei/extra/build/build_script/kirin_kernel_release/kernel/block/hisi-blk-core.c:26:14
	ldr	x8, [x0, #3296]
	.loc	2 26 11 is_stmt 0       // /mnt/ssddisk/jslave/ci/workspace/chipset_WLZ_4g_release/opensource/component_code/vendor/huawei/extra/build/build_script/kirin_kernel_release/kernel/block/hisi-blk-core.c:26:11
	add	x9, x0, #1800           // =1800
	add	x10, x8, #16            // =16
.Ltmp2:
.LBB0_2:
	//DEBUG_VALUE: hisi_blk_get_lld:q <- $x0
	.loc	2 0 0                   // /mnt/ssddisk/jslave/ci/workspace/chipset_WLZ_4g_release/opensource/component_code/vendor/huawei/extra/build/build_script/kirin_kernel_release/kernel/block/hisi-blk-core.c:0:0
	cmp	x8, #0                  // =0
	csel	x0, x9, x10, eq
.Ltmp3:
	.loc	2 30 1 is_stmt 1        // /mnt/ssddisk/jslave/ci/workspace/chipset_WLZ_4g_release/opensource/component_code/vendor/huawei/extra/build/build_script/kirin_kernel_release/kernel/block/hisi-blk-core.c:30:1
	ret
.LBB0_3:
.Ltmp4:
	//DEBUG_VALUE: hisi_blk_get_lld:q <- $x0
	.loc	2 28 14                 // /mnt/ssddisk/jslave/ci/workspace/chipset_WLZ_4g_release/opensource/component_code/vendor/huawei/extra/build/build_script/kirin_kernel_release/kernel/block/hisi-blk-core.c:28:14
	ldr	x8, [x0, #720]
	.loc	2 28 11 is_stmt 0       // /mnt/ssddisk/jslave/ci/workspace/chipset_WLZ_4g_release/opensource/component_code/vendor/huawei/extra/build/build_script/kirin_kernel_release/kernel/block/hisi-blk-core.c:28:11
	add	x9, x0, #1800           // =1800
	add	x10, x8, #120           // =120
	b	.LBB0_2
.Ltmp5:
.Lfunc_end0:
	.size	hisi_blk_get_lld, .Lfunc_end0-hisi_blk_get_lld
	.cfi_endproc
                                        // -- End function
	.section	.text.hisi_blk_get_queue_by_lld,"ax",@progbits
	.hidden	hisi_blk_get_queue_by_lld // -- Begin function hisi_blk_get_queue_by_lld
	.globl	hisi_blk_get_queue_by_lld
	.p2align	2
	.type	hisi_blk_get_queue_by_lld,@function
hisi_blk_get_queue_by_lld:              // @hisi_blk_get_queue_by_lld
.Lfunc_begin1:
	.loc	2 33 0 is_stmt 1        // /mnt/ssddisk/jslave/ci/workspace/chipset_WLZ_4g_release/opensource/component_code/vendor/huawei/extra/build/build_script/kirin_kernel_release/kernel/block/hisi-blk-core.c:33:0
	.cfi_startproc
// %bb.0:
	//DEBUG_VALUE: hisi_blk_get_queue_by_lld:lld <- $x0
	//DEBUG_VALUE: hisi_blk_get_queue_by_lld:lld <- $x0
	.loc	2 36 15 prologue_end    // /mnt/ssddisk/jslave/ci/workspace/chipset_WLZ_4g_release/opensource/component_code/vendor/huawei/extra/build/build_script/kirin_kernel_release/kernel/block/hisi-blk-core.c:36:15
	ldr	w8, [x0, #4]
	.loc	2 36 2 is_stmt 0        // /mnt/ssddisk/jslave/ci/workspace/chipset_WLZ_4g_release/opensource/component_code/vendor/huawei/extra/build/build_script/kirin_kernel_release/kernel/block/hisi-blk-core.c:36:2
	cmp	w8, #2                  // =2
	b.eq	.LBB1_4
.Ltmp6:
// %bb.1:
	//DEBUG_VALUE: hisi_blk_get_queue_by_lld:lld <- $x0
	cmp	w8, #1                  // =1
	b.eq	.LBB1_5
.Ltmp7:
// %bb.2:
	//DEBUG_VALUE: hisi_blk_get_queue_by_lld:lld <- $x0
	cbnz	w8, .LBB1_6
.Ltmp8:
// %bb.3:
	//DEBUG_VALUE: hisi_blk_get_queue_by_lld:lld <- $x0
	.loc	2 38 40 is_stmt 1       // /mnt/ssddisk/jslave/ci/workspace/chipset_WLZ_4g_release/opensource/component_code/vendor/huawei/extra/build/build_script/kirin_kernel_release/kernel/block/hisi-blk-core.c:38:40
	ldr	x0, [x0, #8]
.Ltmp9:
	.loc	2 49 1                  // /mnt/ssddisk/jslave/ci/workspace/chipset_WLZ_4g_release/opensource/component_code/vendor/huawei/extra/build/build_script/kirin_kernel_release/kernel/block/hisi-blk-core.c:49:1
	ret
.LBB1_4:
.Ltmp10:
	//DEBUG_VALUE: hisi_blk_get_queue_by_lld:lld <- $x0
	.loc	2 44 44                 // /mnt/ssddisk/jslave/ci/workspace/chipset_WLZ_4g_release/opensource/component_code/vendor/huawei/extra/build/build_script/kirin_kernel_release/kernel/block/hisi-blk-core.c:44:44
	ldr	x8, [x0, #8]
.Ltmp11:
	//DEBUG_VALUE: hisi_blk_get_queue_by_lld:tag_set <- $x8
	.loc	2 45 10                 // /mnt/ssddisk/jslave/ci/workspace/chipset_WLZ_4g_release/opensource/component_code/vendor/huawei/extra/build/build_script/kirin_kernel_release/kernel/block/hisi-blk-core.c:45:10
	ldr	x8, [x8, #1072]
.Ltmp12:
	//DEBUG_VALUE: __mptr <- $x8
	.loc	2 0 0 is_stmt 0         // /mnt/ssddisk/jslave/ci/workspace/chipset_WLZ_4g_release/opensource/component_code/vendor/huawei/extra/build/build_script/kirin_kernel_release/kernel/block/hisi-blk-core.c:0:0
	sub	x0, x8, #3304           // =3304
.Ltmp13:
	.loc	2 49 1 is_stmt 1        // /mnt/ssddisk/jslave/ci/workspace/chipset_WLZ_4g_release/opensource/component_code/vendor/huawei/extra/build/build_script/kirin_kernel_release/kernel/block/hisi-blk-core.c:49:1
	ret
.Ltmp14:
.LBB1_5:
	//DEBUG_VALUE: hisi_blk_get_queue_by_lld:lld <- $x0
	.loc	2 40 39                 // /mnt/ssddisk/jslave/ci/workspace/chipset_WLZ_4g_release/opensource/component_code/vendor/huawei/extra/build/build_script/kirin_kernel_release/kernel/block/hisi-blk-core.c:40:39
	ldr	x8, [x0, #8]
.Ltmp15:
	//DEBUG_VALUE: hisi_blk_get_queue_by_lld:tag <- $x8
	.loc	2 41 10                 // /mnt/ssddisk/jslave/ci/workspace/chipset_WLZ_4g_release/opensource/component_code/vendor/huawei/extra/build/build_script/kirin_kernel_release/kernel/block/hisi-blk-core.c:41:10
	ldr	x8, [x8, #112]
.Ltmp16:
	//DEBUG_VALUE: __mptr <- $x8
	.loc	2 0 0 is_stmt 0         // /mnt/ssddisk/jslave/ci/workspace/chipset_WLZ_4g_release/opensource/component_code/vendor/huawei/extra/build/build_script/kirin_kernel_release/kernel/block/hisi-blk-core.c:0:0
	sub	x0, x8, #3304           // =3304
.Ltmp17:
	.loc	2 49 1 is_stmt 1        // /mnt/ssddisk/jslave/ci/workspace/chipset_WLZ_4g_release/opensource/component_code/vendor/huawei/extra/build/build_script/kirin_kernel_release/kernel/block/hisi-blk-core.c:49:1
	ret
.Ltmp18:
.LBB1_6:
	//DEBUG_VALUE: hisi_blk_get_queue_by_lld:lld <- $x0
	.loc	2 0 0 is_stmt 0         // /mnt/ssddisk/jslave/ci/workspace/chipset_WLZ_4g_release/opensource/component_code/vendor/huawei/extra/build/build_script/kirin_kernel_release/kernel/block/hisi-blk-core.c:0:0
	mov	x0, xzr
.Ltmp19:
	.loc	2 49 1                  // /mnt/ssddisk/jslave/ci/workspace/chipset_WLZ_4g_release/opensource/component_code/vendor/huawei/extra/build/build_script/kirin_kernel_release/kernel/block/hisi-blk-core.c:49:1
	ret
.Ltmp20:
.Lfunc_end1:
	.size	hisi_blk_get_queue_by_lld, .Lfunc_end1-hisi_blk_get_queue_by_lld
	.cfi_endproc
                                        // -- End function
	.section	.text.blk_queue_set_inline_crypto_flag,"ax",@progbits
	.hidden	blk_queue_set_inline_crypto_flag // -- Begin function blk_queue_set_inline_crypto_flag
	.globl	blk_queue_set_inline_crypto_flag
	.p2align	2
	.type	blk_queue_set_inline_crypto_flag,@function
blk_queue_set_inline_crypto_flag:       // @blk_queue_set_inline_crypto_flag
.Lfunc_begin2:
	.loc	2 93 0 is_stmt 1        // /mnt/ssddisk/jslave/ci/workspace/chipset_WLZ_4g_release/opensource/component_code/vendor/huawei/extra/build/build_script/kirin_kernel_release/kernel/block/hisi-blk-core.c:93:0
	.cfi_startproc
// %bb.0:
	//DEBUG_VALUE: blk_queue_set_inline_crypto_flag:q <- $x0
	//DEBUG_VALUE: blk_queue_set_inline_crypto_flag:q <- $x0
	//DEBUG_VALUE: blk_queue_set_inline_crypto_flag:enable <- $w1
	//DEBUG_VALUE: blk_queue_set_inline_crypto_flag:enable <- undef
	//DEBUG_VALUE: hisi_blk_get_lld:q <- $x0
	//DEBUG_VALUE: hisi_blk_get_lld:q <- $x0
	.loc	2 25 6 prologue_end     // /mnt/ssddisk/jslave/ci/workspace/chipset_WLZ_4g_release/opensource/component_code/vendor/huawei/extra/build/build_script/kirin_kernel_release/kernel/block/hisi-blk-core.c:25:6
	ldr	x8, [x0, #312]
.Ltmp21:
	//DEBUG_VALUE: blk_queue_set_inline_crypto_flag:enable <- $w1
	.loc	2 25 6 is_stmt 0        // /mnt/ssddisk/jslave/ci/workspace/chipset_WLZ_4g_release/opensource/component_code/vendor/huawei/extra/build/build_script/kirin_kernel_release/kernel/block/hisi-blk-core.c:25:6
	cbz	x8, .LBB2_3
// %bb.1:
	//DEBUG_VALUE: hisi_blk_get_lld:q <- $x0
	//DEBUG_VALUE: blk_queue_set_inline_crypto_flag:enable <- $w1
	//DEBUG_VALUE: blk_queue_set_inline_crypto_flag:q <- $x0
.Ltmp22:
	.loc	2 26 14 is_stmt 1       // /mnt/ssddisk/jslave/ci/workspace/chipset_WLZ_4g_release/opensource/component_code/vendor/huawei/extra/build/build_script/kirin_kernel_release/kernel/block/hisi-blk-core.c:26:14
	ldr	x8, [x0, #3296]
	.loc	2 26 11 is_stmt 0       // /mnt/ssddisk/jslave/ci/workspace/chipset_WLZ_4g_release/opensource/component_code/vendor/huawei/extra/build/build_script/kirin_kernel_release/kernel/block/hisi-blk-core.c:26:11
	add	x9, x0, #1800           // =1800
	add	x10, x8, #16            // =16
.LBB2_2:
	//DEBUG_VALUE: hisi_blk_get_lld:q <- $x0
	//DEBUG_VALUE: blk_queue_set_inline_crypto_flag:enable <- $w1
	//DEBUG_VALUE: blk_queue_set_inline_crypto_flag:q <- $x0
	.loc	2 0 0                   // /mnt/ssddisk/jslave/ci/workspace/chipset_WLZ_4g_release/opensource/component_code/vendor/huawei/extra/build/build_script/kirin_kernel_release/kernel/block/hisi-blk-core.c:0:0
	cmp	x8, #0                  // =0
	csel	x8, x9, x10, eq
.Ltmp23:
	//DEBUG_VALUE: blk_queue_set_inline_crypto_flag:blk_lld <- $x8
	ldr	x9, [x8, #24]
.Ltmp24:
	.loc	2 95 6 is_stmt 1        // /mnt/ssddisk/jslave/ci/workspace/chipset_WLZ_4g_release/opensource/component_code/vendor/huawei/extra/build/build_script/kirin_kernel_release/kernel/block/hisi-blk-core.c:95:6
	tst	w1, #0x1
	and	x10, x9, #0xffffffffffffffef
	orr	x9, x9, #0x10
	csel	x9, x9, x10, ne
.Ltmp25:
	.loc	2 0 0 is_stmt 0         // /mnt/ssddisk/jslave/ci/workspace/chipset_WLZ_4g_release/opensource/component_code/vendor/huawei/extra/build/build_script/kirin_kernel_release/kernel/block/hisi-blk-core.c:0:0
	str	x9, [x8, #24]
.Ltmp26:
	.loc	2 99 1 is_stmt 1        // /mnt/ssddisk/jslave/ci/workspace/chipset_WLZ_4g_release/opensource/component_code/vendor/huawei/extra/build/build_script/kirin_kernel_release/kernel/block/hisi-blk-core.c:99:1
	ret
.Ltmp27:
.LBB2_3:
	//DEBUG_VALUE: hisi_blk_get_lld:q <- $x0
	//DEBUG_VALUE: blk_queue_set_inline_crypto_flag:enable <- $w1
	//DEBUG_VALUE: blk_queue_set_inline_crypto_flag:q <- $x0
	.loc	2 28 14                 // /mnt/ssddisk/jslave/ci/workspace/chipset_WLZ_4g_release/opensource/component_code/vendor/huawei/extra/build/build_script/kirin_kernel_release/kernel/block/hisi-blk-core.c:28:14
	ldr	x8, [x0, #720]
	.loc	2 28 11 is_stmt 0       // /mnt/ssddisk/jslave/ci/workspace/chipset_WLZ_4g_release/opensource/component_code/vendor/huawei/extra/build/build_script/kirin_kernel_release/kernel/block/hisi-blk-core.c:28:11
	add	x9, x0, #1800           // =1800
	add	x10, x8, #120           // =120
	b	.LBB2_2
.Ltmp28:
.Lfunc_end2:
	.size	blk_queue_set_inline_crypto_flag, .Lfunc_end2-blk_queue_set_inline_crypto_flag
	.cfi_endproc
                                        // -- End function
	.section	.text.is_blk_queue_support_crypto,"ax",@progbits
	.hidden	is_blk_queue_support_crypto // -- Begin function is_blk_queue_support_crypto
	.globl	is_blk_queue_support_crypto
	.p2align	2
	.type	is_blk_queue_support_crypto,@function
is_blk_queue_support_crypto:            // @is_blk_queue_support_crypto
.Lfunc_begin3:
	.loc	2 106 0 is_stmt 1       // /mnt/ssddisk/jslave/ci/workspace/chipset_WLZ_4g_release/opensource/component_code/vendor/huawei/extra/build/build_script/kirin_kernel_release/kernel/block/hisi-blk-core.c:106:0
	.cfi_startproc
// %bb.0:
	//DEBUG_VALUE: is_blk_queue_support_crypto:q <- $x0
	//DEBUG_VALUE: is_blk_queue_support_crypto:q <- $x0
	//DEBUG_VALUE: hisi_blk_get_lld:q <- $x0
	//DEBUG_VALUE: hisi_blk_get_lld:q <- $x0
	.loc	2 25 6 prologue_end     // /mnt/ssddisk/jslave/ci/workspace/chipset_WLZ_4g_release/opensource/component_code/vendor/huawei/extra/build/build_script/kirin_kernel_release/kernel/block/hisi-blk-core.c:25:6
	ldr	x8, [x0, #312]
.Ltmp29:
	.loc	2 25 6 is_stmt 0        // /mnt/ssddisk/jslave/ci/workspace/chipset_WLZ_4g_release/opensource/component_code/vendor/huawei/extra/build/build_script/kirin_kernel_release/kernel/block/hisi-blk-core.c:25:6
	cbz	x8, .LBB3_3
.Ltmp30:
// %bb.1:
	//DEBUG_VALUE: hisi_blk_get_lld:q <- $x0
	//DEBUG_VALUE: is_blk_queue_support_crypto:q <- $x0
	.loc	2 26 14 is_stmt 1       // /mnt/ssddisk/jslave/ci/workspace/chipset_WLZ_4g_release/opensource/component_code/vendor/huawei/extra/build/build_script/kirin_kernel_release/kernel/block/hisi-blk-core.c:26:14
	ldr	x8, [x0, #3296]
	.loc	2 26 11 is_stmt 0       // /mnt/ssddisk/jslave/ci/workspace/chipset_WLZ_4g_release/opensource/component_code/vendor/huawei/extra/build/build_script/kirin_kernel_release/kernel/block/hisi-blk-core.c:26:11
	add	x9, x0, #1800           // =1800
	add	x10, x8, #16            // =16
.Ltmp31:
.LBB3_2:
	//DEBUG_VALUE: hisi_blk_get_lld:q <- $x0
	//DEBUG_VALUE: is_blk_queue_support_crypto:q <- $x0
	.loc	2 0 0                   // /mnt/ssddisk/jslave/ci/workspace/chipset_WLZ_4g_release/opensource/component_code/vendor/huawei/extra/build/build_script/kirin_kernel_release/kernel/block/hisi-blk-core.c:0:0
	cmp	x8, #0                  // =0
	csel	x8, x9, x10, eq
.Ltmp32:
	//DEBUG_VALUE: is_blk_queue_support_crypto:blk_lld <- $x8
	.loc	2 108 19 is_stmt 1      // /mnt/ssddisk/jslave/ci/workspace/chipset_WLZ_4g_release/opensource/component_code/vendor/huawei/extra/build/build_script/kirin_kernel_release/kernel/block/hisi-blk-core.c:108:19
	ldr	w8, [x8, #24]
.Ltmp33:
	.loc	2 108 9 is_stmt 0       // /mnt/ssddisk/jslave/ci/workspace/chipset_WLZ_4g_release/opensource/component_code/vendor/huawei/extra/build/build_script/kirin_kernel_release/kernel/block/hisi-blk-core.c:108:9
	and	w0, w8, #0x10
.Ltmp34:
	.loc	2 108 2                 // /mnt/ssddisk/jslave/ci/workspace/chipset_WLZ_4g_release/opensource/component_code/vendor/huawei/extra/build/build_script/kirin_kernel_release/kernel/block/hisi-blk-core.c:108:2
	ret
.LBB3_3:
.Ltmp35:
	//DEBUG_VALUE: hisi_blk_get_lld:q <- $x0
	//DEBUG_VALUE: is_blk_queue_support_crypto:q <- $x0
	.loc	2 28 14 is_stmt 1       // /mnt/ssddisk/jslave/ci/workspace/chipset_WLZ_4g_release/opensource/component_code/vendor/huawei/extra/build/build_script/kirin_kernel_release/kernel/block/hisi-blk-core.c:28:14
	ldr	x8, [x0, #720]
	.loc	2 28 11 is_stmt 0       // /mnt/ssddisk/jslave/ci/workspace/chipset_WLZ_4g_release/opensource/component_code/vendor/huawei/extra/build/build_script/kirin_kernel_release/kernel/block/hisi-blk-core.c:28:11
	add	x9, x0, #1800           // =1800
	add	x10, x8, #120           // =120
	b	.LBB3_2
.Ltmp36:
.Lfunc_end3:
	.size	is_blk_queue_support_crypto, .Lfunc_end3-is_blk_queue_support_crypto
	.cfi_endproc
                                        // -- End function
	.section	.text.hisi_blk_queue_usr_ctrl_set,"ax",@progbits
	.hidden	hisi_blk_queue_usr_ctrl_set // -- Begin function hisi_blk_queue_usr_ctrl_set
	.globl	hisi_blk_queue_usr_ctrl_set
	.p2align	2
	.type	hisi_blk_queue_usr_ctrl_set,@function
hisi_blk_queue_usr_ctrl_set:            // @hisi_blk_queue_usr_ctrl_set
.Lfunc_begin4:
	.loc	2 280 0 is_stmt 1       // /mnt/ssddisk/jslave/ci/workspace/chipset_WLZ_4g_release/opensource/component_code/vendor/huawei/extra/build/build_script/kirin_kernel_release/kernel/block/hisi-blk-core.c:280:0
	.cfi_startproc
// %bb.0:
	stp	x20, x19, [sp, #-32]!   // 16-byte Folded Spill
	stp	x29, x30, [sp, #16]     // 16-byte Folded Spill
	add	x29, sp, #16            // =16
	.cfi_def_cfa w29, 16
	.cfi_offset w30, -8
	.cfi_offset w29, -16
	.cfi_offset w19, -24
	.cfi_offset w20, -32
	//DEBUG_VALUE: hisi_blk_queue_usr_ctrl_set:q <- $x0
	//DEBUG_VALUE: hisi_blk_queue_usr_ctrl_set:q <- $x0
.Ltmp37:
	.loc	2 281 20 prologue_end   // /mnt/ssddisk/jslave/ci/workspace/chipset_WLZ_4g_release/opensource/component_code/vendor/huawei/extra/build/build_script/kirin_kernel_release/kernel/block/hisi-blk-core.c:281:20
	ldr	x8, [x0, #1552]
	mov	w9, #28570
	movk	w9, #4, lsl #16
.Ltmp38:
	.loc	2 281 6 is_stmt 0       // /mnt/ssddisk/jslave/ci/workspace/chipset_WLZ_4g_release/opensource/component_code/vendor/huawei/extra/build/build_script/kirin_kernel_release/kernel/block/hisi-blk-core.c:281:6
	cmp	x8, x9
	b.ne	.LBB4_2
.Ltmp39:
// %bb.1:
	//DEBUG_VALUE: hisi_blk_queue_usr_ctrl_set:q <- $x0
	.loc	2 0 6                   // /mnt/ssddisk/jslave/ci/workspace/chipset_WLZ_4g_release/opensource/component_code/vendor/huawei/extra/build/build_script/kirin_kernel_release/kernel/block/hisi-blk-core.c:0:6
	mov	w8, #100
.Ltmp40:
	.loc	2 282 22 is_stmt 1      // /mnt/ssddisk/jslave/ci/workspace/chipset_WLZ_4g_release/opensource/component_code/vendor/huawei/extra/build/build_script/kirin_kernel_release/kernel/block/hisi-blk-core.c:282:22
	str	x8, [x0, #1728]
	.loc	2 284 4                 // /mnt/ssddisk/jslave/ci/workspace/chipset_WLZ_4g_release/opensource/component_code/vendor/huawei/extra/build/build_script/kirin_kernel_release/kernel/block/hisi-blk-core.c:284:4
	adrp	x8, jiffies
	ldr	x20, [x8, :lo12:jiffies]
	.loc	2 283 28                // /mnt/ssddisk/jslave/ci/workspace/chipset_WLZ_4g_release/opensource/component_code/vendor/huawei/extra/build/build_script/kirin_kernel_release/kernel/block/hisi-blk-core.c:283:28
	add	x19, x0, #1736          // =1736
.Ltmp41:
	//DEBUG_VALUE: msecs_to_jiffies:m <- 3600000
	.file	136 "/mnt/ssddisk/jslave/ci/workspace/chipset_WLZ_4g_release/opensource/component_code/vendor/huawei/extra/build/build_script/kirin_kernel_release/kernel/include/linux/jiffies.h"
	.loc	136 370 10              // /mnt/ssddisk/jslave/ci/workspace/chipset_WLZ_4g_release/opensource/component_code/vendor/huawei/extra/build/build_script/kirin_kernel_release/kernel/include/linux/jiffies.h:370:10
	mov	w0, #61056
.Ltmp42:
	movk	w0, #54, lsl #16
	bl	__msecs_to_jiffies
.Ltmp43:
	.loc	2 284 12                // /mnt/ssddisk/jslave/ci/workspace/chipset_WLZ_4g_release/opensource/component_code/vendor/huawei/extra/build/build_script/kirin_kernel_release/kernel/block/hisi-blk-core.c:284:12
	add	x1, x0, x20
	.loc	2 283 3                 // /mnt/ssddisk/jslave/ci/workspace/chipset_WLZ_4g_release/opensource/component_code/vendor/huawei/extra/build/build_script/kirin_kernel_release/kernel/block/hisi-blk-core.c:283:3
	mov	x0, x19
	bl	mod_timer
	b	.LBB4_3
.Ltmp44:
.LBB4_2:
	//DEBUG_VALUE: hisi_blk_queue_usr_ctrl_set:q <- $x0
	.loc	2 288 22                // /mnt/ssddisk/jslave/ci/workspace/chipset_WLZ_4g_release/opensource/component_code/vendor/huawei/extra/build/build_script/kirin_kernel_release/kernel/block/hisi-blk-core.c:288:22
	str	xzr, [x0, #1728]
	.loc	2 289 33                // /mnt/ssddisk/jslave/ci/workspace/chipset_WLZ_4g_release/opensource/component_code/vendor/huawei/extra/build/build_script/kirin_kernel_release/kernel/block/hisi-blk-core.c:289:33
	add	x0, x0, #1736           // =1736
.Ltmp45:
	.loc	2 289 3 is_stmt 0       // /mnt/ssddisk/jslave/ci/workspace/chipset_WLZ_4g_release/opensource/component_code/vendor/huawei/extra/build/build_script/kirin_kernel_release/kernel/block/hisi-blk-core.c:289:3
	bl	del_timer_sync
.Ltmp46:
.LBB4_3:
	.loc	2 291 1 is_stmt 1       // /mnt/ssddisk/jslave/ci/workspace/chipset_WLZ_4g_release/opensource/component_code/vendor/huawei/extra/build/build_script/kirin_kernel_release/kernel/block/hisi-blk-core.c:291:1
	ldp	x29, x30, [sp, #16]     // 16-byte Folded Reload
	ldp	x20, x19, [sp], #32     // 16-byte Folded Reload
	ret
.Ltmp47:
.Lfunc_end4:
	.size	hisi_blk_queue_usr_ctrl_set, .Lfunc_end4-hisi_blk_queue_usr_ctrl_set
	.cfi_endproc
                                        // -- End function
	.section	.text.hisi_blk_queue_usr_ctrl_recovery_timer_expire,"ax",@progbits
	.hidden	hisi_blk_queue_usr_ctrl_recovery_timer_expire // -- Begin function hisi_blk_queue_usr_ctrl_recovery_timer_expire
	.globl	hisi_blk_queue_usr_ctrl_recovery_timer_expire
	.p2align	2
	.type	hisi_blk_queue_usr_ctrl_recovery_timer_expire,@function
hisi_blk_queue_usr_ctrl_recovery_timer_expire: // @hisi_blk_queue_usr_ctrl_recovery_timer_expire
.Lfunc_begin5:
	.loc	2 294 0                 // /mnt/ssddisk/jslave/ci/workspace/chipset_WLZ_4g_release/opensource/component_code/vendor/huawei/extra/build/build_script/kirin_kernel_release/kernel/block/hisi-blk-core.c:294:0
	.cfi_startproc
// %bb.0:
	//DEBUG_VALUE: hisi_blk_queue_usr_ctrl_recovery_timer_expire:data <- $x0
	//DEBUG_VALUE: hisi_blk_queue_usr_ctrl_recovery_timer_expire:data <- $x0
	//DEBUG_VALUE: hisi_blk_queue_usr_ctrl_recovery_timer_expire:q <- $x0
	.loc	2 296 27 prologue_end   // /mnt/ssddisk/jslave/ci/workspace/chipset_WLZ_4g_release/opensource/component_code/vendor/huawei/extra/build/build_script/kirin_kernel_release/kernel/block/hisi-blk-core.c:296:27
	str	xzr, [x0, #1552]
	.loc	2 297 21                // /mnt/ssddisk/jslave/ci/workspace/chipset_WLZ_4g_release/opensource/component_code/vendor/huawei/extra/build/build_script/kirin_kernel_release/kernel/block/hisi-blk-core.c:297:21
	str	xzr, [x0, #1728]
	.loc	2 298 1                 // /mnt/ssddisk/jslave/ci/workspace/chipset_WLZ_4g_release/opensource/component_code/vendor/huawei/extra/build/build_script/kirin_kernel_release/kernel/block/hisi-blk-core.c:298:1
	ret
.Ltmp48:
.Lfunc_end5:
	.size	hisi_blk_queue_usr_ctrl_recovery_timer_expire, .Lfunc_end5-hisi_blk_queue_usr_ctrl_recovery_timer_expire
	.cfi_endproc
                                        // -- End function
	.section	.text.hisi_blk_bio_queue_split,"ax",@progbits
	.hidden	hisi_blk_bio_queue_split // -- Begin function hisi_blk_bio_queue_split
	.globl	hisi_blk_bio_queue_split
	.p2align	2
	.type	hisi_blk_bio_queue_split,@function
hisi_blk_bio_queue_split:               // @hisi_blk_bio_queue_split
.Lfunc_begin6:
	.loc	2 322 0                 // /mnt/ssddisk/jslave/ci/workspace/chipset_WLZ_4g_release/opensource/component_code/vendor/huawei/extra/build/build_script/kirin_kernel_release/kernel/block/hisi-blk-core.c:322:0
	.cfi_startproc
// %bb.0:
	stp	x20, x19, [sp, #-32]!   // 16-byte Folded Spill
	stp	x29, x30, [sp, #16]     // 16-byte Folded Spill
	add	x29, sp, #16            // =16
	.cfi_def_cfa w29, 16
	.cfi_offset w30, -8
	.cfi_offset w29, -16
	.cfi_offset w19, -24
	.cfi_offset w20, -32
	//DEBUG_VALUE: hisi_blk_bio_queue_split:q <- $x0
	//DEBUG_VALUE: hisi_blk_bio_queue_split:bio <- $x1
	//DEBUG_VALUE: hisi_blk_bio_queue_split:split <- $x2
.Ltmp49:
	.loc	2 323 37 prologue_end   // /mnt/ssddisk/jslave/ci/workspace/chipset_WLZ_4g_release/opensource/component_code/vendor/huawei/extra/build/build_script/kirin_kernel_release/kernel/block/hisi-blk-core.c:323:37
	ldr	x8, [x1]
	mov	x20, x0
.Ltmp50:
	//DEBUG_VALUE: hisi_blk_bio_queue_split:q <- $x20
	.loc	2 0 37 is_stmt 0        // /mnt/ssddisk/jslave/ci/workspace/chipset_WLZ_4g_release/opensource/component_code/vendor/huawei/extra/build/build_script/kirin_kernel_release/kernel/block/hisi-blk-core.c:0:37
	mov	x19, x2
.Ltmp51:
	//DEBUG_VALUE: hisi_blk_bio_queue_split:split <- $x19
	//DEBUG_VALUE: hisi_blk_bio_queue_split:bio <- $x1
	.loc	2 323 2                 // /mnt/ssddisk/jslave/ci/workspace/chipset_WLZ_4g_release/opensource/component_code/vendor/huawei/extra/build/build_script/kirin_kernel_release/kernel/block/hisi-blk-core.c:323:2
	mov	x0, x8
	bl	hisi_blk_busy_idle_check_bio_endio
.Ltmp52:
	.loc	2 324 2 is_stmt 1       // /mnt/ssddisk/jslave/ci/workspace/chipset_WLZ_4g_release/opensource/component_code/vendor/huawei/extra/build/build_script/kirin_kernel_release/kernel/block/hisi-blk-core.c:324:2
	mov	x0, x20
.Ltmp53:
	//DEBUG_VALUE: hisi_blk_bio_queue_split:q <- $x0
	mov	x1, x19
.Ltmp54:
	//DEBUG_VALUE: hisi_blk_bio_queue_split:split <- $x1
	bl	hisi_blk_busy_idle_check_bio
.Ltmp55:
	.loc	2 325 1                 // /mnt/ssddisk/jslave/ci/workspace/chipset_WLZ_4g_release/opensource/component_code/vendor/huawei/extra/build/build_script/kirin_kernel_release/kernel/block/hisi-blk-core.c:325:1
	ldp	x29, x30, [sp, #16]     // 16-byte Folded Reload
	ldp	x20, x19, [sp], #32     // 16-byte Folded Reload
	ret
.Ltmp56:
.Lfunc_end6:
	.size	hisi_blk_bio_queue_split, .Lfunc_end6-hisi_blk_bio_queue_split
	.cfi_endproc
                                        // -- End function
	.section	.text.hisi_blk_queue_bounce,"ax",@progbits
	.hidden	hisi_blk_queue_bounce   // -- Begin function hisi_blk_queue_bounce
	.globl	hisi_blk_queue_bounce
	.p2align	2
	.type	hisi_blk_queue_bounce,@function
hisi_blk_queue_bounce:                  // @hisi_blk_queue_bounce
.Lfunc_begin7:
	.loc	2 332 0                 // /mnt/ssddisk/jslave/ci/workspace/chipset_WLZ_4g_release/opensource/component_code/vendor/huawei/extra/build/build_script/kirin_kernel_release/kernel/block/hisi-blk-core.c:332:0
	.cfi_startproc
// %bb.0:
	stp	x29, x30, [sp, #-16]!   // 16-byte Folded Spill
	mov	x29, sp
	.cfi_def_cfa w29, 16
	.cfi_offset w30, -8
	.cfi_offset w29, -16
	//DEBUG_VALUE: hisi_blk_queue_bounce:q <- $x0
	//DEBUG_VALUE: hisi_blk_queue_bounce:bio_orig <- $x1
	//DEBUG_VALUE: hisi_blk_queue_bounce:bio_cloned <- $x2
	mov	x1, x2
.Ltmp57:
	//DEBUG_VALUE: hisi_blk_queue_bounce:bio_cloned <- $x1
	//DEBUG_VALUE: hisi_blk_queue_bounce:q <- $x0
	//DEBUG_VALUE: hisi_blk_queue_bounce:bio_cloned <- $x1
	//DEBUG_VALUE: hisi_blk_queue_bounce:q <- $x0
	.loc	2 333 2 prologue_end    // /mnt/ssddisk/jslave/ci/workspace/chipset_WLZ_4g_release/opensource/component_code/vendor/huawei/extra/build/build_script/kirin_kernel_release/kernel/block/hisi-blk-core.c:333:2
	bl	hisi_blk_busy_idle_check_bio
.Ltmp58:
	.loc	2 334 1                 // /mnt/ssddisk/jslave/ci/workspace/chipset_WLZ_4g_release/opensource/component_code/vendor/huawei/extra/build/build_script/kirin_kernel_release/kernel/block/hisi-blk-core.c:334:1
	ldp	x29, x30, [sp], #16     // 16-byte Folded Reload
	ret
.Ltmp59:
.Lfunc_end7:
	.size	hisi_blk_queue_bounce, .Lfunc_end7-hisi_blk_queue_bounce
	.cfi_endproc
                                        // -- End function
	.section	.text.hisi_blk_bio_split_pre,"ax",@progbits
	.hidden	hisi_blk_bio_split_pre  // -- Begin function hisi_blk_bio_split_pre
	.globl	hisi_blk_bio_split_pre
	.p2align	2
	.type	hisi_blk_bio_split_pre,@function
hisi_blk_bio_split_pre:                 // @hisi_blk_bio_split_pre
.Lfunc_begin8:
	.loc	2 340 0                 // /mnt/ssddisk/jslave/ci/workspace/chipset_WLZ_4g_release/opensource/component_code/vendor/huawei/extra/build/build_script/kirin_kernel_release/kernel/block/hisi-blk-core.c:340:0
	.cfi_startproc
// %bb.0:
	//DEBUG_VALUE: hisi_blk_bio_split_pre:bio <- $x0
	//DEBUG_VALUE: hisi_blk_bio_split_pre:split <- $x1
	//DEBUG_VALUE: hisi_blk_lld_inline_crypto_bio_split_pre:bio <- $x0
	//DEBUG_VALUE: hisi_blk_lld_inline_crypto_bio_split_pre:split <- $x1
	.loc	2 195 20 prologue_end   // /mnt/ssddisk/jslave/ci/workspace/chipset_WLZ_4g_release/opensource/component_code/vendor/huawei/extra/build/build_script/kirin_kernel_release/kernel/block/hisi-blk-core.c:195:20
	ldr	x8, [x0, #256]
.Ltmp60:
	.loc	2 195 6 is_stmt 0       // /mnt/ssddisk/jslave/ci/workspace/chipset_WLZ_4g_release/opensource/component_code/vendor/huawei/extra/build/build_script/kirin_kernel_release/kernel/block/hisi-blk-core.c:195:6
	cbz	x8, .LBB8_4
.Ltmp61:
// %bb.1:
	//DEBUG_VALUE: hisi_blk_lld_inline_crypto_bio_split_pre:split <- $x1
	//DEBUG_VALUE: hisi_blk_lld_inline_crypto_bio_split_pre:bio <- $x0
	//DEBUG_VALUE: hisi_blk_bio_split_pre:split <- $x1
	//DEBUG_VALUE: hisi_blk_bio_split_pre:bio <- $x0
	stp	x20, x19, [sp, #-32]!   // 16-byte Folded Spill
	stp	x29, x30, [sp, #16]     // 16-byte Folded Spill
	add	x29, sp, #16            // =16
	.cfi_def_cfa w29, 16
	.cfi_offset w30, -8
	.cfi_offset w29, -16
	.cfi_offset w19, -24
	.cfi_offset w20, -32
.Ltmp62:
	.loc	2 196 21 is_stmt 1      // /mnt/ssddisk/jslave/ci/workspace/chipset_WLZ_4g_release/opensource/component_code/vendor/huawei/extra/build/build_script/kirin_kernel_release/kernel/block/hisi-blk-core.c:196:21
	ldr	w9, [x0, #264]
	mov	x19, x0
.Ltmp63:
	//DEBUG_VALUE: hisi_blk_bio_split_pre:bio <- $x19
	//DEBUG_VALUE: hisi_blk_lld_inline_crypto_bio_split_pre:bio <- $x19
	.loc	2 0 21 is_stmt 0        // /mnt/ssddisk/jslave/ci/workspace/chipset_WLZ_4g_release/opensource/component_code/vendor/huawei/extra/build/build_script/kirin_kernel_release/kernel/block/hisi-blk-core.c:0:21
	mov	x20, x1
.Ltmp64:
	//DEBUG_VALUE: hisi_blk_bio_split_pre:split <- $x20
	//DEBUG_VALUE: hisi_blk_lld_inline_crypto_bio_split_pre:split <- $x20
	.loc	2 196 7                 // /mnt/ssddisk/jslave/ci/workspace/chipset_WLZ_4g_release/opensource/component_code/vendor/huawei/extra/build/build_script/kirin_kernel_release/kernel/block/hisi-blk-core.c:196:7
	cmp	w9, #64                 // =64
	b.eq	.LBB8_3
.Ltmp65:
// %bb.2:
	//DEBUG_VALUE: hisi_blk_lld_inline_crypto_bio_split_pre:split <- $x20
	//DEBUG_VALUE: hisi_blk_bio_split_pre:split <- $x20
	//DEBUG_VALUE: hisi_blk_lld_inline_crypto_bio_split_pre:bio <- $x19
	//DEBUG_VALUE: hisi_blk_bio_split_pre:bio <- $x19
	.loc	2 197 4 is_stmt 1       // /mnt/ssddisk/jslave/ci/workspace/chipset_WLZ_4g_release/opensource/component_code/vendor/huawei/extra/build/build_script/kirin_kernel_release/kernel/block/hisi-blk-core.c:197:4
	adrp	x0, .L.str.4
	adrp	x1, .L__func__.hisi_blk_lld_inline_crypto_bio_split_pre
	add	x0, x0, :lo12:.L.str.4
	add	x1, x1, :lo12:.L__func__.hisi_blk_lld_inline_crypto_bio_split_pre
	bl	printk
.Ltmp66:
	.loc	2 200 42                // /mnt/ssddisk/jslave/ci/workspace/chipset_WLZ_4g_release/opensource/component_code/vendor/huawei/extra/build/build_script/kirin_kernel_release/kernel/block/hisi-blk-core.c:200:42
	ldr	x8, [x19, #256]
.Ltmp67:
.LBB8_3:
	//DEBUG_VALUE: hisi_blk_lld_inline_crypto_bio_split_pre:split <- $x20
	//DEBUG_VALUE: hisi_blk_bio_split_pre:split <- $x20
	//DEBUG_VALUE: hisi_blk_lld_inline_crypto_bio_split_pre:bio <- $x19
	//DEBUG_VALUE: hisi_blk_bio_split_pre:bio <- $x19
	.loc	2 200 26 is_stmt 0      // /mnt/ssddisk/jslave/ci/workspace/chipset_WLZ_4g_release/opensource/component_code/vendor/huawei/extra/build/build_script/kirin_kernel_release/kernel/block/hisi-blk-core.c:200:26
	str	x8, [x20, #256]
	.loc	2 201 46 is_stmt 1      // /mnt/ssddisk/jslave/ci/workspace/chipset_WLZ_4g_release/opensource/component_code/vendor/huawei/extra/build/build_script/kirin_kernel_release/kernel/block/hisi-blk-core.c:201:46
	ldr	w8, [x19, #264]
	.loc	2 201 30 is_stmt 0      // /mnt/ssddisk/jslave/ci/workspace/chipset_WLZ_4g_release/opensource/component_code/vendor/huawei/extra/build/build_script/kirin_kernel_release/kernel/block/hisi-blk-core.c:201:30
	str	w8, [x20, #264]
	.loc	2 202 48 is_stmt 1      // /mnt/ssddisk/jslave/ci/workspace/chipset_WLZ_4g_release/opensource/component_code/vendor/huawei/extra/build/build_script/kirin_kernel_release/kernel/block/hisi-blk-core.c:202:48
	ldr	w8, [x19, #268]
	.loc	2 202 32 is_stmt 0      // /mnt/ssddisk/jslave/ci/workspace/chipset_WLZ_4g_release/opensource/component_code/vendor/huawei/extra/build/build_script/kirin_kernel_release/kernel/block/hisi-blk-core.c:202:32
	str	w8, [x20, #268]
	.loc	2 203 41 is_stmt 1      // /mnt/ssddisk/jslave/ci/workspace/chipset_WLZ_4g_release/opensource/component_code/vendor/huawei/extra/build/build_script/kirin_kernel_release/kernel/block/hisi-blk-core.c:203:41
	ldr	x8, [x19, #272]
	.loc	2 203 25 is_stmt 0      // /mnt/ssddisk/jslave/ci/workspace/chipset_WLZ_4g_release/opensource/component_code/vendor/huawei/extra/build/build_script/kirin_kernel_release/kernel/block/hisi-blk-core.c:203:25
	str	x8, [x20, #272]
	ldp	x29, x30, [sp, #16]     // 16-byte Folded Reload
	ldp	x20, x19, [sp], #32     // 16-byte Folded Reload
.Ltmp68:
.LBB8_4:
	.loc	2 342 1 is_stmt 1       // /mnt/ssddisk/jslave/ci/workspace/chipset_WLZ_4g_release/opensource/component_code/vendor/huawei/extra/build/build_script/kirin_kernel_release/kernel/block/hisi-blk-core.c:342:1
	ret
.Ltmp69:
.Lfunc_end8:
	.size	hisi_blk_bio_split_pre, .Lfunc_end8-hisi_blk_bio_split_pre
	.cfi_endproc
                                        // -- End function
	.section	.text.hisi_blk_bio_split_post,"ax",@progbits
	.hidden	hisi_blk_bio_split_post // -- Begin function hisi_blk_bio_split_post
	.globl	hisi_blk_bio_split_post
	.p2align	2
	.type	hisi_blk_bio_split_post,@function
hisi_blk_bio_split_post:                // @hisi_blk_bio_split_post
.Lfunc_begin9:
	.loc	2 348 0                 // /mnt/ssddisk/jslave/ci/workspace/chipset_WLZ_4g_release/opensource/component_code/vendor/huawei/extra/build/build_script/kirin_kernel_release/kernel/block/hisi-blk-core.c:348:0
	.cfi_startproc
// %bb.0:
	//DEBUG_VALUE: hisi_blk_bio_split_post:bio <- $x0
	//DEBUG_VALUE: hisi_blk_bio_split_post:split <- $x1
	//DEBUG_VALUE: hisi_blk_lld_inline_crypto_bio_split_post:bio <- $x0
	.loc	2 220 20 prologue_end   // /mnt/ssddisk/jslave/ci/workspace/chipset_WLZ_4g_release/opensource/component_code/vendor/huawei/extra/build/build_script/kirin_kernel_release/kernel/block/hisi-blk-core.c:220:20
	ldr	x8, [x0, #256]
.Ltmp70:
	.loc	2 220 6 is_stmt 0       // /mnt/ssddisk/jslave/ci/workspace/chipset_WLZ_4g_release/opensource/component_code/vendor/huawei/extra/build/build_script/kirin_kernel_release/kernel/block/hisi-blk-core.c:220:6
	cbz	x8, .LBB9_4
.Ltmp71:
// %bb.1:
	//DEBUG_VALUE: hisi_blk_lld_inline_crypto_bio_split_post:bio <- $x0
	//DEBUG_VALUE: hisi_blk_bio_split_post:split <- $x1
	//DEBUG_VALUE: hisi_blk_bio_split_post:bio <- $x0
	str	x19, [sp, #-32]!        // 8-byte Folded Spill
	stp	x29, x30, [sp, #16]     // 16-byte Folded Spill
	add	x29, sp, #16            // =16
	.cfi_def_cfa w29, 16
	.cfi_offset w30, -8
	.cfi_offset w29, -16
	.cfi_offset w19, -32
.Ltmp72:
	.loc	2 221 21 is_stmt 1      // /mnt/ssddisk/jslave/ci/workspace/chipset_WLZ_4g_release/opensource/component_code/vendor/huawei/extra/build/build_script/kirin_kernel_release/kernel/block/hisi-blk-core.c:221:21
	ldr	w8, [x0, #264]
	mov	x19, x0
.Ltmp73:
	//DEBUG_VALUE: hisi_blk_bio_split_post:bio <- $x19
	//DEBUG_VALUE: hisi_blk_lld_inline_crypto_bio_split_post:bio <- $x19
	.loc	2 221 7 is_stmt 0       // /mnt/ssddisk/jslave/ci/workspace/chipset_WLZ_4g_release/opensource/component_code/vendor/huawei/extra/build/build_script/kirin_kernel_release/kernel/block/hisi-blk-core.c:221:7
	cmp	w8, #64                 // =64
	b.eq	.LBB9_3
.Ltmp74:
// %bb.2:
	//DEBUG_VALUE: hisi_blk_lld_inline_crypto_bio_split_post:bio <- $x19
	//DEBUG_VALUE: hisi_blk_bio_split_post:bio <- $x19
	//DEBUG_VALUE: hisi_blk_bio_split_post:split <- $x1
	.loc	2 222 4 is_stmt 1       // /mnt/ssddisk/jslave/ci/workspace/chipset_WLZ_4g_release/opensource/component_code/vendor/huawei/extra/build/build_script/kirin_kernel_release/kernel/block/hisi-blk-core.c:222:4
	adrp	x0, .L.str.4
	adrp	x1, .L__func__.hisi_blk_lld_inline_crypto_bio_split_post
.Ltmp75:
	add	x0, x0, :lo12:.L.str.4
	add	x1, x1, :lo12:.L__func__.hisi_blk_lld_inline_crypto_bio_split_post
	bl	printk
.Ltmp76:
.LBB9_3:
	//DEBUG_VALUE: hisi_blk_lld_inline_crypto_bio_split_post:bio <- $x19
	//DEBUG_VALUE: hisi_blk_bio_split_post:bio <- $x19
	.loc	2 224 25                // /mnt/ssddisk/jslave/ci/workspace/chipset_WLZ_4g_release/opensource/component_code/vendor/huawei/extra/build/build_script/kirin_kernel_release/kernel/block/hisi-blk-core.c:224:25
	ldr	w8, [x19, #52]
	ldr	x9, [x19, #360]
	lsl	x8, x8, #4
	ldr	x8, [x9, x8]
	.loc	2 224 40 is_stmt 0      // /mnt/ssddisk/jslave/ci/workspace/chipset_WLZ_4g_release/opensource/component_code/vendor/huawei/extra/build/build_script/kirin_kernel_release/kernel/block/hisi-blk-core.c:224:40
	ldr	x8, [x8, #16]
	.loc	2 224 23                // /mnt/ssddisk/jslave/ci/workspace/chipset_WLZ_4g_release/opensource/component_code/vendor/huawei/extra/build/build_script/kirin_kernel_release/kernel/block/hisi-blk-core.c:224:23
	str	x8, [x19, #272]
	ldp	x29, x30, [sp, #16]     // 16-byte Folded Reload
	ldr	x19, [sp], #32          // 8-byte Folded Reload
.Ltmp77:
.LBB9_4:
	.loc	2 350 1 is_stmt 1       // /mnt/ssddisk/jslave/ci/workspace/chipset_WLZ_4g_release/opensource/component_code/vendor/huawei/extra/build/build_script/kirin_kernel_release/kernel/block/hisi-blk-core.c:350:1
	ret
.Ltmp78:
.Lfunc_end9:
	.size	hisi_blk_bio_split_post, .Lfunc_end9-hisi_blk_bio_split_post
	.cfi_endproc
                                        // -- End function
	.section	.text.hisi_blk_bio_merge_allow,"ax",@progbits
	.hidden	hisi_blk_bio_merge_allow // -- Begin function hisi_blk_bio_merge_allow
	.globl	hisi_blk_bio_merge_allow
	.p2align	2
	.type	hisi_blk_bio_merge_allow,@function
hisi_blk_bio_merge_allow:               // @hisi_blk_bio_merge_allow
.Lfunc_begin10:
	.loc	2 356 0                 // /mnt/ssddisk/jslave/ci/workspace/chipset_WLZ_4g_release/opensource/component_code/vendor/huawei/extra/build/build_script/kirin_kernel_release/kernel/block/hisi-blk-core.c:356:0
	.cfi_startproc
// %bb.0:
	str	x21, [sp, #-48]!        // 8-byte Folded Spill
	stp	x20, x19, [sp, #16]     // 16-byte Folded Spill
	stp	x29, x30, [sp, #32]     // 16-byte Folded Spill
	add	x29, sp, #32            // =32
	.cfi_def_cfa w29, 16
	.cfi_offset w30, -8
	.cfi_offset w29, -16
	.cfi_offset w19, -24
	.cfi_offset w20, -32
	.cfi_offset w21, -48
	//DEBUG_VALUE: hisi_blk_bio_merge_allow:rq <- $x0
	//DEBUG_VALUE: hisi_blk_bio_merge_allow:bio <- $x1
.Ltmp79:
	//DEBUG_VALUE: hisi_blk_lld_inline_crypto_bio_merge_allow:rq <- $x0
	//DEBUG_VALUE: hisi_blk_lld_inline_crypto_bio_merge_allow:bio <- $x1
	.loc	2 142 39 prologue_end   // /mnt/ssddisk/jslave/ci/workspace/chipset_WLZ_4g_release/opensource/component_code/vendor/huawei/extra/build/build_script/kirin_kernel_release/kernel/block/hisi-blk-core.c:142:39
	ldr	x8, [x0, #64]
.Ltmp80:
	//DEBUG_VALUE: hisi_blk_get_lld:q <- $x8
	//DEBUG_VALUE: is_blk_queue_support_crypto:q <- $x8
	.loc	2 0 39 is_stmt 0        // /mnt/ssddisk/jslave/ci/workspace/chipset_WLZ_4g_release/opensource/component_code/vendor/huawei/extra/build/build_script/kirin_kernel_release/kernel/block/hisi-blk-core.c:0:39
	mov	x20, x0
.Ltmp81:
	//DEBUG_VALUE: hisi_blk_lld_inline_crypto_bio_merge_allow:rq <- $x20
	//DEBUG_VALUE: hisi_blk_bio_merge_allow:rq <- $x20
	mov	x19, x1
.Ltmp82:
	//DEBUG_VALUE: hisi_blk_lld_inline_crypto_bio_merge_allow:bio <- $x19
	//DEBUG_VALUE: hisi_blk_bio_merge_allow:bio <- $x19
	.loc	2 25 6 is_stmt 1        // /mnt/ssddisk/jslave/ci/workspace/chipset_WLZ_4g_release/opensource/component_code/vendor/huawei/extra/build/build_script/kirin_kernel_release/kernel/block/hisi-blk-core.c:25:6
	ldr	x9, [x8, #312]
.Ltmp83:
	.loc	2 25 6 is_stmt 0        // /mnt/ssddisk/jslave/ci/workspace/chipset_WLZ_4g_release/opensource/component_code/vendor/huawei/extra/build/build_script/kirin_kernel_release/kernel/block/hisi-blk-core.c:25:6
	cbz	x9, .LBB10_17
.Ltmp84:
// %bb.1:
	//DEBUG_VALUE: hisi_blk_bio_merge_allow:bio <- $x19
	//DEBUG_VALUE: hisi_blk_lld_inline_crypto_bio_merge_allow:bio <- $x19
	//DEBUG_VALUE: hisi_blk_bio_merge_allow:rq <- $x20
	//DEBUG_VALUE: hisi_blk_lld_inline_crypto_bio_merge_allow:rq <- $x20
	//DEBUG_VALUE: is_blk_queue_support_crypto:q <- $x8
	//DEBUG_VALUE: hisi_blk_get_lld:q <- $x8
	.loc	2 26 14 is_stmt 1       // /mnt/ssddisk/jslave/ci/workspace/chipset_WLZ_4g_release/opensource/component_code/vendor/huawei/extra/build/build_script/kirin_kernel_release/kernel/block/hisi-blk-core.c:26:14
	ldr	x9, [x8, #3296]
	.loc	2 26 11 is_stmt 0       // /mnt/ssddisk/jslave/ci/workspace/chipset_WLZ_4g_release/opensource/component_code/vendor/huawei/extra/build/build_script/kirin_kernel_release/kernel/block/hisi-blk-core.c:26:11
	add	x8, x8, #1800           // =1800
.Ltmp85:
	add	x10, x9, #16            // =16
.Ltmp86:
.LBB10_2:
	//DEBUG_VALUE: hisi_blk_bio_merge_allow:bio <- $x19
	//DEBUG_VALUE: hisi_blk_lld_inline_crypto_bio_merge_allow:bio <- $x19
	//DEBUG_VALUE: hisi_blk_bio_merge_allow:rq <- $x20
	//DEBUG_VALUE: hisi_blk_lld_inline_crypto_bio_merge_allow:rq <- $x20
	.loc	2 0 0                   // /mnt/ssddisk/jslave/ci/workspace/chipset_WLZ_4g_release/opensource/component_code/vendor/huawei/extra/build/build_script/kirin_kernel_release/kernel/block/hisi-blk-core.c:0:0
	cmp	x9, #0                  // =0
	csel	x8, x8, x10, eq
.Ltmp87:
	//DEBUG_VALUE: is_blk_queue_support_crypto:blk_lld <- $x8
	.loc	2 142 6 is_stmt 1       // /mnt/ssddisk/jslave/ci/workspace/chipset_WLZ_4g_release/opensource/component_code/vendor/huawei/extra/build/build_script/kirin_kernel_release/kernel/block/hisi-blk-core.c:142:6
	ldrb	w8, [x8, #24]
.Ltmp88:
	tbz	w8, #4, .LBB10_14
.Ltmp89:
// %bb.3:
	//DEBUG_VALUE: hisi_blk_bio_merge_allow:bio <- $x19
	//DEBUG_VALUE: hisi_blk_lld_inline_crypto_bio_merge_allow:bio <- $x19
	//DEBUG_VALUE: hisi_blk_bio_merge_allow:rq <- $x20
	//DEBUG_VALUE: hisi_blk_lld_inline_crypto_bio_merge_allow:rq <- $x20
	.loc	2 149 21                // /mnt/ssddisk/jslave/ci/workspace/chipset_WLZ_4g_release/opensource/component_code/vendor/huawei/extra/build/build_script/kirin_kernel_release/kernel/block/hisi-blk-core.c:149:21
	ldr	x8, [x19, #256]
.Ltmp90:
	.loc	2 0 0 is_stmt 0         // /mnt/ssddisk/jslave/ci/workspace/chipset_WLZ_4g_release/opensource/component_code/vendor/huawei/extra/build/build_script/kirin_kernel_release/kernel/block/hisi-blk-core.c:0:0
	ldr	x9, [x20, #416]
.Ltmp91:
	.loc	2 149 28                // /mnt/ssddisk/jslave/ci/workspace/chipset_WLZ_4g_release/opensource/component_code/vendor/huawei/extra/build/build_script/kirin_kernel_release/kernel/block/hisi-blk-core.c:149:28
	cbz	x8, .LBB10_13
.Ltmp92:
// %bb.4:
	//DEBUG_VALUE: hisi_blk_bio_merge_allow:bio <- $x19
	//DEBUG_VALUE: hisi_blk_lld_inline_crypto_bio_merge_allow:bio <- $x19
	//DEBUG_VALUE: hisi_blk_bio_merge_allow:rq <- $x20
	//DEBUG_VALUE: hisi_blk_lld_inline_crypto_bio_merge_allow:rq <- $x20
	cbz	x9, .LBB10_13
.Ltmp93:
// %bb.5:
	//DEBUG_VALUE: hisi_blk_bio_merge_allow:bio <- $x19
	//DEBUG_VALUE: hisi_blk_lld_inline_crypto_bio_merge_allow:bio <- $x19
	//DEBUG_VALUE: hisi_blk_bio_merge_allow:rq <- $x20
	//DEBUG_VALUE: hisi_blk_lld_inline_crypto_bio_merge_allow:rq <- $x20
	.loc	2 160 20 is_stmt 1      // /mnt/ssddisk/jslave/ci/workspace/chipset_WLZ_4g_release/opensource/component_code/vendor/huawei/extra/build/build_script/kirin_kernel_release/kernel/block/hisi-blk-core.c:160:20
	ldr	w10, [x19, #264]
	.loc	2 160 47 is_stmt 0      // /mnt/ssddisk/jslave/ci/workspace/chipset_WLZ_4g_release/opensource/component_code/vendor/huawei/extra/build/build_script/kirin_kernel_release/kernel/block/hisi-blk-core.c:160:47
	ldr	w11, [x20, #424]
.Ltmp94:
	.loc	2 160 6                 // /mnt/ssddisk/jslave/ci/workspace/chipset_WLZ_4g_release/opensource/component_code/vendor/huawei/extra/build/build_script/kirin_kernel_release/kernel/block/hisi-blk-core.c:160:6
	cmp	w10, w11
	b.ne	.LBB10_12
.Ltmp95:
// %bb.6:
	//DEBUG_VALUE: hisi_blk_bio_merge_allow:bio <- $x19
	//DEBUG_VALUE: hisi_blk_lld_inline_crypto_bio_merge_allow:bio <- $x19
	//DEBUG_VALUE: hisi_blk_bio_merge_allow:rq <- $x20
	//DEBUG_VALUE: hisi_blk_lld_inline_crypto_bio_merge_allow:rq <- $x20
	.loc	2 163 6 is_stmt 1       // /mnt/ssddisk/jslave/ci/workspace/chipset_WLZ_4g_release/opensource/component_code/vendor/huawei/extra/build/build_script/kirin_kernel_release/kernel/block/hisi-blk-core.c:163:6
	cmp	w10, #64                // =64
	b.eq	.LBB10_8
.Ltmp96:
// %bb.7:
	//DEBUG_VALUE: hisi_blk_bio_merge_allow:bio <- $x19
	//DEBUG_VALUE: hisi_blk_lld_inline_crypto_bio_merge_allow:bio <- $x19
	//DEBUG_VALUE: hisi_blk_bio_merge_allow:rq <- $x20
	//DEBUG_VALUE: hisi_blk_lld_inline_crypto_bio_merge_allow:rq <- $x20
	.loc	2 164 3                 // /mnt/ssddisk/jslave/ci/workspace/chipset_WLZ_4g_release/opensource/component_code/vendor/huawei/extra/build/build_script/kirin_kernel_release/kernel/block/hisi-blk-core.c:164:3
	adrp	x0, .L.str.5
	adrp	x1, .L__func__.hisi_blk_lld_inline_crypto_bio_merge_allow
	add	x0, x0, :lo12:.L.str.5
	add	x1, x1, :lo12:.L__func__.hisi_blk_lld_inline_crypto_bio_merge_allow
	bl	printk
.Ltmp97:
	.loc	2 166 20                // /mnt/ssddisk/jslave/ci/workspace/chipset_WLZ_4g_release/opensource/component_code/vendor/huawei/extra/build/build_script/kirin_kernel_release/kernel/block/hisi-blk-core.c:166:20
	ldr	x8, [x19, #256]
	.loc	2 166 43 is_stmt 0      // /mnt/ssddisk/jslave/ci/workspace/chipset_WLZ_4g_release/opensource/component_code/vendor/huawei/extra/build/build_script/kirin_kernel_release/kernel/block/hisi-blk-core.c:166:43
	ldr	x9, [x20, #416]
.Ltmp98:
.LBB10_8:
	//DEBUG_VALUE: hisi_blk_bio_merge_allow:bio <- $x19
	//DEBUG_VALUE: hisi_blk_lld_inline_crypto_bio_merge_allow:bio <- $x19
	//DEBUG_VALUE: hisi_blk_bio_merge_allow:rq <- $x20
	//DEBUG_VALUE: hisi_blk_lld_inline_crypto_bio_merge_allow:rq <- $x20
	.loc	2 166 6                 // /mnt/ssddisk/jslave/ci/workspace/chipset_WLZ_4g_release/opensource/component_code/vendor/huawei/extra/build/build_script/kirin_kernel_release/kernel/block/hisi-blk-core.c:166:6
	cmp	x8, x9
	b.ne	.LBB10_12
.Ltmp99:
// %bb.9:
	//DEBUG_VALUE: hisi_blk_bio_merge_allow:bio <- $x19
	//DEBUG_VALUE: hisi_blk_lld_inline_crypto_bio_merge_allow:bio <- $x19
	//DEBUG_VALUE: hisi_blk_bio_merge_allow:rq <- $x20
	//DEBUG_VALUE: hisi_blk_lld_inline_crypto_bio_merge_allow:rq <- $x20
	.loc	2 167 26 is_stmt 1      // /mnt/ssddisk/jslave/ci/workspace/chipset_WLZ_4g_release/opensource/component_code/vendor/huawei/extra/build/build_script/kirin_kernel_release/kernel/block/hisi-blk-core.c:167:26
	ldr	x21, [x20, #128]
.Ltmp100:
	//DEBUG_VALUE: prev <- $x21
	.loc	2 170 9                 // /mnt/ssddisk/jslave/ci/workspace/chipset_WLZ_4g_release/opensource/component_code/vendor/huawei/extra/build/build_script/kirin_kernel_release/kernel/block/hisi-blk-core.c:170:9
	mov	x0, x20
	mov	x1, x19
	bl	blk_try_merge
.Ltmp101:
	//DEBUG_VALUE: ret <- $w0
	.loc	2 171 3                 // /mnt/ssddisk/jslave/ci/workspace/chipset_WLZ_4g_release/opensource/component_code/vendor/huawei/extra/build/build_script/kirin_kernel_release/kernel/block/hisi-blk-core.c:171:3
	cmp	w0, #1                  // =1
	b.eq	.LBB10_16
.Ltmp102:
// %bb.10:
	//DEBUG_VALUE: ret <- $w0
	//DEBUG_VALUE: prev <- $x21
	//DEBUG_VALUE: hisi_blk_bio_merge_allow:bio <- $x19
	//DEBUG_VALUE: hisi_blk_lld_inline_crypto_bio_merge_allow:bio <- $x19
	//DEBUG_VALUE: hisi_blk_bio_merge_allow:rq <- $x20
	//DEBUG_VALUE: hisi_blk_lld_inline_crypto_bio_merge_allow:rq <- $x20
	cmp	w0, #2                  // =2
	b.ne	.LBB10_12
.Ltmp103:
// %bb.11:
	//DEBUG_VALUE: ret <- $w0
	//DEBUG_VALUE: prev <- $x21
	//DEBUG_VALUE: hisi_blk_bio_merge_allow:bio <- $x19
	//DEBUG_VALUE: hisi_blk_lld_inline_crypto_bio_merge_allow:bio <- $x19
	//DEBUG_VALUE: hisi_blk_bio_merge_allow:rq <- $x20
	//DEBUG_VALUE: hisi_blk_lld_inline_crypto_bio_merge_allow:rq <- $x20
	.loc	2 173 23                // /mnt/ssddisk/jslave/ci/workspace/chipset_WLZ_4g_release/opensource/component_code/vendor/huawei/extra/build/build_script/kirin_kernel_release/kernel/block/hisi-blk-core.c:173:23
	ldr	x8, [x21, #272]
	.loc	2 173 37 is_stmt 0      // /mnt/ssddisk/jslave/ci/workspace/chipset_WLZ_4g_release/opensource/component_code/vendor/huawei/extra/build/build_script/kirin_kernel_release/kernel/block/hisi-blk-core.c:173:37
	ldrh	w9, [x21, #352]
	.loc	2 174 19 is_stmt 1      // /mnt/ssddisk/jslave/ci/workspace/chipset_WLZ_4g_release/opensource/component_code/vendor/huawei/extra/build/build_script/kirin_kernel_release/kernel/block/hisi-blk-core.c:174:19
	ldr	x10, [x19, #272]
	.loc	2 173 29                // /mnt/ssddisk/jslave/ci/workspace/chipset_WLZ_4g_release/opensource/component_code/vendor/huawei/extra/build/build_script/kirin_kernel_release/kernel/block/hisi-blk-core.c:173:29
	add	x8, x8, x9
.Ltmp104:
	.loc	2 173 8 is_stmt 0       // /mnt/ssddisk/jslave/ci/workspace/chipset_WLZ_4g_release/opensource/component_code/vendor/huawei/extra/build/build_script/kirin_kernel_release/kernel/block/hisi-blk-core.c:173:8
	cmp	x8, x10
	b.eq	.LBB10_14
.Ltmp105:
.LBB10_12:
	//DEBUG_VALUE: hisi_blk_bio_merge_allow:bio <- $x19
	//DEBUG_VALUE: hisi_blk_lld_inline_crypto_bio_merge_allow:bio <- $x19
	//DEBUG_VALUE: hisi_blk_bio_merge_allow:rq <- $x20
	//DEBUG_VALUE: hisi_blk_lld_inline_crypto_bio_merge_allow:rq <- $x20
	.loc	2 0 8                   // /mnt/ssddisk/jslave/ci/workspace/chipset_WLZ_4g_release/opensource/component_code/vendor/huawei/extra/build/build_script/kirin_kernel_release/kernel/block/hisi-blk-core.c:0:8
	mov	w0, wzr
	b	.LBB10_15
.Ltmp106:
.LBB10_13:
	//DEBUG_VALUE: hisi_blk_bio_merge_allow:bio <- $x19
	//DEBUG_VALUE: hisi_blk_lld_inline_crypto_bio_merge_allow:bio <- $x19
	//DEBUG_VALUE: hisi_blk_bio_merge_allow:rq <- $x20
	//DEBUG_VALUE: hisi_blk_lld_inline_crypto_bio_merge_allow:rq <- $x20
	.loc	2 149 7 is_stmt 1       // /mnt/ssddisk/jslave/ci/workspace/chipset_WLZ_4g_release/opensource/component_code/vendor/huawei/extra/build/build_script/kirin_kernel_release/kernel/block/hisi-blk-core.c:149:7
	orr	x8, x8, x9
.Ltmp107:
	.loc	2 359 2                 // /mnt/ssddisk/jslave/ci/workspace/chipset_WLZ_4g_release/opensource/component_code/vendor/huawei/extra/build/build_script/kirin_kernel_release/kernel/block/hisi-blk-core.c:359:2
	cbnz	x8, .LBB10_12
.Ltmp108:
.LBB10_14:
	//DEBUG_VALUE: hisi_blk_bio_merge_allow:bio <- $x19
	//DEBUG_VALUE: hisi_blk_lld_inline_crypto_bio_merge_allow:bio <- $x19
	//DEBUG_VALUE: hisi_blk_bio_merge_allow:rq <- $x20
	//DEBUG_VALUE: hisi_blk_lld_inline_crypto_bio_merge_allow:rq <- $x20
	.loc	2 0 2 is_stmt 0         // /mnt/ssddisk/jslave/ci/workspace/chipset_WLZ_4g_release/opensource/component_code/vendor/huawei/extra/build/build_script/kirin_kernel_release/kernel/block/hisi-blk-core.c:0:2
	orr	w0, wzr, #0x1
.Ltmp109:
.LBB10_15:
	//DEBUG_VALUE: hisi_blk_bio_merge_allow:bio <- $x19
	//DEBUG_VALUE: hisi_blk_bio_merge_allow:rq <- $x20
	.loc	2 360 1 is_stmt 1       // /mnt/ssddisk/jslave/ci/workspace/chipset_WLZ_4g_release/opensource/component_code/vendor/huawei/extra/build/build_script/kirin_kernel_release/kernel/block/hisi-blk-core.c:360:1
	ldp	x29, x30, [sp, #32]     // 16-byte Folded Reload
	ldp	x20, x19, [sp, #16]     // 16-byte Folded Reload
.Ltmp110:
	ldr	x21, [sp], #48          // 8-byte Folded Reload
	ret
.LBB10_16:
.Ltmp111:
	//DEBUG_VALUE: ret <- $w0
	//DEBUG_VALUE: prev <- $x21
	//DEBUG_VALUE: hisi_blk_bio_merge_allow:bio <- $x19
	//DEBUG_VALUE: hisi_blk_lld_inline_crypto_bio_merge_allow:bio <- $x19
	//DEBUG_VALUE: hisi_blk_bio_merge_allow:rq <- $x20
	//DEBUG_VALUE: hisi_blk_lld_inline_crypto_bio_merge_allow:rq <- $x20
	.loc	2 179 9                 // /mnt/ssddisk/jslave/ci/workspace/chipset_WLZ_4g_release/opensource/component_code/vendor/huawei/extra/build/build_script/kirin_kernel_release/kernel/block/hisi-blk-core.c:179:9
	ldr	x8, [x20, #120]
	.loc	2 178 22                // /mnt/ssddisk/jslave/ci/workspace/chipset_WLZ_4g_release/opensource/component_code/vendor/huawei/extra/build/build_script/kirin_kernel_release/kernel/block/hisi-blk-core.c:178:22
	ldr	x9, [x19, #272]
	.loc	2 178 35 is_stmt 0      // /mnt/ssddisk/jslave/ci/workspace/chipset_WLZ_4g_release/opensource/component_code/vendor/huawei/extra/build/build_script/kirin_kernel_release/kernel/block/hisi-blk-core.c:178:35
	ldrh	w10, [x19, #352]
	.loc	2 179 23 is_stmt 1      // /mnt/ssddisk/jslave/ci/workspace/chipset_WLZ_4g_release/opensource/component_code/vendor/huawei/extra/build/build_script/kirin_kernel_release/kernel/block/hisi-blk-core.c:179:23
	ldr	x8, [x8, #272]
	.loc	2 178 28                // /mnt/ssddisk/jslave/ci/workspace/chipset_WLZ_4g_release/opensource/component_code/vendor/huawei/extra/build/build_script/kirin_kernel_release/kernel/block/hisi-blk-core.c:178:28
	add	x9, x9, x10
.Ltmp112:
	.loc	2 178 8 is_stmt 0       // /mnt/ssddisk/jslave/ci/workspace/chipset_WLZ_4g_release/opensource/component_code/vendor/huawei/extra/build/build_script/kirin_kernel_release/kernel/block/hisi-blk-core.c:178:8
	cmp	x9, x8
	b.eq	.LBB10_14
	b	.LBB10_12
.Ltmp113:
.LBB10_17:
	//DEBUG_VALUE: hisi_blk_bio_merge_allow:bio <- $x19
	//DEBUG_VALUE: hisi_blk_lld_inline_crypto_bio_merge_allow:bio <- $x19
	//DEBUG_VALUE: hisi_blk_bio_merge_allow:rq <- $x20
	//DEBUG_VALUE: hisi_blk_lld_inline_crypto_bio_merge_allow:rq <- $x20
	//DEBUG_VALUE: is_blk_queue_support_crypto:q <- $x8
	//DEBUG_VALUE: hisi_blk_get_lld:q <- $x8
	.loc	2 28 14 is_stmt 1       // /mnt/ssddisk/jslave/ci/workspace/chipset_WLZ_4g_release/opensource/component_code/vendor/huawei/extra/build/build_script/kirin_kernel_release/kernel/block/hisi-blk-core.c:28:14
	ldr	x9, [x8, #720]
	.loc	2 28 11 is_stmt 0       // /mnt/ssddisk/jslave/ci/workspace/chipset_WLZ_4g_release/opensource/component_code/vendor/huawei/extra/build/build_script/kirin_kernel_release/kernel/block/hisi-blk-core.c:28:11
	add	x8, x8, #1800           // =1800
.Ltmp114:
	add	x10, x9, #120           // =120
	b	.LBB10_2
.Ltmp115:
.Lfunc_end10:
	.size	hisi_blk_bio_merge_allow, .Lfunc_end10-hisi_blk_bio_merge_allow
	.cfi_endproc
                                        // -- End function
	.section	.text.hisi_blk_bio_merge_done,"ax",@progbits
	.hidden	hisi_blk_bio_merge_done // -- Begin function hisi_blk_bio_merge_done
	.globl	hisi_blk_bio_merge_done
	.p2align	2
	.type	hisi_blk_bio_merge_done,@function
hisi_blk_bio_merge_done:                // @hisi_blk_bio_merge_done
.Lfunc_begin11:
	.loc	2 367 0 is_stmt 1       // /mnt/ssddisk/jslave/ci/workspace/chipset_WLZ_4g_release/opensource/component_code/vendor/huawei/extra/build/build_script/kirin_kernel_release/kernel/block/hisi-blk-core.c:367:0
	.cfi_startproc
// %bb.0:
	stp	x29, x30, [sp, #-16]!   // 16-byte Folded Spill
	mov	x29, sp
	.cfi_def_cfa w29, 16
	.cfi_offset w30, -8
	.cfi_offset w29, -16
	//DEBUG_VALUE: hisi_blk_bio_merge_done:q <- $x0
	//DEBUG_VALUE: hisi_blk_bio_merge_done:req <- $x1
	//DEBUG_VALUE: hisi_blk_bio_merge_done:next <- $x2
	mov	x0, x1
.Ltmp116:
	//DEBUG_VALUE: hisi_blk_bio_merge_done:next <- $x2
	//DEBUG_VALUE: hisi_blk_bio_merge_done:req <- $x0
	//DEBUG_VALUE: hisi_blk_bio_merge_done:req <- $x0
	.loc	2 368 2 prologue_end    // /mnt/ssddisk/jslave/ci/workspace/chipset_WLZ_4g_release/opensource/component_code/vendor/huawei/extra/build/build_script/kirin_kernel_release/kernel/block/hisi-blk-core.c:368:2
	mov	x1, x2
.Ltmp117:
	//DEBUG_VALUE: hisi_blk_bio_merge_done:next <- $x1
	bl	hisi_blk_latency_for_merge
.Ltmp118:
	.loc	2 369 1                 // /mnt/ssddisk/jslave/ci/workspace/chipset_WLZ_4g_release/opensource/component_code/vendor/huawei/extra/build/build_script/kirin_kernel_release/kernel/block/hisi-blk-core.c:369:1
	ldp	x29, x30, [sp], #16     // 16-byte Folded Reload
	ret
.Ltmp119:
.Lfunc_end11:
	.size	hisi_blk_bio_merge_done, .Lfunc_end11-hisi_blk_bio_merge_done
	.cfi_endproc
                                        // -- End function
	.section	.text.hisi_blk_account_io_completion,"ax",@progbits
	.hidden	hisi_blk_account_io_completion // -- Begin function hisi_blk_account_io_completion
	.globl	hisi_blk_account_io_completion
	.p2align	2
	.type	hisi_blk_account_io_completion,@function
hisi_blk_account_io_completion:         // @hisi_blk_account_io_completion
.Lfunc_begin12:
	.loc	2 375 0                 // /mnt/ssddisk/jslave/ci/workspace/chipset_WLZ_4g_release/opensource/component_code/vendor/huawei/extra/build/build_script/kirin_kernel_release/kernel/block/hisi-blk-core.c:375:0
	.cfi_startproc
// %bb.0:
	//DEBUG_VALUE: hisi_blk_account_io_completion:req <- $x0
	//DEBUG_VALUE: hisi_blk_account_io_completion:req <- $x0
	//DEBUG_VALUE: hisi_blk_account_io_completion:bytes <- $w1
	//DEBUG_VALUE: hisi_blk_account_io_completion:bytes <- $w1
	.loc	2 378 6 prologue_end    // /mnt/ssddisk/jslave/ci/workspace/chipset_WLZ_4g_release/opensource/component_code/vendor/huawei/extra/build/build_script/kirin_kernel_release/kernel/block/hisi-blk-core.c:378:6
	cbz	x0, .LBB12_8
.Ltmp120:
// %bb.1:
	//DEBUG_VALUE: hisi_blk_account_io_completion:bytes <- $w1
	//DEBUG_VALUE: hisi_blk_account_io_completion:req <- $x0
	.loc	2 381 30                // /mnt/ssddisk/jslave/ci/workspace/chipset_WLZ_4g_release/opensource/component_code/vendor/huawei/extra/build/build_script/kirin_kernel_release/kernel/block/hisi-blk-core.c:381:30
	ldr	x8, [x0, #64]
.Ltmp121:
	//DEBUG_VALUE: hisi_blk_get_lld:q <- $x8
	.loc	2 25 6                  // /mnt/ssddisk/jslave/ci/workspace/chipset_WLZ_4g_release/opensource/component_code/vendor/huawei/extra/build/build_script/kirin_kernel_release/kernel/block/hisi-blk-core.c:25:6
	ldr	x9, [x8, #312]
.Ltmp122:
	.loc	2 25 6 is_stmt 0        // /mnt/ssddisk/jslave/ci/workspace/chipset_WLZ_4g_release/opensource/component_code/vendor/huawei/extra/build/build_script/kirin_kernel_release/kernel/block/hisi-blk-core.c:25:6
	cbz	x9, .LBB12_11
.Ltmp123:
// %bb.2:
	//DEBUG_VALUE: hisi_blk_get_lld:q <- $x8
	//DEBUG_VALUE: hisi_blk_account_io_completion:bytes <- $w1
	//DEBUG_VALUE: hisi_blk_account_io_completion:req <- $x0
	.loc	2 26 14 is_stmt 1       // /mnt/ssddisk/jslave/ci/workspace/chipset_WLZ_4g_release/opensource/component_code/vendor/huawei/extra/build/build_script/kirin_kernel_release/kernel/block/hisi-blk-core.c:26:14
	ldr	x9, [x8, #3296]
	.loc	2 26 11 is_stmt 0       // /mnt/ssddisk/jslave/ci/workspace/chipset_WLZ_4g_release/opensource/component_code/vendor/huawei/extra/build/build_script/kirin_kernel_release/kernel/block/hisi-blk-core.c:26:11
	add	x8, x8, #1800           // =1800
.Ltmp124:
	add	x10, x9, #16            // =16
.Ltmp125:
.LBB12_3:
	//DEBUG_VALUE: hisi_blk_account_io_completion:bytes <- $w1
	//DEBUG_VALUE: hisi_blk_account_io_completion:req <- $x0
	.loc	2 0 0                   // /mnt/ssddisk/jslave/ci/workspace/chipset_WLZ_4g_release/opensource/component_code/vendor/huawei/extra/build/build_script/kirin_kernel_release/kernel/block/hisi-blk-core.c:0:0
	cmp	x9, #0                  // =0
	csel	x8, x8, x10, eq
.Ltmp126:
	//DEBUG_VALUE: hisi_blk_account_io_completion:lld <- $x8
	.loc	2 382 6 is_stmt 1       // /mnt/ssddisk/jslave/ci/workspace/chipset_WLZ_4g_release/opensource/component_code/vendor/huawei/extra/build/build_script/kirin_kernel_release/kernel/block/hisi-blk-core.c:382:6
	cbz	x8, .LBB12_9
.Ltmp127:
// %bb.4:
	//DEBUG_VALUE: hisi_blk_account_io_completion:lld <- $x8
	//DEBUG_VALUE: hisi_blk_account_io_completion:bytes <- $w1
	//DEBUG_VALUE: hisi_blk_account_io_completion:req <- $x0
	.loc	2 383 7                 // /mnt/ssddisk/jslave/ci/workspace/chipset_WLZ_4g_release/opensource/component_code/vendor/huawei/extra/build/build_script/kirin_kernel_release/kernel/block/hisi-blk-core.c:383:7
	ldrb	w9, [x0, #84]
.Ltmp128:
	.loc	2 383 7 is_stmt 0       // /mnt/ssddisk/jslave/ci/workspace/chipset_WLZ_4g_release/opensource/component_code/vendor/huawei/extra/build/build_script/kirin_kernel_release/kernel/block/hisi-blk-core.c:383:7
	cmp	w9, #3                  // =3
	b.ne	.LBB12_6
.Ltmp129:
// %bb.5:
	//DEBUG_VALUE: hisi_blk_account_io_completion:lld <- $x8
	//DEBUG_VALUE: hisi_blk_account_io_completion:bytes <- $w1
	//DEBUG_VALUE: hisi_blk_account_io_completion:req <- $x0
	.loc	2 384 21 is_stmt 1      // /mnt/ssddisk/jslave/ci/workspace/chipset_WLZ_4g_release/opensource/component_code/vendor/huawei/extra/build/build_script/kirin_kernel_release/kernel/block/hisi-blk-core.c:384:21
	ldr	x9, [x8, #904]
	add	x9, x9, w1, uxtw
	str	x9, [x8, #904]
.Ltmp130:
	.loc	2 386 7                 // /mnt/ssddisk/jslave/ci/workspace/chipset_WLZ_4g_release/opensource/component_code/vendor/huawei/extra/build/build_script/kirin_kernel_release/kernel/block/hisi-blk-core.c:386:7
	ldrb	w9, [x0, #84]
.Ltmp131:
.LBB12_6:
	//DEBUG_VALUE: hisi_blk_account_io_completion:lld <- $x8
	//DEBUG_VALUE: hisi_blk_account_io_completion:bytes <- $w1
	//DEBUG_VALUE: hisi_blk_account_io_completion:req <- $x0
	.loc	2 386 7 is_stmt 0       // /mnt/ssddisk/jslave/ci/workspace/chipset_WLZ_4g_release/opensource/component_code/vendor/huawei/extra/build/build_script/kirin_kernel_release/kernel/block/hisi-blk-core.c:386:7
	cmp	w9, #1                  // =1
	b.ne	.LBB12_10
.Ltmp132:
// %bb.7:
	//DEBUG_VALUE: hisi_blk_account_io_completion:lld <- $x8
	//DEBUG_VALUE: hisi_blk_account_io_completion:bytes <- $w1
	//DEBUG_VALUE: hisi_blk_account_io_completion:req <- $x0
	.loc	2 387 19 is_stmt 1      // /mnt/ssddisk/jslave/ci/workspace/chipset_WLZ_4g_release/opensource/component_code/vendor/huawei/extra/build/build_script/kirin_kernel_release/kernel/block/hisi-blk-core.c:387:19
	ldr	x9, [x8, #896]
.Ltmp133:
	.loc	2 0 0 is_stmt 0         // /mnt/ssddisk/jslave/ci/workspace/chipset_WLZ_4g_release/opensource/component_code/vendor/huawei/extra/build/build_script/kirin_kernel_release/kernel/block/hisi-blk-core.c:0:0
	mov	w0, wzr
.Ltmp134:
	.loc	2 387 19                // /mnt/ssddisk/jslave/ci/workspace/chipset_WLZ_4g_release/opensource/component_code/vendor/huawei/extra/build/build_script/kirin_kernel_release/kernel/block/hisi-blk-core.c:387:19
	add	x9, x9, w1, uxtw
	str	x9, [x8, #896]
.Ltmp135:
	.loc	2 391 1 is_stmt 1       // /mnt/ssddisk/jslave/ci/workspace/chipset_WLZ_4g_release/opensource/component_code/vendor/huawei/extra/build/build_script/kirin_kernel_release/kernel/block/hisi-blk-core.c:391:1
	ret
.Ltmp136:
.LBB12_8:
	//DEBUG_VALUE: hisi_blk_account_io_completion:bytes <- $w1
	//DEBUG_VALUE: hisi_blk_account_io_completion:req <- $x0
	.loc	2 0 1 is_stmt 0         // /mnt/ssddisk/jslave/ci/workspace/chipset_WLZ_4g_release/opensource/component_code/vendor/huawei/extra/build/build_script/kirin_kernel_release/kernel/block/hisi-blk-core.c:0:1
	mov	w0, #-1
.Ltmp137:
	.loc	2 391 1                 // /mnt/ssddisk/jslave/ci/workspace/chipset_WLZ_4g_release/opensource/component_code/vendor/huawei/extra/build/build_script/kirin_kernel_release/kernel/block/hisi-blk-core.c:391:1
	ret
.LBB12_9:
.Ltmp138:
	//DEBUG_VALUE: hisi_blk_account_io_completion:lld <- $x8
	//DEBUG_VALUE: hisi_blk_account_io_completion:bytes <- $w1
	//DEBUG_VALUE: hisi_blk_account_io_completion:req <- $x0
	.loc	2 0 0                   // /mnt/ssddisk/jslave/ci/workspace/chipset_WLZ_4g_release/opensource/component_code/vendor/huawei/extra/build/build_script/kirin_kernel_release/kernel/block/hisi-blk-core.c:0:0
	mov	w0, wzr
.Ltmp139:
	.loc	2 391 1                 // /mnt/ssddisk/jslave/ci/workspace/chipset_WLZ_4g_release/opensource/component_code/vendor/huawei/extra/build/build_script/kirin_kernel_release/kernel/block/hisi-blk-core.c:391:1
	ret
.Ltmp140:
.LBB12_10:
	//DEBUG_VALUE: hisi_blk_account_io_completion:lld <- $x8
	//DEBUG_VALUE: hisi_blk_account_io_completion:bytes <- $w1
	//DEBUG_VALUE: hisi_blk_account_io_completion:req <- $x0
	.loc	2 0 0                   // /mnt/ssddisk/jslave/ci/workspace/chipset_WLZ_4g_release/opensource/component_code/vendor/huawei/extra/build/build_script/kirin_kernel_release/kernel/block/hisi-blk-core.c:0:0
	mov	w0, wzr
.Ltmp141:
	.loc	2 391 1                 // /mnt/ssddisk/jslave/ci/workspace/chipset_WLZ_4g_release/opensource/component_code/vendor/huawei/extra/build/build_script/kirin_kernel_release/kernel/block/hisi-blk-core.c:391:1
	ret
.Ltmp142:
.LBB12_11:
	//DEBUG_VALUE: hisi_blk_get_lld:q <- $x8
	//DEBUG_VALUE: hisi_blk_account_io_completion:bytes <- $w1
	//DEBUG_VALUE: hisi_blk_account_io_completion:req <- $x0
	.loc	2 28 14 is_stmt 1       // /mnt/ssddisk/jslave/ci/workspace/chipset_WLZ_4g_release/opensource/component_code/vendor/huawei/extra/build/build_script/kirin_kernel_release/kernel/block/hisi-blk-core.c:28:14
	ldr	x9, [x8, #720]
	.loc	2 28 11 is_stmt 0       // /mnt/ssddisk/jslave/ci/workspace/chipset_WLZ_4g_release/opensource/component_code/vendor/huawei/extra/build/build_script/kirin_kernel_release/kernel/block/hisi-blk-core.c:28:11
	add	x8, x8, #1800           // =1800
.Ltmp143:
	add	x10, x9, #120           // =120
	b	.LBB12_3
.Ltmp144:
.Lfunc_end12:
	.size	hisi_blk_account_io_completion, .Lfunc_end12-hisi_blk_account_io_completion
	.cfi_endproc
                                        // -- End function
	.section	.text.hisi_blk_generic_make_request_check,"ax",@progbits
	.hidden	hisi_blk_generic_make_request_check // -- Begin function hisi_blk_generic_make_request_check
	.globl	hisi_blk_generic_make_request_check
	.p2align	2
	.type	hisi_blk_generic_make_request_check,@function
hisi_blk_generic_make_request_check:    // @hisi_blk_generic_make_request_check
.Lfunc_begin13:
	.loc	2 396 0 is_stmt 1       // /mnt/ssddisk/jslave/ci/workspace/chipset_WLZ_4g_release/opensource/component_code/vendor/huawei/extra/build/build_script/kirin_kernel_release/kernel/block/hisi-blk-core.c:396:0
	.cfi_startproc
// %bb.0:
	stp	x20, x19, [sp, #-32]!   // 16-byte Folded Spill
	stp	x29, x30, [sp, #16]     // 16-byte Folded Spill
	add	x29, sp, #16            // =16
	.cfi_def_cfa w29, 16
	.cfi_offset w30, -8
	.cfi_offset w29, -16
	.cfi_offset w19, -24
	.cfi_offset w20, -32
	//DEBUG_VALUE: hisi_blk_generic_make_request_check:bio <- $x0
.Ltmp145:
	.loc	2 397 33 prologue_end   // /mnt/ssddisk/jslave/ci/workspace/chipset_WLZ_4g_release/opensource/component_code/vendor/huawei/extra/build/build_script/kirin_kernel_release/kernel/block/hisi-blk-core.c:397:33
	ldr	x8, [x0, #8]
	mov	x19, x0
.Ltmp146:
	//DEBUG_VALUE: hisi_blk_generic_make_request_check:bio <- $x19
	.loc	2 398 2                 // /mnt/ssddisk/jslave/ci/workspace/chipset_WLZ_4g_release/opensource/component_code/vendor/huawei/extra/build/build_script/kirin_kernel_release/kernel/block/hisi-blk-core.c:398:2
	mov	x1, x19
	.loc	2 397 42                // /mnt/ssddisk/jslave/ci/workspace/chipset_WLZ_4g_release/opensource/component_code/vendor/huawei/extra/build/build_script/kirin_kernel_release/kernel/block/hisi-blk-core.c:397:42
	ldr	x20, [x8, #1112]
.Ltmp147:
	//DEBUG_VALUE: hisi_blk_generic_make_request_check:q <- $x20
	.loc	2 398 2                 // /mnt/ssddisk/jslave/ci/workspace/chipset_WLZ_4g_release/opensource/component_code/vendor/huawei/extra/build/build_script/kirin_kernel_release/kernel/block/hisi-blk-core.c:398:2
	mov	x0, x20
	bl	hisi_blk_busy_idle_check_bio
	.loc	2 399 2                 // /mnt/ssddisk/jslave/ci/workspace/chipset_WLZ_4g_release/opensource/component_code/vendor/huawei/extra/build/build_script/kirin_kernel_release/kernel/block/hisi-blk-core.c:399:2
	mov	x0, x19
	mov	w1, wzr
	bl	hisi_blk_latency_bio_check
.Ltmp148:
	.loc	2 400 6                 // /mnt/ssddisk/jslave/ci/workspace/chipset_WLZ_4g_release/opensource/component_code/vendor/huawei/extra/build/build_script/kirin_kernel_release/kernel/block/hisi-blk-core.c:400:6
	mov	x0, x20
	mov	x1, x19
	bl	hisi_blk_flush_sync_dispatch
	mov	w8, w0
.Ltmp149:
	.loc	2 0 0 is_stmt 0         // /mnt/ssddisk/jslave/ci/workspace/chipset_WLZ_4g_release/opensource/component_code/vendor/huawei/extra/build/build_script/kirin_kernel_release/kernel/block/hisi-blk-core.c:0:0
	mov	w0, wzr
	.loc	2 400 6                 // /mnt/ssddisk/jslave/ci/workspace/chipset_WLZ_4g_release/opensource/component_code/vendor/huawei/extra/build/build_script/kirin_kernel_release/kernel/block/hisi-blk-core.c:400:6
	tbz	w8, #0, .LBB13_2
.Ltmp150:
.LBB13_1:
	//DEBUG_VALUE: hisi_blk_generic_make_request_check:q <- $x20
	//DEBUG_VALUE: hisi_blk_generic_make_request_check:bio <- $x19
	.loc	2 406 1 is_stmt 1       // /mnt/ssddisk/jslave/ci/workspace/chipset_WLZ_4g_release/opensource/component_code/vendor/huawei/extra/build/build_script/kirin_kernel_release/kernel/block/hisi-blk-core.c:406:1
	ldp	x29, x30, [sp, #16]     // 16-byte Folded Reload
	ldp	x20, x19, [sp], #32     // 16-byte Folded Reload
.Ltmp151:
	ret
.LBB13_2:
.Ltmp152:
	//DEBUG_VALUE: hisi_blk_generic_make_request_check:q <- $x20
	//DEBUG_VALUE: hisi_blk_generic_make_request_check:bio <- $x19
	.loc	2 402 3                 // /mnt/ssddisk/jslave/ci/workspace/chipset_WLZ_4g_release/opensource/component_code/vendor/huawei/extra/build/build_script/kirin_kernel_release/kernel/block/hisi-blk-core.c:402:3
	mov	x0, x19
	.loc	2 401 18                // /mnt/ssddisk/jslave/ci/workspace/chipset_WLZ_4g_release/opensource/component_code/vendor/huawei/extra/build/build_script/kirin_kernel_release/kernel/block/hisi-blk-core.c:401:18
	strb	wzr, [x19, #26]
	.loc	2 402 3                 // /mnt/ssddisk/jslave/ci/workspace/chipset_WLZ_4g_release/opensource/component_code/vendor/huawei/extra/build/build_script/kirin_kernel_release/kernel/block/hisi-blk-core.c:402:3
	bl	bio_endio
	orr	w0, wzr, #0x1
	b	.LBB13_1
.Ltmp153:
.Lfunc_end13:
	.size	hisi_blk_generic_make_request_check, .Lfunc_end13-hisi_blk_generic_make_request_check
	.cfi_endproc
                                        // -- End function
	.section	.text.hisi_blk_generic_make_request,"ax",@progbits
	.hidden	hisi_blk_generic_make_request // -- Begin function hisi_blk_generic_make_request
	.globl	hisi_blk_generic_make_request
	.p2align	2
	.type	hisi_blk_generic_make_request,@function
hisi_blk_generic_make_request:          // @hisi_blk_generic_make_request
.Lfunc_begin14:
	.loc	2 412 0                 // /mnt/ssddisk/jslave/ci/workspace/chipset_WLZ_4g_release/opensource/component_code/vendor/huawei/extra/build/build_script/kirin_kernel_release/kernel/block/hisi-blk-core.c:412:0
	.cfi_startproc
// %bb.0:
	stp	x29, x30, [sp, #-16]!   // 16-byte Folded Spill
	mov	x29, sp
	.cfi_def_cfa w29, 16
	.cfi_offset w30, -8
	.cfi_offset w29, -16
	//DEBUG_VALUE: hisi_blk_generic_make_request:bio <- $x0
	//DEBUG_VALUE: hisi_blk_generic_make_request:bio <- $x0
.Ltmp154:
	.loc	2 413 2 prologue_end    // /mnt/ssddisk/jslave/ci/workspace/chipset_WLZ_4g_release/opensource/component_code/vendor/huawei/extra/build/build_script/kirin_kernel_release/kernel/block/hisi-blk-core.c:413:2
	orr	w1, wzr, #0x2
	//DEBUG_VALUE: hisi_blk_generic_make_request:bio <- $x0
	bl	hisi_blk_latency_bio_check
.Ltmp155:
	.loc	2 414 1                 // /mnt/ssddisk/jslave/ci/workspace/chipset_WLZ_4g_release/opensource/component_code/vendor/huawei/extra/build/build_script/kirin_kernel_release/kernel/block/hisi-blk-core.c:414:1
	ldp	x29, x30, [sp], #16     // 16-byte Folded Reload
	ret
.Ltmp156:
.Lfunc_end14:
	.size	hisi_blk_generic_make_request, .Lfunc_end14-hisi_blk_generic_make_request
	.cfi_endproc
                                        // -- End function
	.section	.text.hisi_blk_start_plug,"ax",@progbits
	.hidden	hisi_blk_start_plug     // -- Begin function hisi_blk_start_plug
	.globl	hisi_blk_start_plug
	.p2align	2
	.type	hisi_blk_start_plug,@function
hisi_blk_start_plug:                    // @hisi_blk_start_plug
.Lfunc_begin15:
	.loc	2 420 0                 // /mnt/ssddisk/jslave/ci/workspace/chipset_WLZ_4g_release/opensource/component_code/vendor/huawei/extra/build/build_script/kirin_kernel_release/kernel/block/hisi-blk-core.c:420:0
	.cfi_startproc
// %bb.0:
	//DEBUG_VALUE: hisi_blk_start_plug:plug <- $x0
	//DEBUG_VALUE: hisi_blk_start_plug:plug <- $x0
	.loc	2 421 24 prologue_end   // /mnt/ssddisk/jslave/ci/workspace/chipset_WLZ_4g_release/opensource/component_code/vendor/huawei/extra/build/build_script/kirin_kernel_release/kernel/block/hisi-blk-core.c:421:24
	add	x8, x0, #48             // =48
.Ltmp157:
	//DEBUG_VALUE: __write_once_size:p <- $x8
	//DEBUG_VALUE: __write_once_size:size <- 8
	//DEBUG_VALUE: __write_once_size:res <- undef
	//DEBUG_VALUE: INIT_LIST_HEAD:list <- $x8
	.file	137 "/mnt/ssddisk/jslave/ci/workspace/chipset_WLZ_4g_release/opensource/component_code/vendor/huawei/extra/build/build_script/kirin_kernel_release/kernel/include/linux/compiler.h"
	.loc	137 213 31              // /mnt/ssddisk/jslave/ci/workspace/chipset_WLZ_4g_release/opensource/component_code/vendor/huawei/extra/build/build_script/kirin_kernel_release/kernel/include/linux/compiler.h:213:31
	str	x8, [x0, #48]
.Ltmp158:
	.file	138 "/mnt/ssddisk/jslave/ci/workspace/chipset_WLZ_4g_release/opensource/component_code/vendor/huawei/extra/build/build_script/kirin_kernel_release/kernel/include/linux/list.h"
	.loc	138 29 13               // /mnt/ssddisk/jslave/ci/workspace/chipset_WLZ_4g_release/opensource/component_code/vendor/huawei/extra/build/build_script/kirin_kernel_release/kernel/include/linux/list.h:29:13
	stp	x8, xzr, [x0, #56]
.Ltmp159:
	.loc	2 423 1                 // /mnt/ssddisk/jslave/ci/workspace/chipset_WLZ_4g_release/opensource/component_code/vendor/huawei/extra/build/build_script/kirin_kernel_release/kernel/block/hisi-blk-core.c:423:1
	ret
.Ltmp160:
.Lfunc_end15:
	.size	hisi_blk_start_plug, .Lfunc_end15-hisi_blk_start_plug
	.cfi_endproc
                                        // -- End function
	.section	.text.hisi_blk_flush_plug_list,"ax",@progbits
	.hidden	hisi_blk_flush_plug_list // -- Begin function hisi_blk_flush_plug_list
	.globl	hisi_blk_flush_plug_list
	.p2align	2
	.type	hisi_blk_flush_plug_list,@function
hisi_blk_flush_plug_list:               // @hisi_blk_flush_plug_list
.Lfunc_begin16:
	.loc	2 429 0                 // /mnt/ssddisk/jslave/ci/workspace/chipset_WLZ_4g_release/opensource/component_code/vendor/huawei/extra/build/build_script/kirin_kernel_release/kernel/block/hisi-blk-core.c:429:0
	.cfi_startproc
// %bb.0:
	//DEBUG_VALUE: hisi_blk_flush_plug_list:plug <- $x0
	//DEBUG_VALUE: hisi_blk_flush_plug_list:plug <- $x0
	//DEBUG_VALUE: hisi_blk_flush_plug_list:from_schedule <- $w1
	//DEBUG_VALUE: hisi_blk_flush_plug_list:from_schedule <- undef
	//DEBUG_VALUE: __read_once_size:res <- undef
	//DEBUG_VALUE: __read_once_size:size <- 8
	//DEBUG_VALUE: list_empty:head <- undef
	//DEBUG_VALUE: __read_once_size:p <- undef
	.loc	137 186 2 prologue_end  // /mnt/ssddisk/jslave/ci/workspace/chipset_WLZ_4g_release/opensource/component_code/vendor/huawei/extra/build/build_script/kirin_kernel_release/kernel/include/linux/compiler.h:186:2
	mov	x8, x0
	ldr	x9, [x8, #48]!
.Ltmp161:
	.loc	2 430 6                 // /mnt/ssddisk/jslave/ci/workspace/chipset_WLZ_4g_release/opensource/component_code/vendor/huawei/extra/build/build_script/kirin_kernel_release/kernel/block/hisi-blk-core.c:430:6
	cmp	x8, x9
.Ltmp162:
	//DEBUG_VALUE: hisi_blk_flush_plug_list:from_schedule <- $w1
	b.eq	.LBB16_3
.Ltmp163:
// %bb.1:
	//DEBUG_VALUE: hisi_blk_flush_plug_list:from_schedule <- $w1
	//DEBUG_VALUE: hisi_blk_flush_plug_list:plug <- $x0
	ldr	x8, [x0, #64]
.Ltmp164:
	.loc	2 430 6 is_stmt 0       // /mnt/ssddisk/jslave/ci/workspace/chipset_WLZ_4g_release/opensource/component_code/vendor/huawei/extra/build/build_script/kirin_kernel_release/kernel/block/hisi-blk-core.c:430:6
	cbz	x8, .LBB16_3
.Ltmp165:
// %bb.2:
	//DEBUG_VALUE: hisi_blk_flush_plug_list:from_schedule <- $w1
	//DEBUG_VALUE: hisi_blk_flush_plug_list:plug <- $x0
	stp	x29, x30, [sp, #-16]!   // 16-byte Folded Spill
	mov	x29, sp
	.cfi_def_cfa w29, 16
	.cfi_offset w30, -8
	.cfi_offset w29, -16
.Ltmp166:
	.loc	2 432 3 is_stmt 1       // /mnt/ssddisk/jslave/ci/workspace/chipset_WLZ_4g_release/opensource/component_code/vendor/huawei/extra/build/build_script/kirin_kernel_release/kernel/block/hisi-blk-core.c:432:3
	and	w1, w1, #0x1
.Ltmp167:
	blr	x8
.Ltmp168:
	.loc	2 0 3 is_stmt 0         // /mnt/ssddisk/jslave/ci/workspace/chipset_WLZ_4g_release/opensource/component_code/vendor/huawei/extra/build/build_script/kirin_kernel_release/kernel/block/hisi-blk-core.c:0:3
	ldp	x29, x30, [sp], #16     // 16-byte Folded Reload
.Ltmp169:
.LBB16_3:
	.loc	2 433 1 is_stmt 1       // /mnt/ssddisk/jslave/ci/workspace/chipset_WLZ_4g_release/opensource/component_code/vendor/huawei/extra/build/build_script/kirin_kernel_release/kernel/block/hisi-blk-core.c:433:1
	ret
.Ltmp170:
.Lfunc_end16:
	.size	hisi_blk_flush_plug_list, .Lfunc_end16-hisi_blk_flush_plug_list
	.cfi_endproc
                                        // -- End function
	.section	.text.hisi_blk_bio_endio,"ax",@progbits
	.hidden	hisi_blk_bio_endio      // -- Begin function hisi_blk_bio_endio
	.globl	hisi_blk_bio_endio
	.p2align	2
	.type	hisi_blk_bio_endio,@function
hisi_blk_bio_endio:                     // @hisi_blk_bio_endio
.Lfunc_begin17:
	.loc	2 439 0                 // /mnt/ssddisk/jslave/ci/workspace/chipset_WLZ_4g_release/opensource/component_code/vendor/huawei/extra/build/build_script/kirin_kernel_release/kernel/block/hisi-blk-core.c:439:0
	.cfi_startproc
// %bb.0:
	str	x19, [sp, #-32]!        // 8-byte Folded Spill
	stp	x29, x30, [sp, #16]     // 16-byte Folded Spill
	add	x29, sp, #16            // =16
	.cfi_def_cfa w29, 16
	.cfi_offset w30, -8
	.cfi_offset w29, -16
	.cfi_offset w19, -32
	//DEBUG_VALUE: hisi_blk_bio_endio:bio <- $x0
	mov	x19, x0
.Ltmp171:
	//DEBUG_VALUE: hisi_blk_bio_endio:bio <- $x19
	.loc	2 440 2 prologue_end    // /mnt/ssddisk/jslave/ci/workspace/chipset_WLZ_4g_release/opensource/component_code/vendor/huawei/extra/build/build_script/kirin_kernel_release/kernel/block/hisi-blk-core.c:440:2
	bl	hisi_blk_busy_idle_check_bio_endio
	.loc	2 441 2                 // /mnt/ssddisk/jslave/ci/workspace/chipset_WLZ_4g_release/opensource/component_code/vendor/huawei/extra/build/build_script/kirin_kernel_release/kernel/block/hisi-blk-core.c:441:2
	orr	w1, wzr, #0x1
	mov	x0, x19
	bl	hisi_blk_latency_bio_check
	.loc	2 442 1                 // /mnt/ssddisk/jslave/ci/workspace/chipset_WLZ_4g_release/opensource/component_code/vendor/huawei/extra/build/build_script/kirin_kernel_release/kernel/block/hisi-blk-core.c:442:1
	ldp	x29, x30, [sp, #16]     // 16-byte Folded Reload
	ldr	x19, [sp], #32          // 8-byte Folded Reload
.Ltmp172:
	ret
.Ltmp173:
.Lfunc_end17:
	.size	hisi_blk_bio_endio, .Lfunc_end17-hisi_blk_bio_endio
	.cfi_endproc
                                        // -- End function
	.section	.text.hisi_blk_bio_free,"ax",@progbits
	.hidden	hisi_blk_bio_free       // -- Begin function hisi_blk_bio_free
	.globl	hisi_blk_bio_free
	.p2align	2
	.type	hisi_blk_bio_free,@function
hisi_blk_bio_free:                      // @hisi_blk_bio_free
.Lfunc_begin18:
	.loc	2 448 0                 // /mnt/ssddisk/jslave/ci/workspace/chipset_WLZ_4g_release/opensource/component_code/vendor/huawei/extra/build/build_script/kirin_kernel_release/kernel/block/hisi-blk-core.c:448:0
	.cfi_startproc
// %bb.0:
	//DEBUG_VALUE: hisi_blk_bio_free:bio <- $x0
	//DEBUG_VALUE: hisi_blk_bio_free:bio <- $x0
	.loc	2 449 6 prologue_end    // /mnt/ssddisk/jslave/ci/workspace/chipset_WLZ_4g_release/opensource/component_code/vendor/huawei/extra/build/build_script/kirin_kernel_release/kernel/block/hisi-blk-core.c:449:6
	ldrb	w8, [x0, #136]
.Ltmp174:
	.loc	2 449 6 is_stmt 0       // /mnt/ssddisk/jslave/ci/workspace/chipset_WLZ_4g_release/opensource/component_code/vendor/huawei/extra/build/build_script/kirin_kernel_release/kernel/block/hisi-blk-core.c:449:6
	tbnz	w8, #0, .LBB18_2
.Ltmp175:
// %bb.1:
	//DEBUG_VALUE: hisi_blk_bio_free:bio <- $x0
	.loc	2 458 1 is_stmt 1       // /mnt/ssddisk/jslave/ci/workspace/chipset_WLZ_4g_release/opensource/component_code/vendor/huawei/extra/build/build_script/kirin_kernel_release/kernel/block/hisi-blk-core.c:458:1
	ret
.Ltmp176:
.LBB18_2:
	//DEBUG_VALUE: hisi_blk_bio_free:bio <- $x0
	stp	x29, x30, [sp, #-16]!   // 16-byte Folded Spill
	mov	x29, sp
	.cfi_def_cfa w29, 16
	.cfi_offset w30, -8
	.cfi_offset w29, -16
.Ltmp177:
	.loc	2 455 3                 // /mnt/ssddisk/jslave/ci/workspace/chipset_WLZ_4g_release/opensource/component_code/vendor/huawei/extra/build/build_script/kirin_kernel_release/kernel/block/hisi-blk-core.c:455:3
	bl	hisi_blk_busy_idle_check_bio_endio
.Ltmp178:
	.loc	2 0 3 is_stmt 0         // /mnt/ssddisk/jslave/ci/workspace/chipset_WLZ_4g_release/opensource/component_code/vendor/huawei/extra/build/build_script/kirin_kernel_release/kernel/block/hisi-blk-core.c:0:3
	ldp	x29, x30, [sp], #16     // 16-byte Folded Reload
.Ltmp179:
	.loc	2 458 1 is_stmt 1       // /mnt/ssddisk/jslave/ci/workspace/chipset_WLZ_4g_release/opensource/component_code/vendor/huawei/extra/build/build_script/kirin_kernel_release/kernel/block/hisi-blk-core.c:458:1
	ret
.Ltmp180:
.Lfunc_end18:
	.size	hisi_blk_bio_free, .Lfunc_end18-hisi_blk_bio_free
	.cfi_endproc
                                        // -- End function
	.section	.text.hisi_blk_request_init_from_bio,"ax",@progbits
	.hidden	hisi_blk_request_init_from_bio // -- Begin function hisi_blk_request_init_from_bio
	.globl	hisi_blk_request_init_from_bio
	.p2align	2
	.type	hisi_blk_request_init_from_bio,@function
hisi_blk_request_init_from_bio:         // @hisi_blk_request_init_from_bio
.Lfunc_begin19:
	.loc	2 465 0                 // /mnt/ssddisk/jslave/ci/workspace/chipset_WLZ_4g_release/opensource/component_code/vendor/huawei/extra/build/build_script/kirin_kernel_release/kernel/block/hisi-blk-core.c:465:0
	.cfi_startproc
// %bb.0:
	stp	x20, x19, [sp, #-32]!   // 16-byte Folded Spill
	stp	x29, x30, [sp, #16]     // 16-byte Folded Spill
	add	x29, sp, #16            // =16
	.cfi_def_cfa w29, 16
	.cfi_offset w30, -8
	.cfi_offset w29, -16
	.cfi_offset w19, -24
	.cfi_offset w20, -32
	//DEBUG_VALUE: hisi_blk_request_init_from_bio:req <- $x0
	//DEBUG_VALUE: hisi_blk_request_init_from_bio:bio <- $x1
.Ltmp181:
	//DEBUG_VALUE: hisi_blk_lld_inline_crypto_init_request_from_bio:req <- $x0
	//DEBUG_VALUE: hisi_blk_lld_inline_crypto_init_request_from_bio:bio <- $x1
	mov	x20, x1
.Ltmp182:
	.loc	2 466 2 prologue_end    // /mnt/ssddisk/jslave/ci/workspace/chipset_WLZ_4g_release/opensource/component_code/vendor/huawei/extra/build/build_script/kirin_kernel_release/kernel/block/hisi-blk-core.c:466:2
	mov	w1, wzr
.Ltmp183:
	.loc	2 0 2 is_stmt 0         // /mnt/ssddisk/jslave/ci/workspace/chipset_WLZ_4g_release/opensource/component_code/vendor/huawei/extra/build/build_script/kirin_kernel_release/kernel/block/hisi-blk-core.c:0:2
	mov	x19, x0
.Ltmp184:
	//DEBUG_VALUE: hisi_blk_request_init_from_bio:bio <- $x20
	//DEBUG_VALUE: hisi_blk_request_init_from_bio:req <- $x19
	.loc	2 466 2                 // /mnt/ssddisk/jslave/ci/workspace/chipset_WLZ_4g_release/opensource/component_code/vendor/huawei/extra/build/build_script/kirin_kernel_release/kernel/block/hisi-blk-core.c:466:2
	bl	hisi_blk_latency_req_check
.Ltmp185:
	.loc	2 467 44 is_stmt 1      // /mnt/ssddisk/jslave/ci/workspace/chipset_WLZ_4g_release/opensource/component_code/vendor/huawei/extra/build/build_script/kirin_kernel_release/kernel/block/hisi-blk-core.c:467:44
	ldrb	w8, [x20, #139]
	.loc	2 468 31                // /mnt/ssddisk/jslave/ci/workspace/chipset_WLZ_4g_release/opensource/component_code/vendor/huawei/extra/build/build_script/kirin_kernel_release/kernel/block/hisi-blk-core.c:468:31
	str	wzr, [x19, #276]
	.loc	2 467 28                // /mnt/ssddisk/jslave/ci/workspace/chipset_WLZ_4g_release/opensource/component_code/vendor/huawei/extra/build/build_script/kirin_kernel_release/kernel/block/hisi-blk-core.c:467:28
	strb	w8, [x19, #273]
	.loc	2 469 23                // /mnt/ssddisk/jslave/ci/workspace/chipset_WLZ_4g_release/opensource/component_code/vendor/huawei/extra/build/build_script/kirin_kernel_release/kernel/block/hisi-blk-core.c:469:23
	str	x19, [x20, #96]
.Ltmp186:
	//DEBUG_VALUE: hisi_blk_lld_inline_crypto_init_request_from_bio:bio <- $x20
	//DEBUG_VALUE: hisi_blk_lld_inline_crypto_init_request_from_bio:req <- $x19
	.loc	2 115 6                 // /mnt/ssddisk/jslave/ci/workspace/chipset_WLZ_4g_release/opensource/component_code/vendor/huawei/extra/build/build_script/kirin_kernel_release/kernel/block/hisi-blk-core.c:115:6
	ldr	x8, [x19, #64]
.Ltmp187:
	//DEBUG_VALUE: hisi_blk_get_lld:q <- $x8
	//DEBUG_VALUE: is_blk_queue_support_crypto:q <- $x8
	.loc	2 25 6                  // /mnt/ssddisk/jslave/ci/workspace/chipset_WLZ_4g_release/opensource/component_code/vendor/huawei/extra/build/build_script/kirin_kernel_release/kernel/block/hisi-blk-core.c:25:6
	ldr	x9, [x8, #312]
.Ltmp188:
	.loc	2 25 6 is_stmt 0        // /mnt/ssddisk/jslave/ci/workspace/chipset_WLZ_4g_release/opensource/component_code/vendor/huawei/extra/build/build_script/kirin_kernel_release/kernel/block/hisi-blk-core.c:25:6
	cbz	x9, .LBB19_7
.Ltmp189:
// %bb.1:
	//DEBUG_VALUE: is_blk_queue_support_crypto:q <- $x8
	//DEBUG_VALUE: hisi_blk_get_lld:q <- $x8
	//DEBUG_VALUE: hisi_blk_lld_inline_crypto_init_request_from_bio:req <- $x19
	//DEBUG_VALUE: hisi_blk_lld_inline_crypto_init_request_from_bio:bio <- $x20
	//DEBUG_VALUE: hisi_blk_request_init_from_bio:req <- $x19
	//DEBUG_VALUE: hisi_blk_request_init_from_bio:bio <- $x20
	.loc	2 26 14 is_stmt 1       // /mnt/ssddisk/jslave/ci/workspace/chipset_WLZ_4g_release/opensource/component_code/vendor/huawei/extra/build/build_script/kirin_kernel_release/kernel/block/hisi-blk-core.c:26:14
	ldr	x9, [x8, #3296]
	.loc	2 26 11 is_stmt 0       // /mnt/ssddisk/jslave/ci/workspace/chipset_WLZ_4g_release/opensource/component_code/vendor/huawei/extra/build/build_script/kirin_kernel_release/kernel/block/hisi-blk-core.c:26:11
	add	x8, x8, #1800           // =1800
.Ltmp190:
	add	x10, x9, #16            // =16
.Ltmp191:
.LBB19_2:
	//DEBUG_VALUE: hisi_blk_lld_inline_crypto_init_request_from_bio:req <- $x19
	//DEBUG_VALUE: hisi_blk_lld_inline_crypto_init_request_from_bio:bio <- $x20
	//DEBUG_VALUE: hisi_blk_request_init_from_bio:req <- $x19
	//DEBUG_VALUE: hisi_blk_request_init_from_bio:bio <- $x20
	.loc	2 0 0                   // /mnt/ssddisk/jslave/ci/workspace/chipset_WLZ_4g_release/opensource/component_code/vendor/huawei/extra/build/build_script/kirin_kernel_release/kernel/block/hisi-blk-core.c:0:0
	cmp	x9, #0                  // =0
	csel	x8, x8, x10, eq
.Ltmp192:
	//DEBUG_VALUE: is_blk_queue_support_crypto:blk_lld <- $x8
	.loc	2 115 6 is_stmt 1       // /mnt/ssddisk/jslave/ci/workspace/chipset_WLZ_4g_release/opensource/component_code/vendor/huawei/extra/build/build_script/kirin_kernel_release/kernel/block/hisi-blk-core.c:115:6
	ldrb	w8, [x8, #24]
.Ltmp193:
	tbz	w8, #4, .LBB19_6
.Ltmp194:
// %bb.3:
	//DEBUG_VALUE: hisi_blk_lld_inline_crypto_init_request_from_bio:req <- $x19
	//DEBUG_VALUE: hisi_blk_lld_inline_crypto_init_request_from_bio:bio <- $x20
	//DEBUG_VALUE: hisi_blk_request_init_from_bio:req <- $x19
	//DEBUG_VALUE: hisi_blk_request_init_from_bio:bio <- $x20
	.loc	2 116 21                // /mnt/ssddisk/jslave/ci/workspace/chipset_WLZ_4g_release/opensource/component_code/vendor/huawei/extra/build/build_script/kirin_kernel_release/kernel/block/hisi-blk-core.c:116:21
	ldr	x8, [x20, #256]
.Ltmp195:
	.loc	2 116 7 is_stmt 0       // /mnt/ssddisk/jslave/ci/workspace/chipset_WLZ_4g_release/opensource/component_code/vendor/huawei/extra/build/build_script/kirin_kernel_release/kernel/block/hisi-blk-core.c:116:7
	cbz	x8, .LBB19_6
.Ltmp196:
// %bb.4:
	//DEBUG_VALUE: hisi_blk_lld_inline_crypto_init_request_from_bio:req <- $x19
	//DEBUG_VALUE: hisi_blk_lld_inline_crypto_init_request_from_bio:bio <- $x20
	//DEBUG_VALUE: hisi_blk_request_init_from_bio:req <- $x19
	//DEBUG_VALUE: hisi_blk_request_init_from_bio:bio <- $x20
	.loc	2 117 8 is_stmt 1       // /mnt/ssddisk/jslave/ci/workspace/chipset_WLZ_4g_release/opensource/component_code/vendor/huawei/extra/build/build_script/kirin_kernel_release/kernel/block/hisi-blk-core.c:117:8
	ldr	w9, [x20, #264]
.Ltmp197:
	.loc	2 117 8 is_stmt 0       // /mnt/ssddisk/jslave/ci/workspace/chipset_WLZ_4g_release/opensource/component_code/vendor/huawei/extra/build/build_script/kirin_kernel_release/kernel/block/hisi-blk-core.c:117:8
	cmp	w9, #64                 // =64
	b.ne	.LBB19_8
.Ltmp198:
.LBB19_5:
	//DEBUG_VALUE: hisi_blk_lld_inline_crypto_init_request_from_bio:req <- $x19
	//DEBUG_VALUE: hisi_blk_lld_inline_crypto_init_request_from_bio:bio <- $x20
	//DEBUG_VALUE: hisi_blk_request_init_from_bio:req <- $x19
	//DEBUG_VALUE: hisi_blk_request_init_from_bio:bio <- $x20
	.loc	2 122 25 is_stmt 1      // /mnt/ssddisk/jslave/ci/workspace/chipset_WLZ_4g_release/opensource/component_code/vendor/huawei/extra/build/build_script/kirin_kernel_release/kernel/block/hisi-blk-core.c:122:25
	str	x8, [x19, #416]
	.loc	2 123 45                // /mnt/ssddisk/jslave/ci/workspace/chipset_WLZ_4g_release/opensource/component_code/vendor/huawei/extra/build/build_script/kirin_kernel_release/kernel/block/hisi-blk-core.c:123:45
	ldr	w8, [x20, #264]
	.loc	2 123 29 is_stmt 0      // /mnt/ssddisk/jslave/ci/workspace/chipset_WLZ_4g_release/opensource/component_code/vendor/huawei/extra/build/build_script/kirin_kernel_release/kernel/block/hisi-blk-core.c:123:29
	str	w8, [x19, #424]
	.loc	2 124 47 is_stmt 1      // /mnt/ssddisk/jslave/ci/workspace/chipset_WLZ_4g_release/opensource/component_code/vendor/huawei/extra/build/build_script/kirin_kernel_release/kernel/block/hisi-blk-core.c:124:47
	ldr	w8, [x20, #268]
	.loc	2 124 31 is_stmt 0      // /mnt/ssddisk/jslave/ci/workspace/chipset_WLZ_4g_release/opensource/component_code/vendor/huawei/extra/build/build_script/kirin_kernel_release/kernel/block/hisi-blk-core.c:124:31
	str	w8, [x19, #428]
.Ltmp199:
.LBB19_6:
	//DEBUG_VALUE: hisi_blk_request_init_from_bio:req <- $x19
	//DEBUG_VALUE: hisi_blk_request_init_from_bio:bio <- $x20
	.loc	2 471 1 is_stmt 1       // /mnt/ssddisk/jslave/ci/workspace/chipset_WLZ_4g_release/opensource/component_code/vendor/huawei/extra/build/build_script/kirin_kernel_release/kernel/block/hisi-blk-core.c:471:1
	ldp	x29, x30, [sp, #16]     // 16-byte Folded Reload
	ldp	x20, x19, [sp], #32     // 16-byte Folded Reload
.Ltmp200:
	ret
.LBB19_7:
.Ltmp201:
	//DEBUG_VALUE: is_blk_queue_support_crypto:q <- $x8
	//DEBUG_VALUE: hisi_blk_get_lld:q <- $x8
	//DEBUG_VALUE: hisi_blk_lld_inline_crypto_init_request_from_bio:req <- $x19
	//DEBUG_VALUE: hisi_blk_lld_inline_crypto_init_request_from_bio:bio <- $x20
	//DEBUG_VALUE: hisi_blk_request_init_from_bio:req <- $x19
	//DEBUG_VALUE: hisi_blk_request_init_from_bio:bio <- $x20
	.loc	2 28 14                 // /mnt/ssddisk/jslave/ci/workspace/chipset_WLZ_4g_release/opensource/component_code/vendor/huawei/extra/build/build_script/kirin_kernel_release/kernel/block/hisi-blk-core.c:28:14
	ldr	x9, [x8, #720]
	.loc	2 28 11 is_stmt 0       // /mnt/ssddisk/jslave/ci/workspace/chipset_WLZ_4g_release/opensource/component_code/vendor/huawei/extra/build/build_script/kirin_kernel_release/kernel/block/hisi-blk-core.c:28:11
	add	x8, x8, #1800           // =1800
.Ltmp202:
	add	x10, x9, #120           // =120
	b	.LBB19_2
.Ltmp203:
.LBB19_8:
	//DEBUG_VALUE: hisi_blk_lld_inline_crypto_init_request_from_bio:req <- $x19
	//DEBUG_VALUE: hisi_blk_lld_inline_crypto_init_request_from_bio:bio <- $x20
	//DEBUG_VALUE: hisi_blk_request_init_from_bio:req <- $x19
	//DEBUG_VALUE: hisi_blk_request_init_from_bio:bio <- $x20
	.loc	2 118 5 is_stmt 1       // /mnt/ssddisk/jslave/ci/workspace/chipset_WLZ_4g_release/opensource/component_code/vendor/huawei/extra/build/build_script/kirin_kernel_release/kernel/block/hisi-blk-core.c:118:5
	adrp	x0, .L.str.6
	adrp	x1, .L__func__.hisi_blk_lld_inline_crypto_init_request_from_bio
	add	x0, x0, :lo12:.L.str.6
	add	x1, x1, :lo12:.L__func__.hisi_blk_lld_inline_crypto_init_request_from_bio
	bl	printk
	.loc	2 120 5                 // /mnt/ssddisk/jslave/ci/workspace/chipset_WLZ_4g_release/opensource/component_code/vendor/huawei/extra/build/build_script/kirin_kernel_release/kernel/block/hisi-blk-core.c:120:5
	mov	w0, #35
	movk	w0, #32768, lsl #16
	mov	x1, xzr
	mov	x2, xzr
	bl	rdr_syserr_process_for_ap
.Ltmp204:
	.loc	2 122 41                // /mnt/ssddisk/jslave/ci/workspace/chipset_WLZ_4g_release/opensource/component_code/vendor/huawei/extra/build/build_script/kirin_kernel_release/kernel/block/hisi-blk-core.c:122:41
	ldr	x8, [x20, #256]
	b	.LBB19_5
.Ltmp205:
.Lfunc_end19:
	.size	hisi_blk_request_init_from_bio, .Lfunc_end19-hisi_blk_request_init_from_bio
	.cfi_endproc
                                        // -- End function
	.section	.text.hisi_blk_insert_cloned_request,"ax",@progbits
	.hidden	hisi_blk_insert_cloned_request // -- Begin function hisi_blk_insert_cloned_request
	.globl	hisi_blk_insert_cloned_request
	.p2align	2
	.type	hisi_blk_insert_cloned_request,@function
hisi_blk_insert_cloned_request:         // @hisi_blk_insert_cloned_request
.Lfunc_begin20:
	.loc	2 478 0                 // /mnt/ssddisk/jslave/ci/workspace/chipset_WLZ_4g_release/opensource/component_code/vendor/huawei/extra/build/build_script/kirin_kernel_release/kernel/block/hisi-blk-core.c:478:0
	.cfi_startproc
// %bb.0:
	stp	x29, x30, [sp, #-16]!   // 16-byte Folded Spill
	mov	x29, sp
	.cfi_def_cfa w29, 16
	.cfi_offset w30, -8
	.cfi_offset w29, -16
	//DEBUG_VALUE: hisi_blk_insert_cloned_request:q <- $x0
	//DEBUG_VALUE: hisi_blk_insert_cloned_request:q <- $x0
	//DEBUG_VALUE: hisi_blk_insert_cloned_request:rq <- $x1
	//DEBUG_VALUE: hisi_blk_insert_cloned_request:rq <- $x1
	//DEBUG_VALUE: hisi_blk_insert_cloned_request:rq <- $x1
	//DEBUG_VALUE: hisi_blk_insert_cloned_request:q <- $x0
.Ltmp206:
	.loc	2 479 2 prologue_end    // /mnt/ssddisk/jslave/ci/workspace/chipset_WLZ_4g_release/opensource/component_code/vendor/huawei/extra/build/build_script/kirin_kernel_release/kernel/block/hisi-blk-core.c:479:2
	bl	hisi_blk_busy_idle_check_request_bio
.Ltmp207:
	.loc	2 480 1                 // /mnt/ssddisk/jslave/ci/workspace/chipset_WLZ_4g_release/opensource/component_code/vendor/huawei/extra/build/build_script/kirin_kernel_release/kernel/block/hisi-blk-core.c:480:1
	ldp	x29, x30, [sp], #16     // 16-byte Folded Reload
	ret
.Ltmp208:
.Lfunc_end20:
	.size	hisi_blk_insert_cloned_request, .Lfunc_end20-hisi_blk_insert_cloned_request
	.cfi_endproc
                                        // -- End function
	.section	.text.hisi_blk_request_execute_nowait,"ax",@progbits
	.hidden	hisi_blk_request_execute_nowait // -- Begin function hisi_blk_request_execute_nowait
	.globl	hisi_blk_request_execute_nowait
	.p2align	2
	.type	hisi_blk_request_execute_nowait,@function
hisi_blk_request_execute_nowait:        // @hisi_blk_request_execute_nowait
.Lfunc_begin21:
	.loc	2 488 0                 // /mnt/ssddisk/jslave/ci/workspace/chipset_WLZ_4g_release/opensource/component_code/vendor/huawei/extra/build/build_script/kirin_kernel_release/kernel/block/hisi-blk-core.c:488:0
	.cfi_startproc
// %bb.0:
	stp	x29, x30, [sp, #-16]!   // 16-byte Folded Spill
	mov	x29, sp
	.cfi_def_cfa w29, 16
	.cfi_offset w30, -8
	.cfi_offset w29, -16
	//DEBUG_VALUE: hisi_blk_request_execute_nowait:q <- $x0
	//DEBUG_VALUE: hisi_blk_request_execute_nowait:bd_disk <- $x1
	//DEBUG_VALUE: hisi_blk_request_execute_nowait:rq <- $x2
	//DEBUG_VALUE: hisi_blk_request_execute_nowait:at_head <- $w3
	//DEBUG_VALUE: hisi_blk_request_execute_nowait:done <- $x4
	mov	x1, x2
.Ltmp209:
	//DEBUG_VALUE: hisi_blk_request_execute_nowait:done <- $x4
	//DEBUG_VALUE: hisi_blk_request_execute_nowait:rq <- $x1
	//DEBUG_VALUE: hisi_blk_request_execute_nowait:q <- $x0
	//DEBUG_VALUE: hisi_blk_request_execute_nowait:rq <- $x1
	//DEBUG_VALUE: hisi_blk_request_execute_nowait:q <- $x0
	.loc	2 489 2 prologue_end    // /mnt/ssddisk/jslave/ci/workspace/chipset_WLZ_4g_release/opensource/component_code/vendor/huawei/extra/build/build_script/kirin_kernel_release/kernel/block/hisi-blk-core.c:489:2
	mov	x2, x4
.Ltmp210:
	//DEBUG_VALUE: hisi_blk_request_execute_nowait:done <- $x2
	bl	hisi_blk_busy_idle_check_execute_request
.Ltmp211:
	.loc	2 490 1                 // /mnt/ssddisk/jslave/ci/workspace/chipset_WLZ_4g_release/opensource/component_code/vendor/huawei/extra/build/build_script/kirin_kernel_release/kernel/block/hisi-blk-core.c:490:1
	ldp	x29, x30, [sp], #16     // 16-byte Folded Reload
	ret
.Ltmp212:
.Lfunc_end21:
	.size	hisi_blk_request_execute_nowait, .Lfunc_end21-hisi_blk_request_execute_nowait
	.cfi_endproc
                                        // -- End function
	.section	.text.hisi_blk_mq_rq_ctx_init,"ax",@progbits
	.hidden	hisi_blk_mq_rq_ctx_init // -- Begin function hisi_blk_mq_rq_ctx_init
	.globl	hisi_blk_mq_rq_ctx_init
	.p2align	2
	.type	hisi_blk_mq_rq_ctx_init,@function
hisi_blk_mq_rq_ctx_init:                // @hisi_blk_mq_rq_ctx_init
.Lfunc_begin22:
	.loc	2 497 0                 // /mnt/ssddisk/jslave/ci/workspace/chipset_WLZ_4g_release/opensource/component_code/vendor/huawei/extra/build/build_script/kirin_kernel_release/kernel/block/hisi-blk-core.c:497:0
	.cfi_startproc
// %bb.0:
	str	x19, [sp, #-32]!        // 8-byte Folded Spill
	stp	x29, x30, [sp, #16]     // 16-byte Folded Spill
	add	x29, sp, #16            // =16
	.cfi_def_cfa w29, 16
	.cfi_offset w30, -8
	.cfi_offset w29, -16
	.cfi_offset w19, -32
	//DEBUG_VALUE: hisi_blk_mq_rq_ctx_init:q <- $x0
	//DEBUG_VALUE: hisi_blk_mq_rq_ctx_init:ctx <- $x1
	//DEBUG_VALUE: hisi_blk_mq_rq_ctx_init:rq <- $x2
.Ltmp213:
	//DEBUG_VALUE: hisi_blk_lld_inline_crypto_req_init:rq <- $x2
	.loc	2 498 9 prologue_end    // /mnt/ssddisk/jslave/ci/workspace/chipset_WLZ_4g_release/opensource/component_code/vendor/huawei/extra/build/build_script/kirin_kernel_release/kernel/block/hisi-blk-core.c:498:9
	ldr	x8, [x0, #1792]
	//DEBUG_VALUE: hisi_blk_mq_rq_ctx_init:ctx <- $x1
	mov	x19, x2
.Ltmp214:
	//DEBUG_VALUE: hisi_blk_lld_inline_crypto_req_init:rq <- $x19
	//DEBUG_VALUE: hisi_blk_mq_rq_ctx_init:rq <- $x19
	//DEBUG_VALUE: hisi_blk_mq_rq_ctx_init:q <- $x0
	.loc	2 498 24 is_stmt 0      // /mnt/ssddisk/jslave/ci/workspace/chipset_WLZ_4g_release/opensource/component_code/vendor/huawei/extra/build/build_script/kirin_kernel_release/kernel/block/hisi-blk-core.c:498:24
	cbz	x8, .LBB22_3
.Ltmp215:
// %bb.1:
	//DEBUG_VALUE: hisi_blk_mq_rq_ctx_init:rq <- $x19
	//DEBUG_VALUE: hisi_blk_mq_rq_ctx_init:ctx <- $x1
	//DEBUG_VALUE: hisi_blk_mq_rq_ctx_init:q <- $x0
	.loc	2 498 46                // /mnt/ssddisk/jslave/ci/workspace/chipset_WLZ_4g_release/opensource/component_code/vendor/huawei/extra/build/build_script/kirin_kernel_release/kernel/block/hisi-blk-core.c:498:46
	ldr	x8, [x8, #32]
.Ltmp216:
	.loc	2 498 6                 // /mnt/ssddisk/jslave/ci/workspace/chipset_WLZ_4g_release/opensource/component_code/vendor/huawei/extra/build/build_script/kirin_kernel_release/kernel/block/hisi-blk-core.c:498:6
	cbz	x8, .LBB22_3
.Ltmp217:
// %bb.2:
	//DEBUG_VALUE: hisi_blk_mq_rq_ctx_init:rq <- $x19
	//DEBUG_VALUE: hisi_blk_mq_rq_ctx_init:ctx <- $x1
	//DEBUG_VALUE: hisi_blk_mq_rq_ctx_init:q <- $x0
	.loc	2 499 13 is_stmt 1      // /mnt/ssddisk/jslave/ci/workspace/chipset_WLZ_4g_release/opensource/component_code/vendor/huawei/extra/build/build_script/kirin_kernel_release/kernel/block/hisi-blk-core.c:499:13
	mov	x2, x19
	blr	x8
.Ltmp218:
	.loc	2 500 7                 // /mnt/ssddisk/jslave/ci/workspace/chipset_WLZ_4g_release/opensource/component_code/vendor/huawei/extra/build/build_script/kirin_kernel_release/kernel/block/hisi-blk-core.c:500:7
	cbnz	w0, .LBB22_4
.Ltmp219:
.LBB22_3:
	//DEBUG_VALUE: hisi_blk_mq_rq_ctx_init:rq <- $x19
	.loc	2 0 7 is_stmt 0         // /mnt/ssddisk/jslave/ci/workspace/chipset_WLZ_4g_release/opensource/component_code/vendor/huawei/extra/build/build_script/kirin_kernel_release/kernel/block/hisi-blk-core.c:0:7
	mov	x8, #-4294967296
.Ltmp220:
	.loc	2 230 22 is_stmt 1      // /mnt/ssddisk/jslave/ci/workspace/chipset_WLZ_4g_release/opensource/component_code/vendor/huawei/extra/build/build_script/kirin_kernel_release/kernel/block/hisi-blk-core.c:230:22
	stp	xzr, x8, [x19, #416]
.Ltmp221:
	.loc	2 509 1                 // /mnt/ssddisk/jslave/ci/workspace/chipset_WLZ_4g_release/opensource/component_code/vendor/huawei/extra/build/build_script/kirin_kernel_release/kernel/block/hisi-blk-core.c:509:1
	ldp	x29, x30, [sp, #16]     // 16-byte Folded Reload
	ldr	x19, [sp], #32          // 8-byte Folded Reload
.Ltmp222:
	ret
.LBB22_4:
.Ltmp223:
	//DEBUG_VALUE: hisi_blk_mq_rq_ctx_init:rq <- $x19
	.loc	2 0 0 is_stmt 0         // /mnt/ssddisk/jslave/ci/workspace/chipset_WLZ_4g_release/opensource/component_code/vendor/huawei/extra/build/build_script/kirin_kernel_release/kernel/block/hisi-blk-core.c:0:0
	mov	w2, w0
.Ltmp224:
	//DEBUG_VALUE: ret <- $w2
	.loc	2 501 4 is_stmt 1       // /mnt/ssddisk/jslave/ci/workspace/chipset_WLZ_4g_release/opensource/component_code/vendor/huawei/extra/build/build_script/kirin_kernel_release/kernel/block/hisi-blk-core.c:501:4
	adrp	x0, .L.str
	adrp	x1, .L__func__.hisi_blk_mq_rq_ctx_init
	add	x0, x0, :lo12:.L.str
	add	x1, x1, :lo12:.L__func__.hisi_blk_mq_rq_ctx_init
	bl	printk
.Ltmp225:
	.loc	2 0 4 is_stmt 0         // /mnt/ssddisk/jslave/ci/workspace/chipset_WLZ_4g_release/opensource/component_code/vendor/huawei/extra/build/build_script/kirin_kernel_release/kernel/block/hisi-blk-core.c:0:4
	b	.LBB22_3
.Ltmp226:
.Lfunc_end22:
	.size	hisi_blk_mq_rq_ctx_init, .Lfunc_end22-hisi_blk_mq_rq_ctx_init
	.cfi_endproc
                                        // -- End function
	.section	.text.hisi_blk_mq_request_start,"ax",@progbits
	.hidden	hisi_blk_mq_request_start // -- Begin function hisi_blk_mq_request_start
	.globl	hisi_blk_mq_request_start
	.p2align	2
	.type	hisi_blk_mq_request_start,@function
hisi_blk_mq_request_start:              // @hisi_blk_mq_request_start
.Lfunc_begin23:
	.loc	2 515 0 is_stmt 1       // /mnt/ssddisk/jslave/ci/workspace/chipset_WLZ_4g_release/opensource/component_code/vendor/huawei/extra/build/build_script/kirin_kernel_release/kernel/block/hisi-blk-core.c:515:0
	.cfi_startproc
// %bb.0:
	str	x19, [sp, #-32]!        // 8-byte Folded Spill
	stp	x29, x30, [sp, #16]     // 16-byte Folded Spill
	add	x29, sp, #16            // =16
	.cfi_def_cfa w29, 16
	.cfi_offset w30, -8
	.cfi_offset w29, -16
	.cfi_offset w19, -32
	//DEBUG_VALUE: hisi_blk_mq_request_start:req <- $x0
.Ltmp227:
	//DEBUG_VALUE: hisi_blk_io_speed_adj_func:req <- $x0
	//DEBUG_VALUE: blk_rq_is_passthrough:rq <- $x0
	//DEBUG_VALUE: blk_rq_is_scsi:rq <- $x0
	.loc	2 516 2 prologue_end    // /mnt/ssddisk/jslave/ci/workspace/chipset_WLZ_4g_release/opensource/component_code/vendor/huawei/extra/build/build_script/kirin_kernel_release/kernel/block/hisi-blk-core.c:516:2
	mov	w1, #5
	mov	x19, x0
.Ltmp228:
	//DEBUG_VALUE: blk_rq_is_scsi:rq <- $x19
	//DEBUG_VALUE: blk_rq_is_passthrough:rq <- $x19
	//DEBUG_VALUE: hisi_blk_io_speed_adj_func:req <- $x19
	//DEBUG_VALUE: hisi_blk_mq_request_start:req <- $x19
	bl	hisi_blk_latency_req_check
.Ltmp229:
	.loc	2 517 6                 // /mnt/ssddisk/jslave/ci/workspace/chipset_WLZ_4g_release/opensource/component_code/vendor/huawei/extra/build/build_script/kirin_kernel_release/kernel/block/hisi-blk-core.c:517:6
	ldr	x8, [x19, #64]
	mov	w10, #28570
	movk	w10, #4, lsl #16
	ldr	x9, [x8, #1552]
.Ltmp230:
	.loc	2 517 6 is_stmt 0       // /mnt/ssddisk/jslave/ci/workspace/chipset_WLZ_4g_release/opensource/component_code/vendor/huawei/extra/build/build_script/kirin_kernel_release/kernel/block/hisi-blk-core.c:517:6
	cmp	x9, x10
	b.eq	.LBB23_2
.Ltmp231:
.LBB23_1:
	//DEBUG_VALUE: hisi_blk_mq_request_start:req <- $x19
	.loc	2 520 1 is_stmt 1       // /mnt/ssddisk/jslave/ci/workspace/chipset_WLZ_4g_release/opensource/component_code/vendor/huawei/extra/build/build_script/kirin_kernel_release/kernel/block/hisi-blk-core.c:520:1
	ldp	x29, x30, [sp, #16]     // 16-byte Folded Reload
	ldr	x19, [sp], #32          // 8-byte Folded Reload
.Ltmp232:
	ret
.LBB23_2:
.Ltmp233:
	//DEBUG_VALUE: hisi_blk_mq_request_start:req <- $x19
	//DEBUG_VALUE: hisi_blk_io_speed_adj_func:req <- $x19
	//DEBUG_VALUE: blk_rq_is_passthrough:rq <- $x19
	//DEBUG_VALUE: blk_rq_is_scsi:rq <- $x19
	.loc	4 350 24                // /mnt/ssddisk/jslave/ci/workspace/chipset_WLZ_4g_release/opensource/component_code/vendor/huawei/extra/build/build_script/kirin_kernel_release/kernel/include/linux/blkdev.h:350:24
	ldrb	w9, [x19, #84]
.Ltmp234:
	.loc	4 360 28                // /mnt/ssddisk/jslave/ci/workspace/chipset_WLZ_4g_release/opensource/component_code/vendor/huawei/extra/build/build_script/kirin_kernel_release/kernel/include/linux/blkdev.h:360:28
	orr	w10, w9, #0x3
.Ltmp235:
	.loc	2 256 33                // /mnt/ssddisk/jslave/ci/workspace/chipset_WLZ_4g_release/opensource/component_code/vendor/huawei/extra/build/build_script/kirin_kernel_release/kernel/block/hisi-blk-core.c:256:33
	cmp	w10, #35                // =35
	b.eq	.LBB23_1
.Ltmp236:
// %bb.3:
	//DEBUG_VALUE: hisi_blk_mq_request_start:req <- $x19
	//DEBUG_VALUE: hisi_blk_io_speed_adj_func:req <- $x19
	.loc	2 256 42 is_stmt 0      // /mnt/ssddisk/jslave/ci/workspace/chipset_WLZ_4g_release/opensource/component_code/vendor/huawei/extra/build/build_script/kirin_kernel_release/kernel/block/hisi-blk-core.c:256:42
	ldr	w10, [x19, #104]
.Ltmp237:
	.loc	2 256 6                 // /mnt/ssddisk/jslave/ci/workspace/chipset_WLZ_4g_release/opensource/component_code/vendor/huawei/extra/build/build_script/kirin_kernel_release/kernel/block/hisi-blk-core.c:256:6
	cbz	w10, .LBB23_1
.Ltmp238:
// %bb.4:
	//DEBUG_VALUE: hisi_blk_mq_request_start:req <- $x19
	//DEBUG_VALUE: hisi_blk_io_speed_adj_func:req <- $x19
	.loc	2 258 6 is_stmt 1       // /mnt/ssddisk/jslave/ci/workspace/chipset_WLZ_4g_release/opensource/component_code/vendor/huawei/extra/build/build_script/kirin_kernel_release/kernel/block/hisi-blk-core.c:258:6
	cmp	w9, #1                  // =1
	b.ne	.LBB23_11
.Ltmp239:
// %bb.5:
	//DEBUG_VALUE: hisi_blk_mq_request_start:req <- $x19
	//DEBUG_VALUE: hisi_blk_io_speed_adj_func:req <- $x19
	.loc	2 259 31                // /mnt/ssddisk/jslave/ci/workspace/chipset_WLZ_4g_release/opensource/component_code/vendor/huawei/extra/build/build_script/kirin_kernel_release/kernel/block/hisi-blk-core.c:259:31
	cmp	w10, #32, lsl #12       // =131072
	b.hi	.LBB23_8
.Ltmp240:
// %bb.6:
	//DEBUG_VALUE: hisi_blk_mq_request_start:req <- $x19
	//DEBUG_VALUE: hisi_blk_io_speed_adj_func:req <- $x19
	.loc	2 0 0 is_stmt 0         // /mnt/ssddisk/jslave/ci/workspace/chipset_WLZ_4g_release/opensource/component_code/vendor/huawei/extra/build/build_script/kirin_kernel_release/kernel/block/hisi-blk-core.c:0:0
	ldr	x0, [x8, #1728]
	.loc	2 259 31                // /mnt/ssddisk/jslave/ci/workspace/chipset_WLZ_4g_release/opensource/component_code/vendor/huawei/extra/build/build_script/kirin_kernel_release/kernel/block/hisi-blk-core.c:259:31
	cbz	x0, .LBB23_8
.Ltmp241:
// %bb.7:
	//DEBUG_VALUE: hisi_blk_mq_request_start:req <- $x19
	//DEBUG_VALUE: hisi_blk_io_speed_adj_func:req <- $x19
	.loc	2 261 4 is_stmt 1       // /mnt/ssddisk/jslave/ci/workspace/chipset_WLZ_4g_release/opensource/component_code/vendor/huawei/extra/build/build_script/kirin_kernel_release/kernel/block/hisi-blk-core.c:261:4
	bl	__udelay
.Ltmp242:
	.loc	2 262 12                // /mnt/ssddisk/jslave/ci/workspace/chipset_WLZ_4g_release/opensource/component_code/vendor/huawei/extra/build/build_script/kirin_kernel_release/kernel/block/hisi-blk-core.c:262:12
	ldr	x8, [x19, #64]
.Ltmp243:
.LBB23_8:
	//DEBUG_VALUE: hisi_blk_mq_request_start:req <- $x19
	//DEBUG_VALUE: hisi_blk_io_speed_adj_func:req <- $x19
	.loc	2 262 26 is_stmt 0      // /mnt/ssddisk/jslave/ci/workspace/chipset_WLZ_4g_release/opensource/component_code/vendor/huawei/extra/build/build_script/kirin_kernel_release/kernel/block/hisi-blk-core.c:262:26
	ldr	x0, [x8, #1712]
	.loc	2 262 31                // /mnt/ssddisk/jslave/ci/workspace/chipset_WLZ_4g_release/opensource/component_code/vendor/huawei/extra/build/build_script/kirin_kernel_release/kernel/block/hisi-blk-core.c:262:31
	cbz	x0, .LBB23_11
.Ltmp244:
// %bb.9:
	//DEBUG_VALUE: hisi_blk_mq_request_start:req <- $x19
	//DEBUG_VALUE: hisi_blk_io_speed_adj_func:req <- $x19
	.loc	2 263 10 is_stmt 1      // /mnt/ssddisk/jslave/ci/workspace/chipset_WLZ_4g_release/opensource/component_code/vendor/huawei/extra/build/build_script/kirin_kernel_release/kernel/block/hisi-blk-core.c:263:10
	ldr	w8, [x19, #104]
.Ltmp245:
	.loc	2 262 7                 // /mnt/ssddisk/jslave/ci/workspace/chipset_WLZ_4g_release/opensource/component_code/vendor/huawei/extra/build/build_script/kirin_kernel_release/kernel/block/hisi-blk-core.c:262:7
	cmp	w8, #32, lsl #12        // =131072
	b.ls	.LBB23_11
.Ltmp246:
// %bb.10:
	//DEBUG_VALUE: hisi_blk_mq_request_start:req <- $x19
	//DEBUG_VALUE: hisi_blk_io_speed_adj_func:req <- $x19
	.loc	2 264 4                 // /mnt/ssddisk/jslave/ci/workspace/chipset_WLZ_4g_release/opensource/component_code/vendor/huawei/extra/build/build_script/kirin_kernel_release/kernel/block/hisi-blk-core.c:264:4
	bl	__udelay
.Ltmp247:
.LBB23_11:
	//DEBUG_VALUE: hisi_blk_mq_request_start:req <- $x19
	//DEBUG_VALUE: hisi_blk_io_speed_adj_func:req <- $x19
	.loc	2 266 6                 // /mnt/ssddisk/jslave/ci/workspace/chipset_WLZ_4g_release/opensource/component_code/vendor/huawei/extra/build/build_script/kirin_kernel_release/kernel/block/hisi-blk-core.c:266:6
	ldrb	w8, [x19, #84]
	cbnz	w8, .LBB23_1
.Ltmp248:
// %bb.12:
	//DEBUG_VALUE: hisi_blk_mq_request_start:req <- $x19
	//DEBUG_VALUE: hisi_blk_io_speed_adj_func:req <- $x19
	.loc	2 267 12                // /mnt/ssddisk/jslave/ci/workspace/chipset_WLZ_4g_release/opensource/component_code/vendor/huawei/extra/build/build_script/kirin_kernel_release/kernel/block/hisi-blk-core.c:267:12
	ldr	x8, [x19, #64]
	.loc	2 267 26 is_stmt 0      // /mnt/ssddisk/jslave/ci/workspace/chipset_WLZ_4g_release/opensource/component_code/vendor/huawei/extra/build/build_script/kirin_kernel_release/kernel/block/hisi-blk-core.c:267:26
	ldr	x0, [x8, #1720]
	.loc	2 267 31                // /mnt/ssddisk/jslave/ci/workspace/chipset_WLZ_4g_release/opensource/component_code/vendor/huawei/extra/build/build_script/kirin_kernel_release/kernel/block/hisi-blk-core.c:267:31
	cbz	x0, .LBB23_15
.Ltmp249:
// %bb.13:
	//DEBUG_VALUE: hisi_blk_mq_request_start:req <- $x19
	//DEBUG_VALUE: hisi_blk_io_speed_adj_func:req <- $x19
	.loc	2 268 10 is_stmt 1      // /mnt/ssddisk/jslave/ci/workspace/chipset_WLZ_4g_release/opensource/component_code/vendor/huawei/extra/build/build_script/kirin_kernel_release/kernel/block/hisi-blk-core.c:268:10
	ldr	w9, [x19, #104]
.Ltmp250:
	.loc	2 267 7                 // /mnt/ssddisk/jslave/ci/workspace/chipset_WLZ_4g_release/opensource/component_code/vendor/huawei/extra/build/build_script/kirin_kernel_release/kernel/block/hisi-blk-core.c:267:7
	cmp	w9, #32, lsl #12        // =131072
	b.hi	.LBB23_15
.Ltmp251:
// %bb.14:
	//DEBUG_VALUE: hisi_blk_mq_request_start:req <- $x19
	//DEBUG_VALUE: hisi_blk_io_speed_adj_func:req <- $x19
	.loc	2 269 4                 // /mnt/ssddisk/jslave/ci/workspace/chipset_WLZ_4g_release/opensource/component_code/vendor/huawei/extra/build/build_script/kirin_kernel_release/kernel/block/hisi-blk-core.c:269:4
	bl	__udelay
.Ltmp252:
	.loc	2 270 12                // /mnt/ssddisk/jslave/ci/workspace/chipset_WLZ_4g_release/opensource/component_code/vendor/huawei/extra/build/build_script/kirin_kernel_release/kernel/block/hisi-blk-core.c:270:12
	ldr	x8, [x19, #64]
.Ltmp253:
.LBB23_15:
	//DEBUG_VALUE: hisi_blk_mq_request_start:req <- $x19
	//DEBUG_VALUE: hisi_blk_io_speed_adj_func:req <- $x19
	.loc	2 270 26 is_stmt 0      // /mnt/ssddisk/jslave/ci/workspace/chipset_WLZ_4g_release/opensource/component_code/vendor/huawei/extra/build/build_script/kirin_kernel_release/kernel/block/hisi-blk-core.c:270:26
	ldr	x0, [x8, #1704]
	.loc	2 270 31                // /mnt/ssddisk/jslave/ci/workspace/chipset_WLZ_4g_release/opensource/component_code/vendor/huawei/extra/build/build_script/kirin_kernel_release/kernel/block/hisi-blk-core.c:270:31
	cbz	x0, .LBB23_1
.Ltmp254:
// %bb.16:
	//DEBUG_VALUE: hisi_blk_mq_request_start:req <- $x19
	//DEBUG_VALUE: hisi_blk_io_speed_adj_func:req <- $x19
	.loc	2 271 10 is_stmt 1      // /mnt/ssddisk/jslave/ci/workspace/chipset_WLZ_4g_release/opensource/component_code/vendor/huawei/extra/build/build_script/kirin_kernel_release/kernel/block/hisi-blk-core.c:271:10
	ldr	w8, [x19, #104]
.Ltmp255:
	.loc	2 270 7                 // /mnt/ssddisk/jslave/ci/workspace/chipset_WLZ_4g_release/opensource/component_code/vendor/huawei/extra/build/build_script/kirin_kernel_release/kernel/block/hisi-blk-core.c:270:7
	cmp	w8, #32, lsl #12        // =131072
	b.ls	.LBB23_1
.Ltmp256:
// %bb.17:
	//DEBUG_VALUE: hisi_blk_mq_request_start:req <- $x19
	//DEBUG_VALUE: hisi_blk_io_speed_adj_func:req <- $x19
	.loc	2 272 4                 // /mnt/ssddisk/jslave/ci/workspace/chipset_WLZ_4g_release/opensource/component_code/vendor/huawei/extra/build/build_script/kirin_kernel_release/kernel/block/hisi-blk-core.c:272:4
	bl	__udelay
	b	.LBB23_1
.Ltmp257:
.Lfunc_end23:
	.size	hisi_blk_mq_request_start, .Lfunc_end23-hisi_blk_mq_request_start
	.cfi_endproc
                                        // -- End function
	.section	.text.hisi_blk_request_start,"ax",@progbits
	.hidden	hisi_blk_request_start  // -- Begin function hisi_blk_request_start
	.globl	hisi_blk_request_start
	.p2align	2
	.type	hisi_blk_request_start,@function
hisi_blk_request_start:                 // @hisi_blk_request_start
.Lfunc_begin24:
	.loc	2 526 0                 // /mnt/ssddisk/jslave/ci/workspace/chipset_WLZ_4g_release/opensource/component_code/vendor/huawei/extra/build/build_script/kirin_kernel_release/kernel/block/hisi-blk-core.c:526:0
	.cfi_startproc
// %bb.0:
	stp	x29, x30, [sp, #-16]!   // 16-byte Folded Spill
	mov	x29, sp
	.cfi_def_cfa w29, 16
	.cfi_offset w30, -8
	.cfi_offset w29, -16
	//DEBUG_VALUE: hisi_blk_request_start:req <- $x0
	//DEBUG_VALUE: hisi_blk_request_start:req <- $x0
.Ltmp258:
	.loc	2 527 2 prologue_end    // /mnt/ssddisk/jslave/ci/workspace/chipset_WLZ_4g_release/opensource/component_code/vendor/huawei/extra/build/build_script/kirin_kernel_release/kernel/block/hisi-blk-core.c:527:2
	mov	w1, #5
	//DEBUG_VALUE: hisi_blk_request_start:req <- $x0
	bl	hisi_blk_latency_req_check
.Ltmp259:
	.loc	2 528 1                 // /mnt/ssddisk/jslave/ci/workspace/chipset_WLZ_4g_release/opensource/component_code/vendor/huawei/extra/build/build_script/kirin_kernel_release/kernel/block/hisi-blk-core.c:528:1
	ldp	x29, x30, [sp], #16     // 16-byte Folded Reload
	ret
.Ltmp260:
.Lfunc_end24:
	.size	hisi_blk_request_start, .Lfunc_end24-hisi_blk_request_start
	.cfi_endproc
                                        // -- End function
	.section	.text.hisi_blk_requeue_request,"ax",@progbits
	.hidden	hisi_blk_requeue_request // -- Begin function hisi_blk_requeue_request
	.globl	hisi_blk_requeue_request
	.p2align	2
	.type	hisi_blk_requeue_request,@function
hisi_blk_requeue_request:               // @hisi_blk_requeue_request
.Lfunc_begin25:
	.loc	2 534 0                 // /mnt/ssddisk/jslave/ci/workspace/chipset_WLZ_4g_release/opensource/component_code/vendor/huawei/extra/build/build_script/kirin_kernel_release/kernel/block/hisi-blk-core.c:534:0
	.cfi_startproc
// %bb.0:
	stp	x29, x30, [sp, #-16]!   // 16-byte Folded Spill
	mov	x29, sp
	.cfi_def_cfa w29, 16
	.cfi_offset w30, -8
	.cfi_offset w29, -16
	//DEBUG_VALUE: hisi_blk_requeue_request:q <- $x0
	//DEBUG_VALUE: hisi_blk_requeue_request:rq <- $x1
	mov	x0, x1
.Ltmp261:
	//DEBUG_VALUE: hisi_blk_requeue_request:rq <- $x0
	.loc	2 535 2 prologue_end    // /mnt/ssddisk/jslave/ci/workspace/chipset_WLZ_4g_release/opensource/component_code/vendor/huawei/extra/build/build_script/kirin_kernel_release/kernel/block/hisi-blk-core.c:535:2
	mov	w1, #11
	//DEBUG_VALUE: hisi_blk_requeue_request:rq <- $x0
	bl	hisi_blk_latency_req_check
.Ltmp262:
	.loc	2 536 1                 // /mnt/ssddisk/jslave/ci/workspace/chipset_WLZ_4g_release/opensource/component_code/vendor/huawei/extra/build/build_script/kirin_kernel_release/kernel/block/hisi-blk-core.c:536:1
	ldp	x29, x30, [sp], #16     // 16-byte Folded Reload
	ret
.Ltmp263:
.Lfunc_end25:
	.size	hisi_blk_requeue_request, .Lfunc_end25-hisi_blk_requeue_request
	.cfi_endproc
                                        // -- End function
	.section	.text.hisi_blk_request_update,"ax",@progbits
	.hidden	hisi_blk_request_update // -- Begin function hisi_blk_request_update
	.globl	hisi_blk_request_update
	.p2align	2
	.type	hisi_blk_request_update,@function
hisi_blk_request_update:                // @hisi_blk_request_update
.Lfunc_begin26:
	.loc	2 543 0                 // /mnt/ssddisk/jslave/ci/workspace/chipset_WLZ_4g_release/opensource/component_code/vendor/huawei/extra/build/build_script/kirin_kernel_release/kernel/block/hisi-blk-core.c:543:0
	.cfi_startproc
// %bb.0:
	str	x19, [sp, #-32]!        // 8-byte Folded Spill
	stp	x29, x30, [sp, #16]     // 16-byte Folded Spill
	add	x29, sp, #16            // =16
	.cfi_def_cfa w29, 16
	.cfi_offset w30, -8
	.cfi_offset w29, -16
	.cfi_offset w19, -32
	//DEBUG_VALUE: hisi_blk_request_update:req <- $x0
	//DEBUG_VALUE: hisi_blk_request_update:error <- $w1
	//DEBUG_VALUE: hisi_blk_request_update:nr_bytes <- $w2
.Ltmp264:
	.loc	2 544 50 prologue_end   // /mnt/ssddisk/jslave/ci/workspace/chipset_WLZ_4g_release/opensource/component_code/vendor/huawei/extra/build/build_script/kirin_kernel_release/kernel/block/hisi-blk-core.c:544:50
	ldr	x8, [x0, #64]
.Ltmp265:
	//DEBUG_VALUE: hisi_blk_get_lld:q <- $x8
	.loc	2 0 50 is_stmt 0        // /mnt/ssddisk/jslave/ci/workspace/chipset_WLZ_4g_release/opensource/component_code/vendor/huawei/extra/build/build_script/kirin_kernel_release/kernel/block/hisi-blk-core.c:0:50
	mov	x19, x0
	//DEBUG_VALUE: hisi_blk_request_update:nr_bytes <- $w2
.Ltmp266:
	//DEBUG_VALUE: hisi_blk_request_update:error <- undef
	//DEBUG_VALUE: hisi_blk_request_update:req <- $x19
	.loc	2 25 6 is_stmt 1        // /mnt/ssddisk/jslave/ci/workspace/chipset_WLZ_4g_release/opensource/component_code/vendor/huawei/extra/build/build_script/kirin_kernel_release/kernel/block/hisi-blk-core.c:25:6
	ldr	x9, [x8, #312]
.Ltmp267:
	//DEBUG_VALUE: hisi_blk_request_update:error <- $w1
	.loc	2 25 6 is_stmt 0        // /mnt/ssddisk/jslave/ci/workspace/chipset_WLZ_4g_release/opensource/component_code/vendor/huawei/extra/build/build_script/kirin_kernel_release/kernel/block/hisi-blk-core.c:25:6
	cbz	x9, .LBB26_9
.Ltmp268:
// %bb.1:
	//DEBUG_VALUE: hisi_blk_request_update:req <- $x19
	//DEBUG_VALUE: hisi_blk_get_lld:q <- $x8
	//DEBUG_VALUE: hisi_blk_request_update:nr_bytes <- $w2
	//DEBUG_VALUE: hisi_blk_request_update:error <- $w1
	.loc	2 26 14 is_stmt 1       // /mnt/ssddisk/jslave/ci/workspace/chipset_WLZ_4g_release/opensource/component_code/vendor/huawei/extra/build/build_script/kirin_kernel_release/kernel/block/hisi-blk-core.c:26:14
	ldr	x9, [x8, #3296]
	.loc	2 26 11 is_stmt 0       // /mnt/ssddisk/jslave/ci/workspace/chipset_WLZ_4g_release/opensource/component_code/vendor/huawei/extra/build/build_script/kirin_kernel_release/kernel/block/hisi-blk-core.c:26:11
	add	x8, x8, #1800           // =1800
.Ltmp269:
	add	x10, x9, #16            // =16
.Ltmp270:
.LBB26_2:
	//DEBUG_VALUE: hisi_blk_request_update:req <- $x19
	//DEBUG_VALUE: hisi_blk_request_update:nr_bytes <- $w2
	//DEBUG_VALUE: hisi_blk_request_update:error <- $w1
	.loc	2 0 0                   // /mnt/ssddisk/jslave/ci/workspace/chipset_WLZ_4g_release/opensource/component_code/vendor/huawei/extra/build/build_script/kirin_kernel_release/kernel/block/hisi-blk-core.c:0:0
	cmp	x9, #0                  // =0
.Ltmp271:
	.loc	2 546 6 is_stmt 1       // /mnt/ssddisk/jslave/ci/workspace/chipset_WLZ_4g_release/opensource/component_code/vendor/huawei/extra/build/build_script/kirin_kernel_release/kernel/block/hisi-blk-core.c:546:6
	ldrb	w9, [x19, #84]
.Ltmp272:
	.loc	2 0 0 is_stmt 0         // /mnt/ssddisk/jslave/ci/workspace/chipset_WLZ_4g_release/opensource/component_code/vendor/huawei/extra/build/build_script/kirin_kernel_release/kernel/block/hisi-blk-core.c:0:0
	csel	x8, x8, x10, eq
.Ltmp273:
	//DEBUG_VALUE: hisi_blk_request_update:lld <- $x8
	.loc	2 546 6                 // /mnt/ssddisk/jslave/ci/workspace/chipset_WLZ_4g_release/opensource/component_code/vendor/huawei/extra/build/build_script/kirin_kernel_release/kernel/block/hisi-blk-core.c:546:6
	cmp	w9, #3                  // =3
	b.eq	.LBB26_7
.Ltmp274:
// %bb.3:
	//DEBUG_VALUE: hisi_blk_request_update:lld <- $x8
	//DEBUG_VALUE: hisi_blk_request_update:req <- $x19
	//DEBUG_VALUE: hisi_blk_request_update:nr_bytes <- $w2
	//DEBUG_VALUE: hisi_blk_request_update:error <- $w1
	.loc	2 549 6 is_stmt 1       // /mnt/ssddisk/jslave/ci/workspace/chipset_WLZ_4g_release/opensource/component_code/vendor/huawei/extra/build/build_script/kirin_kernel_release/kernel/block/hisi-blk-core.c:549:6
	cmp	w9, #1                  // =1
	b.eq	.LBB26_8
.Ltmp275:
.LBB26_4:
	//DEBUG_VALUE: hisi_blk_request_update:lld <- $x8
	//DEBUG_VALUE: hisi_blk_request_update:req <- $x19
	//DEBUG_VALUE: hisi_blk_request_update:nr_bytes <- $w2
	//DEBUG_VALUE: hisi_blk_request_update:error <- $w1
	.loc	2 552 6                 // /mnt/ssddisk/jslave/ci/workspace/chipset_WLZ_4g_release/opensource/component_code/vendor/huawei/extra/build/build_script/kirin_kernel_release/kernel/block/hisi-blk-core.c:552:6
	cmp	w9, #2                  // =2
	b.ne	.LBB26_6
.Ltmp276:
.LBB26_5:
	//DEBUG_VALUE: hisi_blk_request_update:lld <- $x8
	//DEBUG_VALUE: hisi_blk_request_update:req <- $x19
	//DEBUG_VALUE: hisi_blk_request_update:nr_bytes <- $w2
	//DEBUG_VALUE: hisi_blk_request_update:error <- $w1
	.loc	2 553 30                // /mnt/ssddisk/jslave/ci/workspace/chipset_WLZ_4g_release/opensource/component_code/vendor/huawei/extra/build/build_script/kirin_kernel_release/kernel/block/hisi-blk-core.c:553:30
	and	w1, w1, #0xff
.Ltmp277:
	.loc	2 553 3 is_stmt 0       // /mnt/ssddisk/jslave/ci/workspace/chipset_WLZ_4g_release/opensource/component_code/vendor/huawei/extra/build/build_script/kirin_kernel_release/kernel/block/hisi-blk-core.c:553:3
	mov	x0, x19
	bl	hisi_blk_flush_update
.Ltmp278:
.LBB26_6:
	//DEBUG_VALUE: hisi_blk_request_update:req <- $x19
	.loc	2 555 2 is_stmt 1       // /mnt/ssddisk/jslave/ci/workspace/chipset_WLZ_4g_release/opensource/component_code/vendor/huawei/extra/build/build_script/kirin_kernel_release/kernel/block/hisi-blk-core.c:555:2
	mov	w1, #13
	mov	x0, x19
	bl	hisi_blk_latency_req_check
	.loc	2 556 1                 // /mnt/ssddisk/jslave/ci/workspace/chipset_WLZ_4g_release/opensource/component_code/vendor/huawei/extra/build/build_script/kirin_kernel_release/kernel/block/hisi-blk-core.c:556:1
	ldp	x29, x30, [sp, #16]     // 16-byte Folded Reload
	ldr	x19, [sp], #32          // 8-byte Folded Reload
.Ltmp279:
	ret
.LBB26_7:
.Ltmp280:
	//DEBUG_VALUE: hisi_blk_request_update:lld <- $x8
	//DEBUG_VALUE: hisi_blk_request_update:req <- $x19
	//DEBUG_VALUE: hisi_blk_request_update:nr_bytes <- $w2
	//DEBUG_VALUE: hisi_blk_request_update:error <- $w1
	.loc	2 547 20                // /mnt/ssddisk/jslave/ci/workspace/chipset_WLZ_4g_release/opensource/component_code/vendor/huawei/extra/build/build_script/kirin_kernel_release/kernel/block/hisi-blk-core.c:547:20
	ldr	x9, [x8, #904]
	add	x9, x9, w2, uxtw
	str	x9, [x8, #904]
.Ltmp281:
	.loc	2 549 6                 // /mnt/ssddisk/jslave/ci/workspace/chipset_WLZ_4g_release/opensource/component_code/vendor/huawei/extra/build/build_script/kirin_kernel_release/kernel/block/hisi-blk-core.c:549:6
	ldrb	w9, [x19, #84]
.Ltmp282:
	.loc	2 549 6 is_stmt 0       // /mnt/ssddisk/jslave/ci/workspace/chipset_WLZ_4g_release/opensource/component_code/vendor/huawei/extra/build/build_script/kirin_kernel_release/kernel/block/hisi-blk-core.c:549:6
	cmp	w9, #1                  // =1
	b.ne	.LBB26_4
.Ltmp283:
.LBB26_8:
	//DEBUG_VALUE: hisi_blk_request_update:lld <- $x8
	//DEBUG_VALUE: hisi_blk_request_update:req <- $x19
	//DEBUG_VALUE: hisi_blk_request_update:nr_bytes <- $w2
	//DEBUG_VALUE: hisi_blk_request_update:error <- $w1
	.loc	2 550 18 is_stmt 1      // /mnt/ssddisk/jslave/ci/workspace/chipset_WLZ_4g_release/opensource/component_code/vendor/huawei/extra/build/build_script/kirin_kernel_release/kernel/block/hisi-blk-core.c:550:18
	ldr	x9, [x8, #896]
	add	x9, x9, w2, uxtw
	str	x9, [x8, #896]
.Ltmp284:
	.loc	2 552 6                 // /mnt/ssddisk/jslave/ci/workspace/chipset_WLZ_4g_release/opensource/component_code/vendor/huawei/extra/build/build_script/kirin_kernel_release/kernel/block/hisi-blk-core.c:552:6
	ldrb	w9, [x19, #84]
.Ltmp285:
	.loc	2 552 6 is_stmt 0       // /mnt/ssddisk/jslave/ci/workspace/chipset_WLZ_4g_release/opensource/component_code/vendor/huawei/extra/build/build_script/kirin_kernel_release/kernel/block/hisi-blk-core.c:552:6
	cmp	w9, #2                  // =2
	b.eq	.LBB26_5
	b	.LBB26_6
.Ltmp286:
.LBB26_9:
	//DEBUG_VALUE: hisi_blk_request_update:req <- $x19
	//DEBUG_VALUE: hisi_blk_get_lld:q <- $x8
	//DEBUG_VALUE: hisi_blk_request_update:nr_bytes <- $w2
	//DEBUG_VALUE: hisi_blk_request_update:error <- $w1
	.loc	2 28 14 is_stmt 1       // /mnt/ssddisk/jslave/ci/workspace/chipset_WLZ_4g_release/opensource/component_code/vendor/huawei/extra/build/build_script/kirin_kernel_release/kernel/block/hisi-blk-core.c:28:14
	ldr	x9, [x8, #720]
	.loc	2 28 11 is_stmt 0       // /mnt/ssddisk/jslave/ci/workspace/chipset_WLZ_4g_release/opensource/component_code/vendor/huawei/extra/build/build_script/kirin_kernel_release/kernel/block/hisi-blk-core.c:28:11
	add	x8, x8, #1800           // =1800
.Ltmp287:
	add	x10, x9, #120           // =120
	b	.LBB26_2
.Ltmp288:
.Lfunc_end26:
	.size	hisi_blk_request_update, .Lfunc_end26-hisi_blk_request_update
	.cfi_endproc
                                        // -- End function
	.section	.text.hisi_blk_mq_request_free,"ax",@progbits
	.hidden	hisi_blk_mq_request_free // -- Begin function hisi_blk_mq_request_free
	.globl	hisi_blk_mq_request_free
	.p2align	2
	.type	hisi_blk_mq_request_free,@function
hisi_blk_mq_request_free:               // @hisi_blk_mq_request_free
.Lfunc_begin27:
	.loc	2 562 0 is_stmt 1       // /mnt/ssddisk/jslave/ci/workspace/chipset_WLZ_4g_release/opensource/component_code/vendor/huawei/extra/build/build_script/kirin_kernel_release/kernel/block/hisi-blk-core.c:562:0
	.cfi_startproc
// %bb.0:
	stp	x29, x30, [sp, #-16]!   // 16-byte Folded Spill
	mov	x29, sp
	.cfi_def_cfa w29, 16
	.cfi_offset w30, -8
	.cfi_offset w29, -16
	//DEBUG_VALUE: hisi_blk_mq_request_free:q <- $x0
	//DEBUG_VALUE: hisi_blk_mq_request_free:rq <- $x1
	mov	x0, x1
.Ltmp289:
	//DEBUG_VALUE: hisi_blk_mq_request_free:rq <- $x0
	.loc	2 563 2 prologue_end    // /mnt/ssddisk/jslave/ci/workspace/chipset_WLZ_4g_release/opensource/component_code/vendor/huawei/extra/build/build_script/kirin_kernel_release/kernel/block/hisi-blk-core.c:563:2
	orr	w1, wzr, #0xe
	//DEBUG_VALUE: hisi_blk_mq_request_free:rq <- $x0
	bl	hisi_blk_latency_req_check
.Ltmp290:
	.loc	2 564 1                 // /mnt/ssddisk/jslave/ci/workspace/chipset_WLZ_4g_release/opensource/component_code/vendor/huawei/extra/build/build_script/kirin_kernel_release/kernel/block/hisi-blk-core.c:564:1
	ldp	x29, x30, [sp], #16     // 16-byte Folded Reload
	ret
.Ltmp291:
.Lfunc_end27:
	.size	hisi_blk_mq_request_free, .Lfunc_end27-hisi_blk_mq_request_free
	.cfi_endproc
                                        // -- End function
	.section	.text.hisi_blk_request_put,"ax",@progbits
	.hidden	hisi_blk_request_put    // -- Begin function hisi_blk_request_put
	.globl	hisi_blk_request_put
	.p2align	2
	.type	hisi_blk_request_put,@function
hisi_blk_request_put:                   // @hisi_blk_request_put
.Lfunc_begin28:
	.loc	2 570 0                 // /mnt/ssddisk/jslave/ci/workspace/chipset_WLZ_4g_release/opensource/component_code/vendor/huawei/extra/build/build_script/kirin_kernel_release/kernel/block/hisi-blk-core.c:570:0
	.cfi_startproc
// %bb.0:
	stp	x29, x30, [sp, #-16]!   // 16-byte Folded Spill
	mov	x29, sp
	.cfi_def_cfa w29, 16
	.cfi_offset w30, -8
	.cfi_offset w29, -16
	//DEBUG_VALUE: hisi_blk_request_put:q <- $x0
	//DEBUG_VALUE: hisi_blk_request_put:req <- $x1
	mov	x0, x1
.Ltmp292:
	//DEBUG_VALUE: hisi_blk_request_put:req <- $x0
	.loc	2 571 2 prologue_end    // /mnt/ssddisk/jslave/ci/workspace/chipset_WLZ_4g_release/opensource/component_code/vendor/huawei/extra/build/build_script/kirin_kernel_release/kernel/block/hisi-blk-core.c:571:2
	orr	w1, wzr, #0xe
	//DEBUG_VALUE: hisi_blk_request_put:req <- $x0
	bl	hisi_blk_latency_req_check
.Ltmp293:
	.loc	2 572 1                 // /mnt/ssddisk/jslave/ci/workspace/chipset_WLZ_4g_release/opensource/component_code/vendor/huawei/extra/build/build_script/kirin_kernel_release/kernel/block/hisi-blk-core.c:572:1
	ldp	x29, x30, [sp], #16     // 16-byte Folded Reload
	ret
.Ltmp294:
.Lfunc_end28:
	.size	hisi_blk_request_put, .Lfunc_end28-hisi_blk_request_put
	.cfi_endproc
                                        // -- End function
	.section	.text.hisi_blk_check_partition_done,"ax",@progbits
	.hidden	hisi_blk_check_partition_done // -- Begin function hisi_blk_check_partition_done
	.globl	hisi_blk_check_partition_done
	.p2align	2
	.type	hisi_blk_check_partition_done,@function
hisi_blk_check_partition_done:          // @hisi_blk_check_partition_done
.Lfunc_begin29:
	.loc	2 597 0                 // /mnt/ssddisk/jslave/ci/workspace/chipset_WLZ_4g_release/opensource/component_code/vendor/huawei/extra/build/build_script/kirin_kernel_release/kernel/block/hisi-blk-core.c:597:0
	.cfi_startproc
// %bb.0:
	//DEBUG_VALUE: hisi_blk_check_partition_done:disk <- $x0
	//DEBUG_VALUE: hisi_blk_check_partition_done:disk <- $x0
	//DEBUG_VALUE: hisi_blk_check_partition_done:has_part_tbl <- $w1
	.loc	2 598 8 prologue_end    // /mnt/ssddisk/jslave/ci/workspace/chipset_WLZ_4g_release/opensource/component_code/vendor/huawei/extra/build/build_script/kirin_kernel_release/kernel/block/hisi-blk-core.c:598:8
	ldr	x8, [x0, #1112]
	//DEBUG_VALUE: hisi_blk_check_partition_done:has_part_tbl <- $w1
	and	w9, w1, #0x1
	.loc	2 598 45 is_stmt 0      // /mnt/ssddisk/jslave/ci/workspace/chipset_WLZ_4g_release/opensource/component_code/vendor/huawei/extra/build/build_script/kirin_kernel_release/kernel/block/hisi-blk-core.c:598:45
	strb	w9, [x8, #1544]
	.loc	2 599 1 is_stmt 1       // /mnt/ssddisk/jslave/ci/workspace/chipset_WLZ_4g_release/opensource/component_code/vendor/huawei/extra/build/build_script/kirin_kernel_release/kernel/block/hisi-blk-core.c:599:1
	ret
.Ltmp295:
.Lfunc_end29:
	.size	hisi_blk_check_partition_done, .Lfunc_end29-hisi_blk_check_partition_done
	.cfi_endproc
                                        // -- End function
	.section	.text.hisi_blk_allocated_queue_init,"ax",@progbits
	.hidden	hisi_blk_allocated_queue_init // -- Begin function hisi_blk_allocated_queue_init
	.globl	hisi_blk_allocated_queue_init
	.p2align	2
	.type	hisi_blk_allocated_queue_init,@function
hisi_blk_allocated_queue_init:          // @hisi_blk_allocated_queue_init
.Lfunc_begin30:
	.loc	2 605 0                 // /mnt/ssddisk/jslave/ci/workspace/chipset_WLZ_4g_release/opensource/component_code/vendor/huawei/extra/build/build_script/kirin_kernel_release/kernel/block/hisi-blk-core.c:605:0
	.cfi_startproc
// %bb.0:
	stp	x20, x19, [sp, #-32]!   // 16-byte Folded Spill
	stp	x29, x30, [sp, #16]     // 16-byte Folded Spill
	add	x29, sp, #16            // =16
	.cfi_def_cfa w29, 16
	.cfi_offset w30, -8
	.cfi_offset w29, -16
	.cfi_offset w19, -24
	.cfi_offset w20, -32
	//DEBUG_VALUE: hisi_blk_allocated_queue_init:q <- $x0
.Ltmp296:
	//DEBUG_VALUE: hisi_blk_dev_lld_init:blk_lld <- [DW_OP_plus_uconst 1800, DW_OP_stack_value] $x0
	//DEBUG_VALUE: hisi_blk_dev_lld_init:data <- $x0
	.loc	2 606 32 prologue_end   // /mnt/ssddisk/jslave/ci/workspace/chipset_WLZ_4g_release/opensource/component_code/vendor/huawei/extra/build/build_script/kirin_kernel_release/kernel/block/hisi-blk-core.c:606:32
	add	x8, x0, #1688           // =1688
.Ltmp297:
	//DEBUG_VALUE: __write_once_size:res <- undef
	.loc	2 0 32 is_stmt 0        // /mnt/ssddisk/jslave/ci/workspace/chipset_WLZ_4g_release/opensource/component_code/vendor/huawei/extra/build/build_script/kirin_kernel_release/kernel/block/hisi-blk-core.c:0:32
	mov	w9, #122
.Ltmp298:
	//DEBUG_VALUE: __write_once_size:p <- $x8
	//DEBUG_VALUE: __write_once_size:size <- 8
	//DEBUG_VALUE: INIT_LIST_HEAD:list <- $x8
	.loc	2 585 42 is_stmt 1      // /mnt/ssddisk/jslave/ci/workspace/chipset_WLZ_4g_release/opensource/component_code/vendor/huawei/extra/build/build_script/kirin_kernel_release/kernel/block/hisi-blk-core.c:585:42
	add	x20, x0, #1880          // =1880
	mov	x19, x0
.Ltmp299:
	//DEBUG_VALUE: hisi_blk_allocated_queue_init:q <- $x19
	.loc	137 213 31              // /mnt/ssddisk/jslave/ci/workspace/chipset_WLZ_4g_release/opensource/component_code/vendor/huawei/extra/build/build_script/kirin_kernel_release/kernel/include/linux/compiler.h:213:31
	str	x8, [x0, #1688]
.Ltmp300:
	.loc	138 29 13               // /mnt/ssddisk/jslave/ci/workspace/chipset_WLZ_4g_release/opensource/component_code/vendor/huawei/extra/build/build_script/kirin_kernel_release/kernel/include/linux/list.h:29:13
	str	x8, [x0, #1696]
.Ltmp301:
	.loc	2 607 35                // /mnt/ssddisk/jslave/ci/workspace/chipset_WLZ_4g_release/opensource/component_code/vendor/huawei/extra/build/build_script/kirin_kernel_release/kernel/block/hisi-blk-core.c:607:35
	strb	wzr, [x0, #1544]
.Ltmp302:
	//DEBUG_VALUE: hisi_blk_dev_lld_init:type <- 0
	//DEBUG_VALUE: hisi_blk_dev_lld_init:data <- $x19
	//DEBUG_VALUE: hisi_blk_dev_lld_init:blk_lld <- [DW_OP_plus_uconst 1800, DW_OP_stack_value] $x19
	.loc	2 582 22                // /mnt/ssddisk/jslave/ci/workspace/chipset_WLZ_4g_release/opensource/component_code/vendor/huawei/extra/build/build_script/kirin_kernel_release/kernel/block/hisi-blk-core.c:582:22
	str	x9, [x0, #1800]
	.loc	2 584 16                // /mnt/ssddisk/jslave/ci/workspace/chipset_WLZ_4g_release/opensource/component_code/vendor/huawei/extra/build/build_script/kirin_kernel_release/kernel/block/hisi-blk-core.c:584:16
	str	x0, [x0, #1808]
	.loc	2 585 2                 // /mnt/ssddisk/jslave/ci/workspace/chipset_WLZ_4g_release/opensource/component_code/vendor/huawei/extra/build/build_script/kirin_kernel_release/kernel/block/hisi-blk-core.c:585:2
	mov	x0, x20
	bl	hisi_blk_busy_idle_state_init
.Ltmp303:
	.loc	2 586 15                // /mnt/ssddisk/jslave/ci/workspace/chipset_WLZ_4g_release/opensource/component_code/vendor/huawei/extra/build/build_script/kirin_kernel_release/kernel/block/hisi-blk-core.c:586:15
	ldr	x8, [x19, #1824]
.Ltmp304:
	.loc	2 586 6 is_stmt 0       // /mnt/ssddisk/jslave/ci/workspace/chipset_WLZ_4g_release/opensource/component_code/vendor/huawei/extra/build/build_script/kirin_kernel_release/kernel/block/hisi-blk-core.c:586:6
	tbz	w8, #6, .LBB30_2
.Ltmp305:
// %bb.1:
	//DEBUG_VALUE: hisi_blk_dev_lld_init:blk_lld <- [DW_OP_plus_uconst 1800, DW_OP_stack_value] $x19
	//DEBUG_VALUE: hisi_blk_dev_lld_init:data <- $x19
	//DEBUG_VALUE: hisi_blk_allocated_queue_init:q <- $x19
	.loc	2 0 6                   // /mnt/ssddisk/jslave/ci/workspace/chipset_WLZ_4g_release/opensource/component_code/vendor/huawei/extra/build/build_script/kirin_kernel_release/kernel/block/hisi-blk-core.c:0:6
	orr	w9, wzr, #0x1
.Ltmp306:
	.loc	2 587 39 is_stmt 1      // /mnt/ssddisk/jslave/ci/workspace/chipset_WLZ_4g_release/opensource/component_code/vendor/huawei/extra/build/build_script/kirin_kernel_release/kernel/block/hisi-blk-core.c:587:39
	strb	w9, [x20]
.Ltmp307:
.LBB30_2:
	//DEBUG_VALUE: hisi_blk_dev_lld_init:blk_lld <- [DW_OP_plus_uconst 1800, DW_OP_stack_value] $x19
	//DEBUG_VALUE: hisi_blk_dev_lld_init:data <- $x19
	//DEBUG_VALUE: hisi_blk_allocated_queue_init:q <- $x19
	.loc	2 589 24                // /mnt/ssddisk/jslave/ci/workspace/chipset_WLZ_4g_release/opensource/component_code/vendor/huawei/extra/build/build_script/kirin_kernel_release/kernel/block/hisi-blk-core.c:589:24
	orr	x8, x8, #0x80
	str	x8, [x19, #1824]
.Ltmp308:
	.loc	2 609 1                 // /mnt/ssddisk/jslave/ci/workspace/chipset_WLZ_4g_release/opensource/component_code/vendor/huawei/extra/build/build_script/kirin_kernel_release/kernel/block/hisi-blk-core.c:609:1
	ldp	x29, x30, [sp, #16]     // 16-byte Folded Reload
	ldp	x20, x19, [sp], #32     // 16-byte Folded Reload
.Ltmp309:
	ret
.Ltmp310:
.Lfunc_end30:
	.size	hisi_blk_allocated_queue_init, .Lfunc_end30-hisi_blk_allocated_queue_init
	.cfi_endproc
                                        // -- End function
	.section	.text.hisi_blk_sq_init_allocated_queue,"ax",@progbits
	.hidden	hisi_blk_sq_init_allocated_queue // -- Begin function hisi_blk_sq_init_allocated_queue
	.globl	hisi_blk_sq_init_allocated_queue
	.p2align	2
	.type	hisi_blk_sq_init_allocated_queue,@function
hisi_blk_sq_init_allocated_queue:       // @hisi_blk_sq_init_allocated_queue
.Lfunc_begin31:
	.loc	2 623 0                 // /mnt/ssddisk/jslave/ci/workspace/chipset_WLZ_4g_release/opensource/component_code/vendor/huawei/extra/build/build_script/kirin_kernel_release/kernel/block/hisi-blk-core.c:623:0
	.cfi_startproc
// %bb.0:
	str	x19, [sp, #-32]!        // 8-byte Folded Spill
	stp	x29, x30, [sp, #16]     // 16-byte Folded Spill
	add	x29, sp, #16            // =16
	.cfi_def_cfa w29, 16
	.cfi_offset w30, -8
	.cfi_offset w29, -16
	.cfi_offset w19, -32
	//DEBUG_VALUE: hisi_blk_sq_init_allocated_queue:q <- $x0
.Ltmp311:
	//DEBUG_VALUE: hisi_blk_queue_init_common:q <- $x0
	//DEBUG_VALUE: hisi_blk_io_speed_adj_init:q <- $x0
	mov	x19, x0
.Ltmp312:
	//DEBUG_VALUE: hisi_blk_queue_init_common:q <- $x19
	//DEBUG_VALUE: hisi_blk_sq_init_allocated_queue:q <- $x19
	.loc	2 613 2 prologue_end    // /mnt/ssddisk/jslave/ci/workspace/chipset_WLZ_4g_release/opensource/component_code/vendor/huawei/extra/build/build_script/kirin_kernel_release/kernel/block/hisi-blk-core.c:613:2
	bl	hisi_blk_dump_register_queue
.Ltmp313:
	.loc	2 614 2                 // /mnt/ssddisk/jslave/ci/workspace/chipset_WLZ_4g_release/opensource/component_code/vendor/huawei/extra/build/build_script/kirin_kernel_release/kernel/block/hisi-blk-core.c:614:2
	mov	x0, x19
	bl	hisi_blk_queue_latency_init
	.loc	2 615 2                 // /mnt/ssddisk/jslave/ci/workspace/chipset_WLZ_4g_release/opensource/component_code/vendor/huawei/extra/build/build_script/kirin_kernel_release/kernel/block/hisi-blk-core.c:615:2
	mov	x0, x19
	bl	hisi_blk_queue_async_flush_init
.Ltmp314:
	//DEBUG_VALUE: hisi_blk_io_speed_adj_init:q <- $x19
	.loc	2 311 2                 // /mnt/ssddisk/jslave/ci/workspace/chipset_WLZ_4g_release/opensource/component_code/vendor/huawei/extra/build/build_script/kirin_kernel_release/kernel/block/hisi-blk-core.c:311:2
	add	x0, x19, #1736          // =1736
	mov	w1, wzr
	mov	x2, xzr
	mov	x3, xzr
	.loc	2 308 21                // /mnt/ssddisk/jslave/ci/workspace/chipset_WLZ_4g_release/opensource/component_code/vendor/huawei/extra/build/build_script/kirin_kernel_release/kernel/block/hisi-blk-core.c:308:21
	str	xzr, [x19, #1728]
	str	xzr, [x19, #1720]
	str	xzr, [x19, #1712]
	str	xzr, [x19, #1704]
	.loc	2 311 2                 // /mnt/ssddisk/jslave/ci/workspace/chipset_WLZ_4g_release/opensource/component_code/vendor/huawei/extra/build/build_script/kirin_kernel_release/kernel/block/hisi-blk-core.c:311:2
	bl	init_timer_key
	.loc	2 312 53                // /mnt/ssddisk/jslave/ci/workspace/chipset_WLZ_4g_release/opensource/component_code/vendor/huawei/extra/build/build_script/kirin_kernel_release/kernel/block/hisi-blk-core.c:312:53
	adrp	x8, _cfi_hisi_blk_queue_usr_ctrl_recovery_timer_expire
	add	x8, x8, :lo12:_cfi_hisi_blk_queue_usr_ctrl_recovery_timer_expire
	str	x8, [x19, #1760]
	.loc	2 314 49                // /mnt/ssddisk/jslave/ci/workspace/chipset_WLZ_4g_release/opensource/component_code/vendor/huawei/extra/build/build_script/kirin_kernel_release/kernel/block/hisi-blk-core.c:314:49
	str	x19, [x19, #1768]
.Ltmp315:
	.loc	2 625 1                 // /mnt/ssddisk/jslave/ci/workspace/chipset_WLZ_4g_release/opensource/component_code/vendor/huawei/extra/build/build_script/kirin_kernel_release/kernel/block/hisi-blk-core.c:625:1
	ldp	x29, x30, [sp, #16]     // 16-byte Folded Reload
	ldr	x19, [sp], #32          // 8-byte Folded Reload
.Ltmp316:
	ret
.Ltmp317:
.Lfunc_end31:
	.size	hisi_blk_sq_init_allocated_queue, .Lfunc_end31-hisi_blk_sq_init_allocated_queue
	.cfi_endproc
                                        // -- End function
	.section	.text.hisi_blk_mq_init_allocated_queue,"ax",@progbits
	.hidden	hisi_blk_mq_init_allocated_queue // -- Begin function hisi_blk_mq_init_allocated_queue
	.globl	hisi_blk_mq_init_allocated_queue
	.p2align	2
	.type	hisi_blk_mq_init_allocated_queue,@function
hisi_blk_mq_init_allocated_queue:       // @hisi_blk_mq_init_allocated_queue
.Lfunc_begin32:
	.loc	2 631 0                 // /mnt/ssddisk/jslave/ci/workspace/chipset_WLZ_4g_release/opensource/component_code/vendor/huawei/extra/build/build_script/kirin_kernel_release/kernel/block/hisi-blk-core.c:631:0
	.cfi_startproc
// %bb.0:
	str	x19, [sp, #-32]!        // 8-byte Folded Spill
	stp	x29, x30, [sp, #16]     // 16-byte Folded Spill
	add	x29, sp, #16            // =16
	.cfi_def_cfa w29, 16
	.cfi_offset w30, -8
	.cfi_offset w29, -16
	.cfi_offset w19, -32
	//DEBUG_VALUE: hisi_blk_mq_init_allocated_queue:q <- $x0
.Ltmp318:
	//DEBUG_VALUE: hisi_blk_queue_init_common:q <- $x0
	//DEBUG_VALUE: hisi_blk_io_speed_adj_init:q <- $x0
	mov	x19, x0
.Ltmp319:
	//DEBUG_VALUE: hisi_blk_queue_init_common:q <- $x19
	//DEBUG_VALUE: hisi_blk_mq_init_allocated_queue:q <- $x19
	.loc	2 613 2 prologue_end    // /mnt/ssddisk/jslave/ci/workspace/chipset_WLZ_4g_release/opensource/component_code/vendor/huawei/extra/build/build_script/kirin_kernel_release/kernel/block/hisi-blk-core.c:613:2
	bl	hisi_blk_dump_register_queue
.Ltmp320:
	.loc	2 614 2                 // /mnt/ssddisk/jslave/ci/workspace/chipset_WLZ_4g_release/opensource/component_code/vendor/huawei/extra/build/build_script/kirin_kernel_release/kernel/block/hisi-blk-core.c:614:2
	mov	x0, x19
	bl	hisi_blk_queue_latency_init
	.loc	2 615 2                 // /mnt/ssddisk/jslave/ci/workspace/chipset_WLZ_4g_release/opensource/component_code/vendor/huawei/extra/build/build_script/kirin_kernel_release/kernel/block/hisi-blk-core.c:615:2
	mov	x0, x19
	bl	hisi_blk_queue_async_flush_init
.Ltmp321:
	//DEBUG_VALUE: hisi_blk_io_speed_adj_init:q <- $x19
	.loc	2 311 2                 // /mnt/ssddisk/jslave/ci/workspace/chipset_WLZ_4g_release/opensource/component_code/vendor/huawei/extra/build/build_script/kirin_kernel_release/kernel/block/hisi-blk-core.c:311:2
	add	x0, x19, #1736          // =1736
	mov	w1, wzr
	mov	x2, xzr
	mov	x3, xzr
	.loc	2 308 21                // /mnt/ssddisk/jslave/ci/workspace/chipset_WLZ_4g_release/opensource/component_code/vendor/huawei/extra/build/build_script/kirin_kernel_release/kernel/block/hisi-blk-core.c:308:21
	str	xzr, [x19, #1728]
	str	xzr, [x19, #1720]
	str	xzr, [x19, #1712]
	str	xzr, [x19, #1704]
	.loc	2 311 2                 // /mnt/ssddisk/jslave/ci/workspace/chipset_WLZ_4g_release/opensource/component_code/vendor/huawei/extra/build/build_script/kirin_kernel_release/kernel/block/hisi-blk-core.c:311:2
	bl	init_timer_key
.Ltmp322:
	.loc	2 634 26                // /mnt/ssddisk/jslave/ci/workspace/chipset_WLZ_4g_release/opensource/component_code/vendor/huawei/extra/build/build_script/kirin_kernel_release/kernel/block/hisi-blk-core.c:634:26
	ldr	x8, [x19, #3296]
.Ltmp323:
	.loc	2 312 53                // /mnt/ssddisk/jslave/ci/workspace/chipset_WLZ_4g_release/opensource/component_code/vendor/huawei/extra/build/build_script/kirin_kernel_release/kernel/block/hisi-blk-core.c:312:53
	adrp	x9, _cfi_hisi_blk_queue_usr_ctrl_recovery_timer_expire
	add	x9, x9, :lo12:_cfi_hisi_blk_queue_usr_ctrl_recovery_timer_expire
	//DEBUG_VALUE: hisi_blk_io_speed_adj_init:q <- $x19
	//DEBUG_VALUE: hisi_blk_queue_init_common:q <- $x19
	str	x9, [x19, #1760]
	.loc	2 314 49                // /mnt/ssddisk/jslave/ci/workspace/chipset_WLZ_4g_release/opensource/component_code/vendor/huawei/extra/build/build_script/kirin_kernel_release/kernel/block/hisi-blk-core.c:314:49
	str	x19, [x19, #1768]
.Ltmp324:
	.loc	2 634 34                // /mnt/ssddisk/jslave/ci/workspace/chipset_WLZ_4g_release/opensource/component_code/vendor/huawei/extra/build/build_script/kirin_kernel_release/kernel/block/hisi-blk-core.c:634:34
	cbz	x8, .LBB32_6
.Ltmp325:
// %bb.1:
	//DEBUG_VALUE: hisi_blk_mq_init_allocated_queue:q <- $x19
	.loc	2 634 49 is_stmt 0      // /mnt/ssddisk/jslave/ci/workspace/chipset_WLZ_4g_release/opensource/component_code/vendor/huawei/extra/build/build_script/kirin_kernel_release/kernel/block/hisi-blk-core.c:634:49
	ldr	x8, [x8, #944]
	.loc	2 634 22                // /mnt/ssddisk/jslave/ci/workspace/chipset_WLZ_4g_release/opensource/component_code/vendor/huawei/extra/build/build_script/kirin_kernel_release/kernel/block/hisi-blk-core.c:634:22
	cbz	x8, .LBB32_6
.Ltmp326:
// %bb.2:
	//DEBUG_VALUE: hisi_blk_mq_init_allocated_queue:q <- $x19
	.loc	2 635 40 is_stmt 1      // /mnt/ssddisk/jslave/ci/workspace/chipset_WLZ_4g_release/opensource/component_code/vendor/huawei/extra/build/build_script/kirin_kernel_release/kernel/block/hisi-blk-core.c:635:40
	ldr	x8, [x8, #24]
	.loc	2 634 20                // /mnt/ssddisk/jslave/ci/workspace/chipset_WLZ_4g_release/opensource/component_code/vendor/huawei/extra/build/build_script/kirin_kernel_release/kernel/block/hisi-blk-core.c:634:20
	str	x8, [x19, #1792]
.Ltmp327:
	.loc	2 637 24                // /mnt/ssddisk/jslave/ci/workspace/chipset_WLZ_4g_release/opensource/component_code/vendor/huawei/extra/build/build_script/kirin_kernel_release/kernel/block/hisi-blk-core.c:637:24
	cbz	x8, .LBB32_7
.Ltmp328:
// %bb.3:
	//DEBUG_VALUE: hisi_blk_mq_init_allocated_queue:q <- $x19
	.loc	2 637 46 is_stmt 0      // /mnt/ssddisk/jslave/ci/workspace/chipset_WLZ_4g_release/opensource/component_code/vendor/huawei/extra/build/build_script/kirin_kernel_release/kernel/block/hisi-blk-core.c:637:46
	ldr	x8, [x8, #8]
.Ltmp329:
	.loc	2 637 6                 // /mnt/ssddisk/jslave/ci/workspace/chipset_WLZ_4g_release/opensource/component_code/vendor/huawei/extra/build/build_script/kirin_kernel_release/kernel/block/hisi-blk-core.c:637:6
	cbz	x8, .LBB32_7
.Ltmp330:
// %bb.4:
	//DEBUG_VALUE: hisi_blk_mq_init_allocated_queue:q <- $x19
	.loc	2 638 13 is_stmt 1      // /mnt/ssddisk/jslave/ci/workspace/chipset_WLZ_4g_release/opensource/component_code/vendor/huawei/extra/build/build_script/kirin_kernel_release/kernel/block/hisi-blk-core.c:638:13
	mov	x0, x19
	blr	x8
	.loc	2 639 7                 // /mnt/ssddisk/jslave/ci/workspace/chipset_WLZ_4g_release/opensource/component_code/vendor/huawei/extra/build/build_script/kirin_kernel_release/kernel/block/hisi-blk-core.c:639:7
	cbz	w0, .LBB32_7
.Ltmp331:
// %bb.5:
	//DEBUG_VALUE: hisi_blk_mq_init_allocated_queue:q <- $x19
	.loc	2 0 0 is_stmt 0         // /mnt/ssddisk/jslave/ci/workspace/chipset_WLZ_4g_release/opensource/component_code/vendor/huawei/extra/build/build_script/kirin_kernel_release/kernel/block/hisi-blk-core.c:0:0
	mov	w2, w0
.Ltmp332:
	//DEBUG_VALUE: ret <- $w2
	.loc	2 640 4 is_stmt 1       // /mnt/ssddisk/jslave/ci/workspace/chipset_WLZ_4g_release/opensource/component_code/vendor/huawei/extra/build/build_script/kirin_kernel_release/kernel/block/hisi-blk-core.c:640:4
	adrp	x0, .L.str.1
	adrp	x1, .L__func__.hisi_blk_mq_init_allocated_queue
	add	x0, x0, :lo12:.L.str.1
	add	x1, x1, :lo12:.L__func__.hisi_blk_mq_init_allocated_queue
	bl	printk
.Ltmp333:
	.loc	2 0 4 is_stmt 0         // /mnt/ssddisk/jslave/ci/workspace/chipset_WLZ_4g_release/opensource/component_code/vendor/huawei/extra/build/build_script/kirin_kernel_release/kernel/block/hisi-blk-core.c:0:4
	b	.LBB32_7
.Ltmp334:
.LBB32_6:
	//DEBUG_VALUE: hisi_blk_mq_init_allocated_queue:q <- $x19
	.loc	2 634 20 is_stmt 1      // /mnt/ssddisk/jslave/ci/workspace/chipset_WLZ_4g_release/opensource/component_code/vendor/huawei/extra/build/build_script/kirin_kernel_release/kernel/block/hisi-blk-core.c:634:20
	str	xzr, [x19, #1792]
.Ltmp335:
.LBB32_7:
	//DEBUG_VALUE: hisi_blk_mq_init_allocated_queue:q <- $x19
	.loc	2 647 1                 // /mnt/ssddisk/jslave/ci/workspace/chipset_WLZ_4g_release/opensource/component_code/vendor/huawei/extra/build/build_script/kirin_kernel_release/kernel/block/hisi-blk-core.c:647:1
	ldp	x29, x30, [sp, #16]     // 16-byte Folded Reload
	ldr	x19, [sp], #32          // 8-byte Folded Reload
.Ltmp336:
	ret
.Ltmp337:
.Lfunc_end32:
	.size	hisi_blk_mq_init_allocated_queue, .Lfunc_end32-hisi_blk_mq_init_allocated_queue
	.cfi_endproc
                                        // -- End function
	.section	.text.hisi_blk_mq_free_queue,"ax",@progbits
	.hidden	hisi_blk_mq_free_queue  // -- Begin function hisi_blk_mq_free_queue
	.globl	hisi_blk_mq_free_queue
	.p2align	2
	.type	hisi_blk_mq_free_queue,@function
hisi_blk_mq_free_queue:                 // @hisi_blk_mq_free_queue
.Lfunc_begin33:
	.loc	2 653 0                 // /mnt/ssddisk/jslave/ci/workspace/chipset_WLZ_4g_release/opensource/component_code/vendor/huawei/extra/build/build_script/kirin_kernel_release/kernel/block/hisi-blk-core.c:653:0
	.cfi_startproc
// %bb.0:
	stp	x29, x30, [sp, #-16]!   // 16-byte Folded Spill
	mov	x29, sp
	.cfi_def_cfa w29, 16
	.cfi_offset w30, -8
	.cfi_offset w29, -16
	//DEBUG_VALUE: hisi_blk_mq_free_queue:q <- $x0
	//DEBUG_VALUE: hisi_blk_mq_free_queue:q <- $x0
.Ltmp338:
	.loc	2 654 9 prologue_end    // /mnt/ssddisk/jslave/ci/workspace/chipset_WLZ_4g_release/opensource/component_code/vendor/huawei/extra/build/build_script/kirin_kernel_release/kernel/block/hisi-blk-core.c:654:9
	ldr	x8, [x0, #1792]
	.loc	2 654 24 is_stmt 0      // /mnt/ssddisk/jslave/ci/workspace/chipset_WLZ_4g_release/opensource/component_code/vendor/huawei/extra/build/build_script/kirin_kernel_release/kernel/block/hisi-blk-core.c:654:24
	cbz	x8, .LBB33_3
.Ltmp339:
// %bb.1:
	//DEBUG_VALUE: hisi_blk_mq_free_queue:q <- $x0
	.loc	2 654 46                // /mnt/ssddisk/jslave/ci/workspace/chipset_WLZ_4g_release/opensource/component_code/vendor/huawei/extra/build/build_script/kirin_kernel_release/kernel/block/hisi-blk-core.c:654:46
	ldr	x8, [x8, #16]
.Ltmp340:
	.loc	2 654 6                 // /mnt/ssddisk/jslave/ci/workspace/chipset_WLZ_4g_release/opensource/component_code/vendor/huawei/extra/build/build_script/kirin_kernel_release/kernel/block/hisi-blk-core.c:654:6
	cbz	x8, .LBB33_3
.Ltmp341:
// %bb.2:
	//DEBUG_VALUE: hisi_blk_mq_free_queue:q <- $x0
	.loc	2 655 13 is_stmt 1      // /mnt/ssddisk/jslave/ci/workspace/chipset_WLZ_4g_release/opensource/component_code/vendor/huawei/extra/build/build_script/kirin_kernel_release/kernel/block/hisi-blk-core.c:655:13
	blr	x8
.Ltmp342:
	.loc	2 656 7                 // /mnt/ssddisk/jslave/ci/workspace/chipset_WLZ_4g_release/opensource/component_code/vendor/huawei/extra/build/build_script/kirin_kernel_release/kernel/block/hisi-blk-core.c:656:7
	cbnz	w0, .LBB33_4
.Ltmp343:
.LBB33_3:
	.loc	2 664 1                 // /mnt/ssddisk/jslave/ci/workspace/chipset_WLZ_4g_release/opensource/component_code/vendor/huawei/extra/build/build_script/kirin_kernel_release/kernel/block/hisi-blk-core.c:664:1
	ldp	x29, x30, [sp], #16     // 16-byte Folded Reload
	ret
.LBB33_4:
.Ltmp344:
	.loc	2 0 0 is_stmt 0         // /mnt/ssddisk/jslave/ci/workspace/chipset_WLZ_4g_release/opensource/component_code/vendor/huawei/extra/build/build_script/kirin_kernel_release/kernel/block/hisi-blk-core.c:0:0
	mov	w2, w0
.Ltmp345:
	//DEBUG_VALUE: ret <- $w2
	.loc	2 657 4 is_stmt 1       // /mnt/ssddisk/jslave/ci/workspace/chipset_WLZ_4g_release/opensource/component_code/vendor/huawei/extra/build/build_script/kirin_kernel_release/kernel/block/hisi-blk-core.c:657:4
	adrp	x0, .L.str.2
	adrp	x1, .L__func__.hisi_blk_mq_free_queue
	add	x0, x0, :lo12:.L.str.2
	add	x1, x1, :lo12:.L__func__.hisi_blk_mq_free_queue
	bl	printk
.Ltmp346:
	.loc	2 664 1                 // /mnt/ssddisk/jslave/ci/workspace/chipset_WLZ_4g_release/opensource/component_code/vendor/huawei/extra/build/build_script/kirin_kernel_release/kernel/block/hisi-blk-core.c:664:1
	ldp	x29, x30, [sp], #16     // 16-byte Folded Reload
	ret
.Ltmp347:
.Lfunc_end33:
	.size	hisi_blk_mq_free_queue, .Lfunc_end33-hisi_blk_mq_free_queue
	.cfi_endproc
                                        // -- End function
	.section	.text.hisi_blk_cleanup_queue,"ax",@progbits
	.hidden	hisi_blk_cleanup_queue  // -- Begin function hisi_blk_cleanup_queue
	.globl	hisi_blk_cleanup_queue
	.p2align	2
	.type	hisi_blk_cleanup_queue,@function
hisi_blk_cleanup_queue:                 // @hisi_blk_cleanup_queue
.Lfunc_begin34:
	.loc	2 670 0                 // /mnt/ssddisk/jslave/ci/workspace/chipset_WLZ_4g_release/opensource/component_code/vendor/huawei/extra/build/build_script/kirin_kernel_release/kernel/block/hisi-blk-core.c:670:0
	.cfi_startproc
// %bb.0:
	str	x19, [sp, #-32]!        // 8-byte Folded Spill
	stp	x29, x30, [sp, #16]     // 16-byte Folded Spill
	add	x29, sp, #16            // =16
	.cfi_def_cfa w29, 16
	.cfi_offset w30, -8
	.cfi_offset w29, -16
	.cfi_offset w19, -32
	//DEBUG_VALUE: hisi_blk_cleanup_queue:q <- $x0
.Ltmp348:
	//DEBUG_VALUE: hisi_blk_io_speed_adj_deinit:q <- $x0
	mov	x19, x0
.Ltmp349:
	//DEBUG_VALUE: hisi_blk_cleanup_queue:q <- $x19
	.loc	2 671 2 prologue_end    // /mnt/ssddisk/jslave/ci/workspace/chipset_WLZ_4g_release/opensource/component_code/vendor/huawei/extra/build/build_script/kirin_kernel_release/kernel/block/hisi-blk-core.c:671:2
	bl	hisi_blk_dump_unregister_queue
.Ltmp350:
	//DEBUG_VALUE: hisi_blk_io_speed_adj_deinit:q <- $x19
	.loc	2 302 32                // /mnt/ssddisk/jslave/ci/workspace/chipset_WLZ_4g_release/opensource/component_code/vendor/huawei/extra/build/build_script/kirin_kernel_release/kernel/block/hisi-blk-core.c:302:32
	add	x0, x19, #1736          // =1736
	.loc	2 302 2 is_stmt 0       // /mnt/ssddisk/jslave/ci/workspace/chipset_WLZ_4g_release/opensource/component_code/vendor/huawei/extra/build/build_script/kirin_kernel_release/kernel/block/hisi-blk-core.c:302:2
	bl	del_timer_sync
.Ltmp351:
	.loc	2 673 2 is_stmt 1       // /mnt/ssddisk/jslave/ci/workspace/chipset_WLZ_4g_release/opensource/component_code/vendor/huawei/extra/build/build_script/kirin_kernel_release/kernel/block/hisi-blk-core.c:673:2
	mov	x0, x19
	bl	hisi_blk_flush_reduced_queue_unregister
	.loc	2 674 1                 // /mnt/ssddisk/jslave/ci/workspace/chipset_WLZ_4g_release/opensource/component_code/vendor/huawei/extra/build/build_script/kirin_kernel_release/kernel/block/hisi-blk-core.c:674:1
	ldp	x29, x30, [sp, #16]     // 16-byte Folded Reload
	ldr	x19, [sp], #32          // 8-byte Folded Reload
.Ltmp352:
	ret
.Ltmp353:
.Lfunc_end34:
	.size	hisi_blk_cleanup_queue, .Lfunc_end34-hisi_blk_cleanup_queue
	.cfi_endproc
                                        // -- End function
	.section	.text.hisi_blk_allocated_tags_init,"ax",@progbits
	.hidden	hisi_blk_allocated_tags_init // -- Begin function hisi_blk_allocated_tags_init
	.globl	hisi_blk_allocated_tags_init
	.p2align	2
	.type	hisi_blk_allocated_tags_init,@function
hisi_blk_allocated_tags_init:           // @hisi_blk_allocated_tags_init
.Lfunc_begin35:
	.loc	2 680 0                 // /mnt/ssddisk/jslave/ci/workspace/chipset_WLZ_4g_release/opensource/component_code/vendor/huawei/extra/build/build_script/kirin_kernel_release/kernel/block/hisi-blk-core.c:680:0
	.cfi_startproc
// %bb.0:
	stp	x20, x19, [sp, #-32]!   // 16-byte Folded Spill
	stp	x29, x30, [sp, #16]     // 16-byte Folded Spill
	add	x29, sp, #16            // =16
	.cfi_def_cfa w29, 16
	.cfi_offset w30, -8
	.cfi_offset w29, -16
	.cfi_offset w19, -24
	.cfi_offset w20, -32
	//DEBUG_VALUE: hisi_blk_allocated_tags_init:tags <- $x0
.Ltmp354:
	//DEBUG_VALUE: hisi_blk_dev_lld_init:blk_lld <- [DW_OP_plus_uconst 120, DW_OP_stack_value] $x0
	//DEBUG_VALUE: hisi_blk_dev_lld_init:data <- $x0
	.loc	2 681 2 prologue_end    // /mnt/ssddisk/jslave/ci/workspace/chipset_WLZ_4g_release/opensource/component_code/vendor/huawei/extra/build/build_script/kirin_kernel_release/kernel/block/hisi-blk-core.c:681:2
	adrp	x1, .L.str.3
	adrp	x2, hisi_blk_allocated_tags_init.__key
	mov	x19, x0
.Ltmp355:
	//DEBUG_VALUE: hisi_blk_allocated_tags_init:tags <- $x19
	add	x0, x0, #40             // =40
.Ltmp356:
	add	x1, x1, :lo12:.L.str.3
	add	x2, x2, :lo12:hisi_blk_allocated_tags_init.__key
	bl	__mutex_init
.Ltmp357:
	.loc	2 682 24                // /mnt/ssddisk/jslave/ci/workspace/chipset_WLZ_4g_release/opensource/component_code/vendor/huawei/extra/build/build_script/kirin_kernel_release/kernel/block/hisi-blk-core.c:682:24
	add	x8, x19, #104           // =104
.Ltmp358:
	//DEBUG_VALUE: __write_once_size:p <- $x8
	//DEBUG_VALUE: __write_once_size:size <- 8
	//DEBUG_VALUE: __write_once_size:res <- undef
	//DEBUG_VALUE: INIT_LIST_HEAD:list <- $x8
	.loc	2 0 24 is_stmt 0        // /mnt/ssddisk/jslave/ci/workspace/chipset_WLZ_4g_release/opensource/component_code/vendor/huawei/extra/build/build_script/kirin_kernel_release/kernel/block/hisi-blk-core.c:0:24
	add	x0, x19, #136           // =136
	.loc	2 683 2 is_stmt 1       // /mnt/ssddisk/jslave/ci/workspace/chipset_WLZ_4g_release/opensource/component_code/vendor/huawei/extra/build/build_script/kirin_kernel_release/kernel/block/hisi-blk-core.c:683:2
	mov	w2, #912
	mov	w1, wzr
.Ltmp359:
	.loc	137 213 31              // /mnt/ssddisk/jslave/ci/workspace/chipset_WLZ_4g_release/opensource/component_code/vendor/huawei/extra/build/build_script/kirin_kernel_release/kernel/include/linux/compiler.h:213:31
	str	x8, [x19, #104]
.Ltmp360:
	.loc	138 29 13               // /mnt/ssddisk/jslave/ci/workspace/chipset_WLZ_4g_release/opensource/component_code/vendor/huawei/extra/build/build_script/kirin_kernel_release/kernel/include/linux/list.h:29:13
	str	x8, [x19, #112]
.Ltmp361:
	.loc	2 683 2                 // /mnt/ssddisk/jslave/ci/workspace/chipset_WLZ_4g_release/opensource/component_code/vendor/huawei/extra/build/build_script/kirin_kernel_release/kernel/block/hisi-blk-core.c:683:2
	bl	memset
.Ltmp362:
	.loc	2 0 2 is_stmt 0         // /mnt/ssddisk/jslave/ci/workspace/chipset_WLZ_4g_release/opensource/component_code/vendor/huawei/extra/build/build_script/kirin_kernel_release/kernel/block/hisi-blk-core.c:0:2
	mov	x8, #122
.Ltmp363:
	.loc	2 585 42 is_stmt 1      // /mnt/ssddisk/jslave/ci/workspace/chipset_WLZ_4g_release/opensource/component_code/vendor/huawei/extra/build/build_script/kirin_kernel_release/kernel/block/hisi-blk-core.c:585:42
	add	x20, x19, #200          // =200
	movk	x8, #1, lsl #32
.Ltmp364:
	//DEBUG_VALUE: hisi_blk_dev_lld_init:type <- 1
	//DEBUG_VALUE: hisi_blk_dev_lld_init:data <- $x19
	//DEBUG_VALUE: hisi_blk_dev_lld_init:blk_lld <- [DW_OP_plus_uconst 120, DW_OP_stack_value] $x19
	.loc	2 585 2 is_stmt 0       // /mnt/ssddisk/jslave/ci/workspace/chipset_WLZ_4g_release/opensource/component_code/vendor/huawei/extra/build/build_script/kirin_kernel_release/kernel/block/hisi-blk-core.c:585:2
	mov	x0, x20
	.loc	2 582 22 is_stmt 1      // /mnt/ssddisk/jslave/ci/workspace/chipset_WLZ_4g_release/opensource/component_code/vendor/huawei/extra/build/build_script/kirin_kernel_release/kernel/block/hisi-blk-core.c:582:22
	stp	x8, x19, [x19, #120]
	.loc	2 585 2                 // /mnt/ssddisk/jslave/ci/workspace/chipset_WLZ_4g_release/opensource/component_code/vendor/huawei/extra/build/build_script/kirin_kernel_release/kernel/block/hisi-blk-core.c:585:2
	bl	hisi_blk_busy_idle_state_init
.Ltmp365:
	.loc	2 586 15                // /mnt/ssddisk/jslave/ci/workspace/chipset_WLZ_4g_release/opensource/component_code/vendor/huawei/extra/build/build_script/kirin_kernel_release/kernel/block/hisi-blk-core.c:586:15
	ldr	x8, [x19, #144]
.Ltmp366:
	.loc	2 586 6 is_stmt 0       // /mnt/ssddisk/jslave/ci/workspace/chipset_WLZ_4g_release/opensource/component_code/vendor/huawei/extra/build/build_script/kirin_kernel_release/kernel/block/hisi-blk-core.c:586:6
	tbz	w8, #6, .LBB35_2
.Ltmp367:
// %bb.1:
	//DEBUG_VALUE: hisi_blk_dev_lld_init:blk_lld <- [DW_OP_plus_uconst 120, DW_OP_stack_value] $x19
	//DEBUG_VALUE: hisi_blk_dev_lld_init:data <- $x19
	//DEBUG_VALUE: hisi_blk_allocated_tags_init:tags <- $x19
	.loc	2 0 6                   // /mnt/ssddisk/jslave/ci/workspace/chipset_WLZ_4g_release/opensource/component_code/vendor/huawei/extra/build/build_script/kirin_kernel_release/kernel/block/hisi-blk-core.c:0:6
	orr	w9, wzr, #0x1
.Ltmp368:
	.loc	2 587 39 is_stmt 1      // /mnt/ssddisk/jslave/ci/workspace/chipset_WLZ_4g_release/opensource/component_code/vendor/huawei/extra/build/build_script/kirin_kernel_release/kernel/block/hisi-blk-core.c:587:39
	strb	w9, [x20]
.Ltmp369:
.LBB35_2:
	//DEBUG_VALUE: hisi_blk_dev_lld_init:blk_lld <- [DW_OP_plus_uconst 120, DW_OP_stack_value] $x19
	//DEBUG_VALUE: hisi_blk_dev_lld_init:data <- $x19
	//DEBUG_VALUE: hisi_blk_allocated_tags_init:tags <- $x19
	.loc	2 589 24                // /mnt/ssddisk/jslave/ci/workspace/chipset_WLZ_4g_release/opensource/component_code/vendor/huawei/extra/build/build_script/kirin_kernel_release/kernel/block/hisi-blk-core.c:589:24
	orr	x8, x8, #0x80
	str	x8, [x19, #144]
.Ltmp370:
	.loc	2 686 1                 // /mnt/ssddisk/jslave/ci/workspace/chipset_WLZ_4g_release/opensource/component_code/vendor/huawei/extra/build/build_script/kirin_kernel_release/kernel/block/hisi-blk-core.c:686:1
	ldp	x29, x30, [sp, #16]     // 16-byte Folded Reload
	ldp	x20, x19, [sp], #32     // 16-byte Folded Reload
.Ltmp371:
	ret
.Ltmp372:
.Lfunc_end35:
	.size	hisi_blk_allocated_tags_init, .Lfunc_end35-hisi_blk_allocated_tags_init
	.cfi_endproc
                                        // -- End function
	.section	.text.blk_add_queue_tags,"ax",@progbits
	.hidden	blk_add_queue_tags      // -- Begin function blk_add_queue_tags
	.globl	blk_add_queue_tags
	.p2align	2
	.type	blk_add_queue_tags,@function
blk_add_queue_tags:                     // @blk_add_queue_tags
.Lfunc_begin36:
	.loc	2 692 0                 // /mnt/ssddisk/jslave/ci/workspace/chipset_WLZ_4g_release/opensource/component_code/vendor/huawei/extra/build/build_script/kirin_kernel_release/kernel/block/hisi-blk-core.c:692:0
	.cfi_startproc
// %bb.0:
	str	x21, [sp, #-48]!        // 8-byte Folded Spill
	stp	x20, x19, [sp, #16]     // 16-byte Folded Spill
	stp	x29, x30, [sp, #32]     // 16-byte Folded Spill
	add	x29, sp, #32            // =32
	.cfi_def_cfa w29, 16
	.cfi_offset w30, -8
	.cfi_offset w29, -16
	.cfi_offset w19, -24
	.cfi_offset w20, -32
	.cfi_offset w21, -48
	//DEBUG_VALUE: blk_add_queue_tags:tags <- $x0
	//DEBUG_VALUE: blk_add_queue_tags:q <- $x1
.Ltmp373:
	.loc	2 693 20 prologue_end   // /mnt/ssddisk/jslave/ci/workspace/chipset_WLZ_4g_release/opensource/component_code/vendor/huawei/extra/build/build_script/kirin_kernel_release/kernel/block/hisi-blk-core.c:693:20
	add	x21, x0, #40            // =40
	mov	x20, x0
.Ltmp374:
	//DEBUG_VALUE: blk_add_queue_tags:q <- $x19
	//DEBUG_VALUE: blk_add_queue_tags:tags <- $x20
	.loc	2 693 2 is_stmt 0       // /mnt/ssddisk/jslave/ci/workspace/chipset_WLZ_4g_release/opensource/component_code/vendor/huawei/extra/build/build_script/kirin_kernel_release/kernel/block/hisi-blk-core.c:693:2
	mov	x0, x21
	mov	x19, x1
.Ltmp375:
	bl	mutex_lock
.Ltmp376:
	.loc	138 93 24 is_stmt 1     // /mnt/ssddisk/jslave/ci/workspace/chipset_WLZ_4g_release/opensource/component_code/vendor/huawei/extra/build/build_script/kirin_kernel_release/kernel/include/linux/list.h:93:24
	ldr	x9, [x20, #112]
.Ltmp377:
	.loc	2 694 20                // /mnt/ssddisk/jslave/ci/workspace/chipset_WLZ_4g_release/opensource/component_code/vendor/huawei/extra/build/build_script/kirin_kernel_release/kernel/block/hisi-blk-core.c:694:20
	add	x8, x19, #3304          // =3304
.Ltmp378:
	//DEBUG_VALUE: list_add_tail:new <- $x8
	.loc	2 694 41 is_stmt 0      // /mnt/ssddisk/jslave/ci/workspace/chipset_WLZ_4g_release/opensource/component_code/vendor/huawei/extra/build/build_script/kirin_kernel_release/kernel/block/hisi-blk-core.c:694:41
	add	x10, x20, #104          // =104
.Ltmp379:
	//DEBUG_VALUE: list_add_tail:head <- $x10
	//DEBUG_VALUE: __list_add:next <- $x10
	//DEBUG_VALUE: __list_add:prev <- $x9
	//DEBUG_VALUE: __list_add:new <- $x8
	.loc	2 695 2 is_stmt 1       // /mnt/ssddisk/jslave/ci/workspace/chipset_WLZ_4g_release/opensource/component_code/vendor/huawei/extra/build/build_script/kirin_kernel_release/kernel/block/hisi-blk-core.c:695:2
	mov	x0, x21
.Ltmp380:
	.loc	138 63 13               // /mnt/ssddisk/jslave/ci/workspace/chipset_WLZ_4g_release/opensource/component_code/vendor/huawei/extra/build/build_script/kirin_kernel_release/kernel/include/linux/list.h:63:13
	str	x8, [x20, #112]
	//DEBUG_VALUE: list_add_tail:new <- $x8
	.loc	138 64 12               // /mnt/ssddisk/jslave/ci/workspace/chipset_WLZ_4g_release/opensource/component_code/vendor/huawei/extra/build/build_script/kirin_kernel_release/kernel/include/linux/list.h:64:12
	str	x10, [x19, #3304]
	.loc	138 65 12               // /mnt/ssddisk/jslave/ci/workspace/chipset_WLZ_4g_release/opensource/component_code/vendor/huawei/extra/build/build_script/kirin_kernel_release/kernel/include/linux/list.h:65:12
	str	x9, [x19, #3312]
.Ltmp381:
	//DEBUG_VALUE: __write_once_size:p <- $x9
	//DEBUG_VALUE: __write_once_size:size <- 8
	//DEBUG_VALUE: __write_once_size:res <- undef
	.loc	137 213 31              // /mnt/ssddisk/jslave/ci/workspace/chipset_WLZ_4g_release/opensource/component_code/vendor/huawei/extra/build/build_script/kirin_kernel_release/kernel/include/linux/compiler.h:213:31
	str	x8, [x9]
.Ltmp382:
	.loc	2 695 2                 // /mnt/ssddisk/jslave/ci/workspace/chipset_WLZ_4g_release/opensource/component_code/vendor/huawei/extra/build/build_script/kirin_kernel_release/kernel/block/hisi-blk-core.c:695:2
	bl	mutex_unlock
.Ltmp383:
	.loc	2 696 1                 // /mnt/ssddisk/jslave/ci/workspace/chipset_WLZ_4g_release/opensource/component_code/vendor/huawei/extra/build/build_script/kirin_kernel_release/kernel/block/hisi-blk-core.c:696:1
	ldp	x29, x30, [sp, #32]     // 16-byte Folded Reload
	ldp	x20, x19, [sp, #16]     // 16-byte Folded Reload
.Ltmp384:
	ldr	x21, [sp], #48          // 8-byte Folded Reload
	ret
.Ltmp385:
.Lfunc_end36:
	.size	blk_add_queue_tags, .Lfunc_end36-blk_add_queue_tags
	.cfi_endproc
                                        // -- End function
	.section	.text.hisi_blk_mq_allocated_tagset_init,"ax",@progbits
	.hidden	hisi_blk_mq_allocated_tagset_init // -- Begin function hisi_blk_mq_allocated_tagset_init
	.globl	hisi_blk_mq_allocated_tagset_init
	.p2align	2
	.type	hisi_blk_mq_allocated_tagset_init,@function
hisi_blk_mq_allocated_tagset_init:      // @hisi_blk_mq_allocated_tagset_init
.Lfunc_begin37:
	.loc	2 702 0                 // /mnt/ssddisk/jslave/ci/workspace/chipset_WLZ_4g_release/opensource/component_code/vendor/huawei/extra/build/build_script/kirin_kernel_release/kernel/block/hisi-blk-core.c:702:0
	.cfi_startproc
// %bb.0:
	stp	x20, x19, [sp, #-32]!   // 16-byte Folded Spill
	stp	x29, x30, [sp, #16]     // 16-byte Folded Spill
	add	x29, sp, #16            // =16
	.cfi_def_cfa w29, 16
	.cfi_offset w30, -8
	.cfi_offset w29, -16
	.cfi_offset w19, -24
	.cfi_offset w20, -32
	//DEBUG_VALUE: hisi_blk_mq_allocated_tagset_init:set <- $x0
.Ltmp386:
	//DEBUG_VALUE: hisi_blk_dev_lld_init:blk_lld <- [DW_OP_plus_uconst 16, DW_OP_stack_value] $x0
	//DEBUG_VALUE: hisi_blk_dev_lld_init:data <- $x0
	mov	x8, #122
	movk	x8, #2, lsl #32
.Ltmp387:
	//DEBUG_VALUE: hisi_blk_dev_lld_init:type <- 2
	//DEBUG_VALUE: hisi_blk_dev_lld_init:data <- $x19
	//DEBUG_VALUE: hisi_blk_dev_lld_init:blk_lld <- [DW_OP_plus_uconst 16, DW_OP_stack_value] $x19
	//DEBUG_VALUE: hisi_blk_mq_allocated_tagset_init:set <- $x19
	.loc	2 585 42 prologue_end   // /mnt/ssddisk/jslave/ci/workspace/chipset_WLZ_4g_release/opensource/component_code/vendor/huawei/extra/build/build_script/kirin_kernel_release/kernel/block/hisi-blk-core.c:585:42
	add	x20, x0, #96            // =96
	mov	x19, x0
.Ltmp388:
	.loc	2 582 22                // /mnt/ssddisk/jslave/ci/workspace/chipset_WLZ_4g_release/opensource/component_code/vendor/huawei/extra/build/build_script/kirin_kernel_release/kernel/block/hisi-blk-core.c:582:22
	stp	x8, x0, [x0, #16]
	.loc	2 585 2                 // /mnt/ssddisk/jslave/ci/workspace/chipset_WLZ_4g_release/opensource/component_code/vendor/huawei/extra/build/build_script/kirin_kernel_release/kernel/block/hisi-blk-core.c:585:2
	mov	x0, x20
	bl	hisi_blk_busy_idle_state_init
.Ltmp389:
	.loc	2 586 15                // /mnt/ssddisk/jslave/ci/workspace/chipset_WLZ_4g_release/opensource/component_code/vendor/huawei/extra/build/build_script/kirin_kernel_release/kernel/block/hisi-blk-core.c:586:15
	ldr	x8, [x19, #40]
.Ltmp390:
	.loc	2 586 6 is_stmt 0       // /mnt/ssddisk/jslave/ci/workspace/chipset_WLZ_4g_release/opensource/component_code/vendor/huawei/extra/build/build_script/kirin_kernel_release/kernel/block/hisi-blk-core.c:586:6
	tbz	w8, #6, .LBB37_2
// %bb.1:
	.loc	2 0 6                   // /mnt/ssddisk/jslave/ci/workspace/chipset_WLZ_4g_release/opensource/component_code/vendor/huawei/extra/build/build_script/kirin_kernel_release/kernel/block/hisi-blk-core.c:0:6
	orr	w9, wzr, #0x1
.Ltmp391:
	.loc	2 587 39 is_stmt 1      // /mnt/ssddisk/jslave/ci/workspace/chipset_WLZ_4g_release/opensource/component_code/vendor/huawei/extra/build/build_script/kirin_kernel_release/kernel/block/hisi-blk-core.c:587:39
	strb	w9, [x20]
.Ltmp392:
.LBB37_2:
	.loc	2 0 39 is_stmt 0        // /mnt/ssddisk/jslave/ci/workspace/chipset_WLZ_4g_release/opensource/component_code/vendor/huawei/extra/build/build_script/kirin_kernel_release/kernel/block/hisi-blk-core.c:0:39
	adrp	x10, hisi_ufs_blk_tagset_ops
	.loc	2 589 24 is_stmt 1      // /mnt/ssddisk/jslave/ci/workspace/chipset_WLZ_4g_release/opensource/component_code/vendor/huawei/extra/build/build_script/kirin_kernel_release/kernel/block/hisi-blk-core.c:589:24
	orr	x9, x8, #0x80
.Ltmp393:
	.loc	2 708 33                // /mnt/ssddisk/jslave/ci/workspace/chipset_WLZ_4g_release/opensource/component_code/vendor/huawei/extra/build/build_script/kirin_kernel_release/kernel/block/hisi-blk-core.c:708:33
	lsl	x8, x8, #58
	add	x10, x10, :lo12:hisi_ufs_blk_tagset_ops
	and	x8, x10, x8, asr #63
.Ltmp394:
	.loc	2 589 24                // /mnt/ssddisk/jslave/ci/workspace/chipset_WLZ_4g_release/opensource/component_code/vendor/huawei/extra/build/build_script/kirin_kernel_release/kernel/block/hisi-blk-core.c:589:24
	str	x9, [x19, #40]
.Ltmp395:
	.loc	2 0 0 is_stmt 0         // /mnt/ssddisk/jslave/ci/workspace/chipset_WLZ_4g_release/opensource/component_code/vendor/huawei/extra/build/build_script/kirin_kernel_release/kernel/block/hisi-blk-core.c:0:0
	str	x8, [x19, #944]
.Ltmp396:
	.loc	2 713 1 is_stmt 1       // /mnt/ssddisk/jslave/ci/workspace/chipset_WLZ_4g_release/opensource/component_code/vendor/huawei/extra/build/build_script/kirin_kernel_release/kernel/block/hisi-blk-core.c:713:1
	ldp	x29, x30, [sp, #16]     // 16-byte Folded Reload
	ldp	x20, x19, [sp], #32     // 16-byte Folded Reload
	ret
.Ltmp397:
.Lfunc_end37:
	.size	hisi_blk_mq_allocated_tagset_init, .Lfunc_end37-hisi_blk_mq_allocated_tagset_init
	.cfi_endproc
                                        // -- End function
	.section	.text.hisi_blk_queue_register,"ax",@progbits
	.hidden	hisi_blk_queue_register // -- Begin function hisi_blk_queue_register
	.globl	hisi_blk_queue_register
	.p2align	2
	.type	hisi_blk_queue_register,@function
hisi_blk_queue_register:                // @hisi_blk_queue_register
.Lfunc_begin38:
	.loc	2 719 0                 // /mnt/ssddisk/jslave/ci/workspace/chipset_WLZ_4g_release/opensource/component_code/vendor/huawei/extra/build/build_script/kirin_kernel_release/kernel/block/hisi-blk-core.c:719:0
	.cfi_startproc
// %bb.0:
	//DEBUG_VALUE: hisi_blk_queue_register:q <- $x0
	//DEBUG_VALUE: hisi_blk_queue_register:q <- $x0
	//DEBUG_VALUE: hisi_blk_queue_register:disk <- $x1
	//DEBUG_VALUE: hisi_blk_queue_register:disk <- $x1
	.loc	2 720 27 prologue_end   // /mnt/ssddisk/jslave/ci/workspace/chipset_WLZ_4g_release/opensource/component_code/vendor/huawei/extra/build/build_script/kirin_kernel_release/kernel/block/hisi-blk-core.c:720:27
	str	x1, [x0, #1536]
	.loc	2 721 1                 // /mnt/ssddisk/jslave/ci/workspace/chipset_WLZ_4g_release/opensource/component_code/vendor/huawei/extra/build/build_script/kirin_kernel_release/kernel/block/hisi-blk-core.c:721:1
	ret
.Ltmp398:
.Lfunc_end38:
	.size	hisi_blk_queue_register, .Lfunc_end38-hisi_blk_queue_register
	.cfi_endproc
                                        // -- End function
	.section	.init.text,"ax",@progbits
	.hidden	hisi_blk_dev_init       // -- Begin function hisi_blk_dev_init
	.globl	hisi_blk_dev_init
	.p2align	2
	.type	hisi_blk_dev_init,@function
hisi_blk_dev_init:                      // @hisi_blk_dev_init
.Lfunc_begin39:
	.loc	2 727 0                 // /mnt/ssddisk/jslave/ci/workspace/chipset_WLZ_4g_release/opensource/component_code/vendor/huawei/extra/build/build_script/kirin_kernel_release/kernel/block/hisi-blk-core.c:727:0
	.cfi_startproc
// %bb.0:
	stp	x29, x30, [sp, #-16]!   // 16-byte Folded Spill
	mov	x29, sp
	.cfi_def_cfa w29, 16
	.cfi_offset w30, -8
	.cfi_offset w29, -16
.Ltmp399:
	.loc	2 728 2 prologue_end    // /mnt/ssddisk/jslave/ci/workspace/chipset_WLZ_4g_release/opensource/component_code/vendor/huawei/extra/build/build_script/kirin_kernel_release/kernel/block/hisi-blk-core.c:728:2
	bl	hisi_blk_dump_init
	.loc	2 729 2                 // /mnt/ssddisk/jslave/ci/workspace/chipset_WLZ_4g_release/opensource/component_code/vendor/huawei/extra/build/build_script/kirin_kernel_release/kernel/block/hisi-blk-core.c:729:2
	bl	hisi_blk_latency_init
	.loc	2 730 2                 // /mnt/ssddisk/jslave/ci/workspace/chipset_WLZ_4g_release/opensource/component_code/vendor/huawei/extra/build/build_script/kirin_kernel_release/kernel/block/hisi-blk-core.c:730:2
	mov	w0, wzr
	ldp	x29, x30, [sp], #16     // 16-byte Folded Reload
	ret
.Ltmp400:
.Lfunc_end39:
	.size	hisi_blk_dev_init, .Lfunc_end39-hisi_blk_dev_init
	.cfi_endproc
                                        // -- End function
	.section	.text.blk_generic_freeze,"ax",@progbits
	.hidden	blk_generic_freeze      // -- Begin function blk_generic_freeze
	.globl	blk_generic_freeze
	.p2align	2
	.type	blk_generic_freeze,@function
blk_generic_freeze:                     // @blk_generic_freeze
.Lfunc_begin40:
	.loc	2 739 0                 // /mnt/ssddisk/jslave/ci/workspace/chipset_WLZ_4g_release/opensource/component_code/vendor/huawei/extra/build/build_script/kirin_kernel_release/kernel/block/hisi-blk-core.c:739:0
	.cfi_startproc
// %bb.0:
	str	x21, [sp, #-48]!        // 8-byte Folded Spill
	stp	x20, x19, [sp, #16]     // 16-byte Folded Spill
	stp	x29, x30, [sp, #32]     // 16-byte Folded Spill
	add	x29, sp, #32            // =32
	.cfi_def_cfa w29, 16
	.cfi_offset w30, -8
	.cfi_offset w29, -16
	.cfi_offset w19, -24
	.cfi_offset w20, -32
	.cfi_offset w21, -48
	//DEBUG_VALUE: blk_generic_freeze:freeze_obj <- $x0
	//DEBUG_VALUE: blk_generic_freeze:type <- $w1
	//DEBUG_VALUE: blk_generic_freeze:freeze <- $w2
.Ltmp401:
	//DEBUG_VALUE: blk_generic_freeze:q <- $x0
	//DEBUG_VALUE: hisi_blk_freeze_lld:lld <- $x0
	//DEBUG_VALUE: blk_generic_freeze:lld <- $x0
	//DEBUG_VALUE: blk_generic_freeze:lld <- $x0
	//DEBUG_VALUE: hisi_blk_freeze_lld:lld <- $x0
	//DEBUG_VALUE: blk_generic_freeze:q <- $x0
	//DEBUG_VALUE: blk_generic_freeze:type <- $w1
	//DEBUG_VALUE: blk_generic_freeze:freeze_obj <- $x0
	.loc	2 743 6 prologue_end    // /mnt/ssddisk/jslave/ci/workspace/chipset_WLZ_4g_release/opensource/component_code/vendor/huawei/extra/build/build_script/kirin_kernel_release/kernel/block/hisi-blk-core.c:743:6
	cbz	x0, .LBB40_17
.Ltmp402:
// %bb.1:
	//DEBUG_VALUE: blk_generic_freeze:lld <- $x0
	//DEBUG_VALUE: hisi_blk_freeze_lld:lld <- $x0
	//DEBUG_VALUE: blk_generic_freeze:q <- $x0
	//DEBUG_VALUE: blk_generic_freeze:freeze <- $w2
	//DEBUG_VALUE: blk_generic_freeze:type <- $w1
	//DEBUG_VALUE: blk_generic_freeze:freeze_obj <- $x0
	.loc	2 0 6 is_stmt 0         // /mnt/ssddisk/jslave/ci/workspace/chipset_WLZ_4g_release/opensource/component_code/vendor/huawei/extra/build/build_script/kirin_kernel_release/kernel/block/hisi-blk-core.c:0:6
	mov	w19, w2
.Ltmp403:
	//DEBUG_VALUE: blk_generic_freeze:freeze <- $w19
	//DEBUG_VALUE: blk_generic_freeze:freeze <- $w19
	//DEBUG_VALUE: hisi_blk_freeze_lld:freeze <- $w19
	.loc	2 750 2 is_stmt 1       // /mnt/ssddisk/jslave/ci/workspace/chipset_WLZ_4g_release/opensource/component_code/vendor/huawei/extra/build/build_script/kirin_kernel_release/kernel/block/hisi-blk-core.c:750:2
	cmp	w1, #1                  // =1
	b.eq	.LBB40_8
.Ltmp404:
// %bb.2:
	//DEBUG_VALUE: blk_generic_freeze:freeze <- $w19
	//DEBUG_VALUE: blk_generic_freeze:lld <- $x0
	//DEBUG_VALUE: blk_generic_freeze:q <- $x0
	//DEBUG_VALUE: blk_generic_freeze:type <- $w1
	//DEBUG_VALUE: blk_generic_freeze:freeze_obj <- $x0
	cbnz	w1, .LBB40_17
.Ltmp405:
// %bb.3:
	//DEBUG_VALUE: blk_generic_freeze:freeze <- $w19
	//DEBUG_VALUE: blk_generic_freeze:lld <- $x0
	//DEBUG_VALUE: blk_generic_freeze:q <- $x0
	//DEBUG_VALUE: blk_generic_freeze:type <- $w1
	//DEBUG_VALUE: blk_generic_freeze:freeze_obj <- $x0
	.loc	2 56 15                 // /mnt/ssddisk/jslave/ci/workspace/chipset_WLZ_4g_release/opensource/component_code/vendor/huawei/extra/build/build_script/kirin_kernel_release/kernel/block/hisi-blk-core.c:56:15
	ldr	w8, [x0, #4]
	.loc	2 56 2 is_stmt 0        // /mnt/ssddisk/jslave/ci/workspace/chipset_WLZ_4g_release/opensource/component_code/vendor/huawei/extra/build/build_script/kirin_kernel_release/kernel/block/hisi-blk-core.c:56:2
	cmp	w8, #2                  // =2
	b.eq	.LBB40_11
.Ltmp406:
// %bb.4:
	//DEBUG_VALUE: blk_generic_freeze:freeze <- $w19
	//DEBUG_VALUE: blk_generic_freeze:lld <- $x0
	//DEBUG_VALUE: blk_generic_freeze:q <- $x0
	//DEBUG_VALUE: blk_generic_freeze:type <- $w1
	//DEBUG_VALUE: blk_generic_freeze:freeze_obj <- $x0
	cbnz	w8, .LBB40_17
.Ltmp407:
// %bb.5:
	//DEBUG_VALUE: blk_generic_freeze:freeze <- $w19
	//DEBUG_VALUE: blk_generic_freeze:lld <- $x0
	//DEBUG_VALUE: blk_generic_freeze:q <- $x0
	//DEBUG_VALUE: blk_generic_freeze:type <- $w1
	//DEBUG_VALUE: blk_generic_freeze:freeze_obj <- $x0
	.loc	2 58 37 is_stmt 1       // /mnt/ssddisk/jslave/ci/workspace/chipset_WLZ_4g_release/opensource/component_code/vendor/huawei/extra/build/build_script/kirin_kernel_release/kernel/block/hisi-blk-core.c:58:37
	ldr	x0, [x0, #8]
.Ltmp408:
	//DEBUG_VALUE: hisi_blk_freeze_lld:q <- $x0
	.loc	2 59 10                 // /mnt/ssddisk/jslave/ci/workspace/chipset_WLZ_4g_release/opensource/component_code/vendor/huawei/extra/build/build_script/kirin_kernel_release/kernel/block/hisi-blk-core.c:59:10
	ldr	x8, [x0, #312]
.Ltmp409:
	.loc	2 59 7 is_stmt 0        // /mnt/ssddisk/jslave/ci/workspace/chipset_WLZ_4g_release/opensource/component_code/vendor/huawei/extra/build/build_script/kirin_kernel_release/kernel/block/hisi-blk-core.c:59:7
	cbz	x8, .LBB40_17
.Ltmp410:
// %bb.6:
	//DEBUG_VALUE: hisi_blk_freeze_lld:q <- $x0
	//DEBUG_VALUE: blk_generic_freeze:freeze <- $w19
	//DEBUG_VALUE: blk_generic_freeze:type <- $w1
	.loc	2 60 8 is_stmt 1        // /mnt/ssddisk/jslave/ci/workspace/chipset_WLZ_4g_release/opensource/component_code/vendor/huawei/extra/build/build_script/kirin_kernel_release/kernel/block/hisi-blk-core.c:60:8
	tbnz	w19, #0, .LBB40_10
.Ltmp411:
.LBB40_7:
	//DEBUG_VALUE: blk_generic_freeze:freeze <- $w19
	//DEBUG_VALUE: blk_generic_freeze:type <- $w1
	.loc	2 0 0 is_stmt 0         // /mnt/ssddisk/jslave/ci/workspace/chipset_WLZ_4g_release/opensource/component_code/vendor/huawei/extra/build/build_script/kirin_kernel_release/kernel/block/hisi-blk-core.c:0:0
	bl	blk_mq_unfreeze_queue
.Ltmp412:
	b	.LBB40_17
.Ltmp413:
.LBB40_8:
	//DEBUG_VALUE: blk_generic_freeze:freeze <- $w19
	//DEBUG_VALUE: blk_generic_freeze:lld <- $x0
	//DEBUG_VALUE: blk_generic_freeze:q <- $x0
	//DEBUG_VALUE: blk_generic_freeze:type <- $w1
	//DEBUG_VALUE: blk_generic_freeze:freeze_obj <- $x0
	.loc	2 757 10 is_stmt 1      // /mnt/ssddisk/jslave/ci/workspace/chipset_WLZ_4g_release/opensource/component_code/vendor/huawei/extra/build/build_script/kirin_kernel_release/kernel/block/hisi-blk-core.c:757:10
	ldr	x8, [x0, #312]
.Ltmp414:
	.loc	2 757 7 is_stmt 0       // /mnt/ssddisk/jslave/ci/workspace/chipset_WLZ_4g_release/opensource/component_code/vendor/huawei/extra/build/build_script/kirin_kernel_release/kernel/block/hisi-blk-core.c:757:7
	cbz	x8, .LBB40_17
.Ltmp415:
// %bb.9:
	//DEBUG_VALUE: blk_generic_freeze:freeze <- $w19
	//DEBUG_VALUE: blk_generic_freeze:lld <- $x0
	//DEBUG_VALUE: blk_generic_freeze:q <- $x0
	//DEBUG_VALUE: blk_generic_freeze:type <- $w1
	//DEBUG_VALUE: blk_generic_freeze:freeze_obj <- $x0
	.loc	2 758 8 is_stmt 1       // /mnt/ssddisk/jslave/ci/workspace/chipset_WLZ_4g_release/opensource/component_code/vendor/huawei/extra/build/build_script/kirin_kernel_release/kernel/block/hisi-blk-core.c:758:8
	tbz	w19, #0, .LBB40_7
.Ltmp416:
.LBB40_10:
	//DEBUG_VALUE: blk_generic_freeze:freeze <- $w19
	//DEBUG_VALUE: blk_generic_freeze:type <- $w1
	.loc	2 0 0 is_stmt 0         // /mnt/ssddisk/jslave/ci/workspace/chipset_WLZ_4g_release/opensource/component_code/vendor/huawei/extra/build/build_script/kirin_kernel_release/kernel/block/hisi-blk-core.c:0:0
	bl	blk_mq_freeze_queue
.Ltmp417:
	b	.LBB40_17
.Ltmp418:
.LBB40_11:
	//DEBUG_VALUE: blk_generic_freeze:freeze <- $w19
	//DEBUG_VALUE: blk_generic_freeze:lld <- $x0
	//DEBUG_VALUE: blk_generic_freeze:q <- $x0
	//DEBUG_VALUE: blk_generic_freeze:type <- $w1
	//DEBUG_VALUE: blk_generic_freeze:freeze_obj <- $x0
	.loc	2 69 44 is_stmt 1       // /mnt/ssddisk/jslave/ci/workspace/chipset_WLZ_4g_release/opensource/component_code/vendor/huawei/extra/build/build_script/kirin_kernel_release/kernel/block/hisi-blk-core.c:69:44
	ldr	x8, [x0, #8]
.Ltmp419:
	//DEBUG_VALUE: hisi_blk_freeze_lld:tag_set <- $x8
	.loc	2 0 0 is_stmt 0         // /mnt/ssddisk/jslave/ci/workspace/chipset_WLZ_4g_release/opensource/component_code/vendor/huawei/extra/build/build_script/kirin_kernel_release/kernel/block/hisi-blk-core.c:0:0
	ldr	x20, [x8, #1064]
.Ltmp420:
	//DEBUG_VALUE: hisi_blk_freeze_lld:q <- [DW_OP_constu 3304, DW_OP_minus, DW_OP_stack_value] $x20
	.loc	2 70 3 is_stmt 1        // /mnt/ssddisk/jslave/ci/workspace/chipset_WLZ_4g_release/opensource/component_code/vendor/huawei/extra/build/build_script/kirin_kernel_release/kernel/block/hisi-blk-core.c:70:3
	add	x21, x8, #1064          // =1064
.Ltmp421:
	//DEBUG_VALUE: hisi_blk_freeze_lld:q <- [DW_OP_deref, DW_OP_constu 3304, DW_OP_minus, DW_OP_stack_value] $x21
	//DEBUG_VALUE: __mptr <- [DW_OP_deref] $x21
	.loc	2 70 3 is_stmt 0        // /mnt/ssddisk/jslave/ci/workspace/chipset_WLZ_4g_release/opensource/component_code/vendor/huawei/extra/build/build_script/kirin_kernel_release/kernel/block/hisi-blk-core.c:70:3
	cmp	x21, x20
	b.eq	.LBB40_17
.Ltmp422:
.LBB40_12:                              // =>This Inner Loop Header: Depth=1
	//DEBUG_VALUE: hisi_blk_freeze_lld:q <- [DW_OP_deref, DW_OP_constu 3304, DW_OP_minus, DW_OP_stack_value] $x21
	//DEBUG_VALUE: hisi_blk_freeze_lld:tag_set <- $x8
	//DEBUG_VALUE: blk_generic_freeze:freeze <- $w19
	//DEBUG_VALUE: blk_generic_freeze:lld <- $x0
	//DEBUG_VALUE: blk_generic_freeze:q <- $x0
	//DEBUG_VALUE: blk_generic_freeze:type <- $w1
	//DEBUG_VALUE: blk_generic_freeze:freeze_obj <- $x0
	.loc	2 72 11 is_stmt 1       // /mnt/ssddisk/jslave/ci/workspace/chipset_WLZ_4g_release/opensource/component_code/vendor/huawei/extra/build/build_script/kirin_kernel_release/kernel/block/hisi-blk-core.c:72:11
	sub	x8, x20, #2992          // =2992
.Ltmp423:
	ldr	x8, [x8]
.Ltmp424:
	.loc	2 72 8 is_stmt 0        // /mnt/ssddisk/jslave/ci/workspace/chipset_WLZ_4g_release/opensource/component_code/vendor/huawei/extra/build/build_script/kirin_kernel_release/kernel/block/hisi-blk-core.c:72:8
	cbz	x8, .LBB40_16
.Ltmp425:
// %bb.13:                              //   in Loop: Header=BB40_12 Depth=1
	//DEBUG_VALUE: hisi_blk_freeze_lld:q <- [DW_OP_deref, DW_OP_constu 3304, DW_OP_minus, DW_OP_stack_value] $x21
	//DEBUG_VALUE: blk_generic_freeze:freeze <- $w19
	//DEBUG_VALUE: blk_generic_freeze:lld <- $x0
	//DEBUG_VALUE: blk_generic_freeze:q <- $x0
	//DEBUG_VALUE: blk_generic_freeze:type <- $w1
	//DEBUG_VALUE: blk_generic_freeze:freeze_obj <- $x0
	.loc	2 0 0                   // /mnt/ssddisk/jslave/ci/workspace/chipset_WLZ_4g_release/opensource/component_code/vendor/huawei/extra/build/build_script/kirin_kernel_release/kernel/block/hisi-blk-core.c:0:0
	sub	x0, x20, #3304          // =3304
.Ltmp426:
	.loc	2 73 9 is_stmt 1        // /mnt/ssddisk/jslave/ci/workspace/chipset_WLZ_4g_release/opensource/component_code/vendor/huawei/extra/build/build_script/kirin_kernel_release/kernel/block/hisi-blk-core.c:73:9
	tbz	w19, #0, .LBB40_15
.Ltmp427:
// %bb.14:                              //   in Loop: Header=BB40_12 Depth=1
	//DEBUG_VALUE: hisi_blk_freeze_lld:q <- [DW_OP_deref, DW_OP_constu 3304, DW_OP_minus, DW_OP_stack_value] $x21
	//DEBUG_VALUE: blk_generic_freeze:freeze <- $w19
	//DEBUG_VALUE: blk_generic_freeze:type <- $w1
	.loc	2 74 6                  // /mnt/ssddisk/jslave/ci/workspace/chipset_WLZ_4g_release/opensource/component_code/vendor/huawei/extra/build/build_script/kirin_kernel_release/kernel/block/hisi-blk-core.c:74:6
	bl	blk_mq_freeze_queue
.Ltmp428:
	//DEBUG_VALUE: hisi_blk_freeze_lld:q <- [DW_OP_deref, DW_OP_constu 3304, DW_OP_minus, DW_OP_stack_value] $x20
	//DEBUG_VALUE: __mptr <- [DW_OP_deref] $x20
	.loc	2 0 0 is_stmt 0         // /mnt/ssddisk/jslave/ci/workspace/chipset_WLZ_4g_release/opensource/component_code/vendor/huawei/extra/build/build_script/kirin_kernel_release/kernel/block/hisi-blk-core.c:0:0
	ldr	x20, [x20]
.Ltmp429:
	//DEBUG_VALUE: hisi_blk_freeze_lld:q <- [DW_OP_deref, DW_OP_constu 3304, DW_OP_minus, DW_OP_stack_value] $x21
	//DEBUG_VALUE: __mptr <- [DW_OP_deref] $x21
	.loc	2 70 3 is_stmt 1        // /mnt/ssddisk/jslave/ci/workspace/chipset_WLZ_4g_release/opensource/component_code/vendor/huawei/extra/build/build_script/kirin_kernel_release/kernel/block/hisi-blk-core.c:70:3
	cmp	x21, x20
	b.ne	.LBB40_12
	b	.LBB40_17
.Ltmp430:
.LBB40_15:                              //   in Loop: Header=BB40_12 Depth=1
	//DEBUG_VALUE: hisi_blk_freeze_lld:q <- [DW_OP_deref, DW_OP_constu 3304, DW_OP_minus, DW_OP_stack_value] $x21
	//DEBUG_VALUE: blk_generic_freeze:freeze <- $w19
	//DEBUG_VALUE: blk_generic_freeze:type <- $w1
	.loc	2 76 6                  // /mnt/ssddisk/jslave/ci/workspace/chipset_WLZ_4g_release/opensource/component_code/vendor/huawei/extra/build/build_script/kirin_kernel_release/kernel/block/hisi-blk-core.c:76:6
	bl	blk_mq_unfreeze_queue
.Ltmp431:
.LBB40_16:                              //   in Loop: Header=BB40_12 Depth=1
	//DEBUG_VALUE: hisi_blk_freeze_lld:q <- [DW_OP_deref, DW_OP_constu 3304, DW_OP_minus, DW_OP_stack_value] $x21
	//DEBUG_VALUE: blk_generic_freeze:freeze <- $w19
	//DEBUG_VALUE: hisi_blk_freeze_lld:q <- [DW_OP_deref, DW_OP_constu 3304, DW_OP_minus, DW_OP_stack_value] $x20
	//DEBUG_VALUE: __mptr <- [DW_OP_deref] $x20
	.loc	2 0 0 is_stmt 0         // /mnt/ssddisk/jslave/ci/workspace/chipset_WLZ_4g_release/opensource/component_code/vendor/huawei/extra/build/build_script/kirin_kernel_release/kernel/block/hisi-blk-core.c:0:0
	ldr	x20, [x20]
.Ltmp432:
	//DEBUG_VALUE: hisi_blk_freeze_lld:q <- [DW_OP_deref, DW_OP_constu 3304, DW_OP_minus, DW_OP_stack_value] $x21
	//DEBUG_VALUE: __mptr <- [DW_OP_deref] $x21
	.loc	2 70 3 is_stmt 1        // /mnt/ssddisk/jslave/ci/workspace/chipset_WLZ_4g_release/opensource/component_code/vendor/huawei/extra/build/build_script/kirin_kernel_release/kernel/block/hisi-blk-core.c:70:3
	cmp	x21, x20
	b.ne	.LBB40_12
.Ltmp433:
.LBB40_17:
	.loc	2 770 1                 // /mnt/ssddisk/jslave/ci/workspace/chipset_WLZ_4g_release/opensource/component_code/vendor/huawei/extra/build/build_script/kirin_kernel_release/kernel/block/hisi-blk-core.c:770:1
	ldp	x29, x30, [sp, #32]     // 16-byte Folded Reload
	ldp	x20, x19, [sp, #16]     // 16-byte Folded Reload
	ldr	x21, [sp], #48          // 8-byte Folded Reload
	ret
.Ltmp434:
.Lfunc_end40:
	.size	blk_generic_freeze, .Lfunc_end40-blk_generic_freeze
	.cfi_endproc
                                        // -- End function
	.section	.text.hisi_queue_status_show,"ax",@progbits
	.hidden	hisi_queue_status_show  // -- Begin function hisi_queue_status_show
	.globl	hisi_queue_status_show
	.p2align	2
	.type	hisi_queue_status_show,@function
hisi_queue_status_show:                 // @hisi_queue_status_show
.Lfunc_begin41:
	.loc	2 774 0                 // /mnt/ssddisk/jslave/ci/workspace/chipset_WLZ_4g_release/opensource/component_code/vendor/huawei/extra/build/build_script/kirin_kernel_release/kernel/block/hisi-blk-core.c:774:0
	.cfi_startproc
// %bb.0:
	stp	x22, x21, [sp, #-48]!   // 16-byte Folded Spill
	stp	x20, x19, [sp, #16]     // 16-byte Folded Spill
	stp	x29, x30, [sp, #32]     // 16-byte Folded Spill
	add	x29, sp, #32            // =32
	.cfi_def_cfa w29, 16
	.cfi_offset w30, -8
	.cfi_offset w29, -16
	.cfi_offset w19, -24
	.cfi_offset w20, -32
	.cfi_offset w21, -40
	.cfi_offset w22, -48
	//DEBUG_VALUE: hisi_queue_status_show:q <- $x0
	//DEBUG_VALUE: hisi_queue_status_show:page <- $x1
.Ltmp435:
	//DEBUG_VALUE: hisi_blk_get_lld:q <- $x0
	.loc	2 25 6 prologue_end     // /mnt/ssddisk/jslave/ci/workspace/chipset_WLZ_4g_release/opensource/component_code/vendor/huawei/extra/build/build_script/kirin_kernel_release/kernel/block/hisi-blk-core.c:25:6
	ldr	x8, [x0, #312]
	mov	x19, x0
.Ltmp436:
	//DEBUG_VALUE: hisi_blk_get_lld:q <- $x19
	//DEBUG_VALUE: hisi_queue_status_show:q <- $x19
	.loc	2 0 6 is_stmt 0         // /mnt/ssddisk/jslave/ci/workspace/chipset_WLZ_4g_release/opensource/component_code/vendor/huawei/extra/build/build_script/kirin_kernel_release/kernel/block/hisi-blk-core.c:0:6
	mov	x20, x1
.Ltmp437:
	//DEBUG_VALUE: hisi_queue_status_show:page <- $x20
	.loc	2 25 6                  // /mnt/ssddisk/jslave/ci/workspace/chipset_WLZ_4g_release/opensource/component_code/vendor/huawei/extra/build/build_script/kirin_kernel_release/kernel/block/hisi-blk-core.c:25:6
	cbz	x8, .LBB41_3
.Ltmp438:
// %bb.1:
	//DEBUG_VALUE: hisi_queue_status_show:page <- $x20
	//DEBUG_VALUE: hisi_queue_status_show:q <- $x19
	//DEBUG_VALUE: hisi_blk_get_lld:q <- $x19
	.loc	2 26 14 is_stmt 1       // /mnt/ssddisk/jslave/ci/workspace/chipset_WLZ_4g_release/opensource/component_code/vendor/huawei/extra/build/build_script/kirin_kernel_release/kernel/block/hisi-blk-core.c:26:14
	ldr	x8, [x19, #3296]
	.loc	2 26 11 is_stmt 0       // /mnt/ssddisk/jslave/ci/workspace/chipset_WLZ_4g_release/opensource/component_code/vendor/huawei/extra/build/build_script/kirin_kernel_release/kernel/block/hisi-blk-core.c:26:11
	add	x9, x19, #1800          // =1800
	add	x10, x8, #16            // =16
.Ltmp439:
.LBB41_2:
	//DEBUG_VALUE: hisi_queue_status_show:page <- $x20
	//DEBUG_VALUE: hisi_queue_status_show:q <- $x19
	//DEBUG_VALUE: hisi_blk_get_lld:q <- $x19
	.loc	2 0 0                   // /mnt/ssddisk/jslave/ci/workspace/chipset_WLZ_4g_release/opensource/component_code/vendor/huawei/extra/build/build_script/kirin_kernel_release/kernel/block/hisi-blk-core.c:0:0
	cmp	x8, #0                  // =0
	csel	x0, x9, x10, eq
.Ltmp440:
	//DEBUG_VALUE: hisi_queue_status_show:lld <- $x0
	.loc	2 777 3 is_stmt 1       // /mnt/ssddisk/jslave/ci/workspace/chipset_WLZ_4g_release/opensource/component_code/vendor/huawei/extra/build/build_script/kirin_kernel_release/kernel/block/hisi-blk-core.c:777:3
	orr	w2, wzr, #0x1000
	mov	x1, x20
	mov	w3, wzr
	orr	w22, wzr, #0x1000
	bl	hisi_blk_dump_lld_status
.Ltmp441:
	mov	x21, x0
.Ltmp442:
	//DEBUG_VALUE: hisi_queue_status_show:offset <- $x21
	.loc	2 779 11                // /mnt/ssddisk/jslave/ci/workspace/chipset_WLZ_4g_release/opensource/component_code/vendor/huawei/extra/build/build_script/kirin_kernel_release/kernel/block/hisi-blk-core.c:779:11
	add	x1, x20, x0
	.loc	2 779 31 is_stmt 0      // /mnt/ssddisk/jslave/ci/workspace/chipset_WLZ_4g_release/opensource/component_code/vendor/huawei/extra/build/build_script/kirin_kernel_release/kernel/block/hisi-blk-core.c:779:31
	sub	x2, x22, x0
	.loc	2 778 12 is_stmt 1      // /mnt/ssddisk/jslave/ci/workspace/chipset_WLZ_4g_release/opensource/component_code/vendor/huawei/extra/build/build_script/kirin_kernel_release/kernel/block/hisi-blk-core.c:778:12
	mov	x0, x19
	mov	w3, wzr
	bl	hisi_blk_dump_queue_status2
	.loc	2 780 2                 // /mnt/ssddisk/jslave/ci/workspace/chipset_WLZ_4g_release/opensource/component_code/vendor/huawei/extra/build/build_script/kirin_kernel_release/kernel/block/hisi-blk-core.c:780:2
	ldp	x29, x30, [sp, #32]     // 16-byte Folded Reload
	ldp	x20, x19, [sp, #16]     // 16-byte Folded Reload
.Ltmp443:
	.loc	2 778 9                 // /mnt/ssddisk/jslave/ci/workspace/chipset_WLZ_4g_release/opensource/component_code/vendor/huawei/extra/build/build_script/kirin_kernel_release/kernel/block/hisi-blk-core.c:778:9
	add	x0, x0, x21
.Ltmp444:
	//DEBUG_VALUE: hisi_queue_status_show:offset <- $x0
	.loc	2 780 2                 // /mnt/ssddisk/jslave/ci/workspace/chipset_WLZ_4g_release/opensource/component_code/vendor/huawei/extra/build/build_script/kirin_kernel_release/kernel/block/hisi-blk-core.c:780:2
	ldp	x22, x21, [sp], #48     // 16-byte Folded Reload
	ret
.Ltmp445:
.LBB41_3:
	//DEBUG_VALUE: hisi_queue_status_show:page <- $x20
	//DEBUG_VALUE: hisi_queue_status_show:q <- $x19
	//DEBUG_VALUE: hisi_blk_get_lld:q <- $x19
	.loc	2 28 14                 // /mnt/ssddisk/jslave/ci/workspace/chipset_WLZ_4g_release/opensource/component_code/vendor/huawei/extra/build/build_script/kirin_kernel_release/kernel/block/hisi-blk-core.c:28:14
	ldr	x8, [x19, #720]
	.loc	2 28 11 is_stmt 0       // /mnt/ssddisk/jslave/ci/workspace/chipset_WLZ_4g_release/opensource/component_code/vendor/huawei/extra/build/build_script/kirin_kernel_release/kernel/block/hisi-blk-core.c:28:11
	add	x9, x19, #1800          // =1800
	add	x10, x8, #120           // =120
	b	.LBB41_2
.Ltmp446:
.Lfunc_end41:
	.size	hisi_queue_status_show, .Lfunc_end41-hisi_queue_status_show
	.cfi_endproc
                                        // -- End function
	.type	__kstrtab_blk_queue_set_inline_crypto_flag,@object // @__kstrtab_blk_queue_set_inline_crypto_flag
	.section	__ksymtab_strings,"a",@progbits
__kstrtab_blk_queue_set_inline_crypto_flag:
	.asciz	"blk_queue_set_inline_crypto_flag"
	.size	__kstrtab_blk_queue_set_inline_crypto_flag, 33

	.type	__ksymtab_blk_queue_set_inline_crypto_flag,@object // @__ksymtab_blk_queue_set_inline_crypto_flag
	.section	"___ksymtab+blk_queue_set_inline_crypto_flag","a",@progbits
	.p2align	3
__ksymtab_blk_queue_set_inline_crypto_flag:
	.xword	blk_queue_set_inline_crypto_flag
	.xword	__kstrtab_blk_queue_set_inline_crypto_flag
	.size	__ksymtab_blk_queue_set_inline_crypto_flag, 16

	.type	__kstrtab_is_blk_queue_support_crypto,@object // @__kstrtab_is_blk_queue_support_crypto
	.section	__ksymtab_strings,"a",@progbits
__kstrtab_is_blk_queue_support_crypto:
	.asciz	"is_blk_queue_support_crypto"
	.size	__kstrtab_is_blk_queue_support_crypto, 28

	.type	__ksymtab_is_blk_queue_support_crypto,@object // @__ksymtab_is_blk_queue_support_crypto
	.section	"___ksymtab+is_blk_queue_support_crypto","a",@progbits
	.p2align	3
__ksymtab_is_blk_queue_support_crypto:
	.xword	is_blk_queue_support_crypto
	.xword	__kstrtab_is_blk_queue_support_crypto
	.size	__ksymtab_is_blk_queue_support_crypto, 16

	.type	.L.str,@object          // @.str
	.section	.rodata.str1.1,"aMS",@progbits,1
.L.str:
	.asciz	"\0013[BLK-IO]%s: mq_req_init_fn failed. err = %d \r\n"
	.size	.L.str, 49

	.type	.L__func__.hisi_blk_mq_rq_ctx_init,@object // @__func__.hisi_blk_mq_rq_ctx_init
.L__func__.hisi_blk_mq_rq_ctx_init:
	.asciz	"hisi_blk_mq_rq_ctx_init"
	.size	.L__func__.hisi_blk_mq_rq_ctx_init, 24

	.type	.L.str.1,@object        // @.str.1
.L.str.1:
	.asciz	"\0013[BLK-IO]%s: mq_iosched_init_fn failed. err = %d \r\n"
	.size	.L.str.1, 53

	.type	.L__func__.hisi_blk_mq_init_allocated_queue,@object // @__func__.hisi_blk_mq_init_allocated_queue
.L__func__.hisi_blk_mq_init_allocated_queue:
	.asciz	"hisi_blk_mq_init_allocated_queue"
	.size	.L__func__.hisi_blk_mq_init_allocated_queue, 33

	.type	.L.str.2,@object        // @.str.2
.L.str.2:
	.asciz	"\0013[BLK-IO]%s: mq_iosched_exit_fn failed. err = %d \r\n"
	.size	.L.str.2, 53

	.type	.L__func__.hisi_blk_mq_free_queue,@object // @__func__.hisi_blk_mq_free_queue
.L__func__.hisi_blk_mq_free_queue:
	.asciz	"hisi_blk_mq_free_queue"
	.size	.L__func__.hisi_blk_mq_free_queue, 23

	.type	hisi_blk_allocated_tags_init.__key,@object // @hisi_blk_allocated_tags_init.__key
	.section	.bss.hisi_blk_allocated_tags_init.__key,"aw",@nobits
hisi_blk_allocated_tags_init.__key:
	.size	hisi_blk_allocated_tags_init.__key, 0

	.type	.L.str.3,@object        // @.str.3
	.section	.rodata.str1.1,"aMS",@progbits,1
.L.str.3:
	.asciz	"&tags->tag_list_lock"
	.size	.L.str.3, 21

	.type	__kstrtab_blk_generic_freeze,@object // @__kstrtab_blk_generic_freeze
	.section	__ksymtab_strings,"a",@progbits
__kstrtab_blk_generic_freeze:
	.asciz	"blk_generic_freeze"
	.size	__kstrtab_blk_generic_freeze, 19

	.type	__ksymtab_blk_generic_freeze,@object // @__ksymtab_blk_generic_freeze
	.section	"___ksymtab+blk_generic_freeze","a",@progbits
	.p2align	3
__ksymtab_blk_generic_freeze:
	.xword	blk_generic_freeze
	.xword	__kstrtab_blk_generic_freeze
	.size	__ksymtab_blk_generic_freeze, 16

	.type	.L.str.4,@object        // @.str.4
	.section	.rodata.str1.1,"aMS",@progbits,1
.L.str.4:
	.asciz	"\0013[BLK-IO][%s]init key len not 64\n"
	.size	.L.str.4, 35

	.type	.L__func__.hisi_blk_lld_inline_crypto_bio_split_pre,@object // @__func__.hisi_blk_lld_inline_crypto_bio_split_pre
.L__func__.hisi_blk_lld_inline_crypto_bio_split_pre:
	.asciz	"hisi_blk_lld_inline_crypto_bio_split_pre"
	.size	.L__func__.hisi_blk_lld_inline_crypto_bio_split_pre, 41

	.type	.L__func__.hisi_blk_lld_inline_crypto_bio_split_post,@object // @__func__.hisi_blk_lld_inline_crypto_bio_split_post
.L__func__.hisi_blk_lld_inline_crypto_bio_split_post:
	.asciz	"hisi_blk_lld_inline_crypto_bio_split_post"
	.size	.L__func__.hisi_blk_lld_inline_crypto_bio_split_post, 42

	.type	.L.str.5,@object        // @.str.5
.L.str.5:
	.asciz	"\0013[BLK-IO][%s]key len not 64\n"
	.size	.L.str.5, 30

	.type	.L__func__.hisi_blk_lld_inline_crypto_bio_merge_allow,@object // @__func__.hisi_blk_lld_inline_crypto_bio_merge_allow
.L__func__.hisi_blk_lld_inline_crypto_bio_merge_allow:
	.asciz	"hisi_blk_lld_inline_crypto_bio_merge_allow"
	.size	.L__func__.hisi_blk_lld_inline_crypto_bio_merge_allow, 43

	.type	.L.str.6,@object        // @.str.6
.L.str.6:
	.asciz	"\0013[BLK-IO][%s]init rq key len not 64\n"
	.size	.L.str.6, 38

	.type	.L__func__.hisi_blk_lld_inline_crypto_init_request_from_bio,@object // @__func__.hisi_blk_lld_inline_crypto_init_request_from_bio
.L__func__.hisi_blk_lld_inline_crypto_init_request_from_bio:
	.asciz	"hisi_blk_lld_inline_crypto_init_request_from_bio"
	.size	.L__func__.hisi_blk_lld_inline_crypto_init_request_from_bio, 49
