	.text
	.file	"hisi-blk-latency.c"
                                        // Start of file scope inline assembly
	.section "___kcrctab+blk_mq_tagset_latency_warning_set", "a"	
	.weak	__crc_blk_mq_tagset_latency_warning_set	
	.long	__crc_blk_mq_tagset_latency_warning_set	
	.previous					
	.section "___kcrctab+blk_queue_latency_warning_set", "a"	
	.weak	__crc_blk_queue_latency_warning_set	
	.long	__crc_blk_queue_latency_warning_set	
	.previous					

                                        // End of file scope inline assembly
	.file	1 "/mnt/ssddisk/jslave/ci/workspace/chipset_WLZ_4g_release/opensource/component_code/vendor/huawei/extra/build/build_script/kirin_kernel_release/kernel/include/asm-generic/int-ll64.h"
	.file	2 "/mnt/ssddisk/jslave/ci/workspace/chipset_WLZ_4g_release/opensource/component_code/vendor/huawei/extra/build/build_script/kirin_kernel_release/kernel/arch/arm64/include/asm/spinlock_types.h"
	.file	3 "/mnt/ssddisk/jslave/ci/workspace/chipset_WLZ_4g_release/opensource/component_code/vendor/huawei/extra/build/build_script/kirin_kernel_release/kernel/include/linux/spinlock_types.h"
	.file	4 "/mnt/ssddisk/jslave/ci/workspace/chipset_WLZ_4g_release/opensource/component_code/vendor/huawei/extra/build/build_script/kirin_kernel_release/kernel/include/linux/ratelimit.h"
	.file	5 "/mnt/ssddisk/jslave/ci/workspace/chipset_WLZ_4g_release/opensource/component_code/vendor/huawei/extra/build/build_script/kirin_kernel_release/kernel/block/hisi-blk-latency.c"
	.file	6 "/mnt/ssddisk/jslave/ci/workspace/chipset_WLZ_4g_release/opensource/component_code/vendor/huawei/extra/build/build_script/kirin_kernel_release/kernel/block/hisi-blk.h"
	.file	7 "/mnt/ssddisk/jslave/ci/workspace/chipset_WLZ_4g_release/opensource/component_code/vendor/huawei/extra/build/build_script/kirin_kernel_release/kernel/include/linux/blk_types.h"
	.file	8 "/mnt/ssddisk/jslave/ci/workspace/chipset_WLZ_4g_release/opensource/component_code/vendor/huawei/extra/build/build_script/kirin_kernel_release/kernel/include/linux/genhd.h"
	.file	9 "/mnt/ssddisk/jslave/ci/workspace/chipset_WLZ_4g_release/opensource/component_code/vendor/huawei/extra/build/build_script/kirin_kernel_release/kernel/include/linux/types.h"
	.file	10 "/mnt/ssddisk/jslave/ci/workspace/chipset_WLZ_4g_release/opensource/component_code/vendor/huawei/extra/build/build_script/kirin_kernel_release/kernel/include/linux/seqlock.h"
	.file	11 "/mnt/ssddisk/jslave/ci/workspace/chipset_WLZ_4g_release/opensource/component_code/vendor/huawei/extra/build/build_script/kirin_kernel_release/kernel/include/linux/device.h"
	.file	12 "/mnt/ssddisk/jslave/ci/workspace/chipset_WLZ_4g_release/opensource/component_code/vendor/huawei/extra/build/build_script/kirin_kernel_release/kernel/include/linux/kobject.h"
	.file	13 "/mnt/ssddisk/jslave/ci/workspace/chipset_WLZ_4g_release/opensource/component_code/vendor/huawei/extra/build/build_script/kirin_kernel_release/kernel/include/uapi/asm-generic/posix_types.h"
	.file	14 "/mnt/ssddisk/jslave/ci/workspace/chipset_WLZ_4g_release/opensource/component_code/vendor/huawei/extra/build/build_script/kirin_kernel_release/kernel/include/linux/sysfs.h"
	.file	15 "/mnt/ssddisk/jslave/ci/workspace/chipset_WLZ_4g_release/opensource/component_code/vendor/huawei/extra/build/build_script/kirin_kernel_release/kernel/include/linux/kobject_ns.h"
	.file	16 "/mnt/ssddisk/jslave/ci/workspace/chipset_WLZ_4g_release/opensource/component_code/vendor/huawei/extra/build/build_script/kirin_kernel_release/kernel/include/linux/kernfs.h"
	.file	17 "/mnt/ssddisk/jslave/ci/workspace/chipset_WLZ_4g_release/opensource/component_code/vendor/huawei/extra/build/build_script/kirin_kernel_release/kernel/include/linux/rbtree.h"
	.file	18 "/mnt/ssddisk/jslave/ci/workspace/chipset_WLZ_4g_release/opensource/component_code/vendor/huawei/extra/build/build_script/kirin_kernel_release/kernel/include/linux/radix-tree.h"
	.file	19 "/mnt/ssddisk/jslave/ci/workspace/chipset_WLZ_4g_release/opensource/component_code/vendor/huawei/extra/build/build_script/kirin_kernel_release/kernel/include/linux/idr.h"
	.file	20 "/mnt/ssddisk/jslave/ci/workspace/chipset_WLZ_4g_release/opensource/component_code/vendor/huawei/extra/build/build_script/kirin_kernel_release/kernel/include/linux/seq_file.h"
	.file	21 "/mnt/ssddisk/jslave/ci/workspace/chipset_WLZ_4g_release/opensource/component_code/vendor/huawei/extra/build/build_script/kirin_kernel_release/kernel/include/asm-generic/atomic-long.h"
	.file	22 "/mnt/ssddisk/jslave/ci/workspace/chipset_WLZ_4g_release/opensource/component_code/vendor/huawei/extra/build/build_script/kirin_kernel_release/kernel/include/linux/mutex.h"
	.file	23 "/mnt/ssddisk/jslave/ci/workspace/chipset_WLZ_4g_release/opensource/component_code/vendor/huawei/extra/build/build_script/kirin_kernel_release/kernel/include/linux/osq_lock.h"
	.file	24 "/mnt/ssddisk/jslave/ci/workspace/chipset_WLZ_4g_release/opensource/component_code/vendor/huawei/extra/build/build_script/kirin_kernel_release/kernel/arch/arm64/include/asm/thread_info.h"
	.file	25 "/mnt/ssddisk/jslave/ci/workspace/chipset_WLZ_4g_release/opensource/component_code/vendor/huawei/extra/build/build_script/kirin_kernel_release/kernel/include/linux/sched.h"
	.file	26 "/mnt/ssddisk/jslave/ci/workspace/chipset_WLZ_4g_release/opensource/component_code/vendor/huawei/extra/build/build_script/kirin_kernel_release/kernel/include/linux/llist.h"
	.file	27 "/mnt/ssddisk/jslave/ci/workspace/chipset_WLZ_4g_release/opensource/component_code/vendor/huawei/extra/build/build_script/kirin_kernel_release/kernel/include/linux/cpumask.h"
	.file	28 "/mnt/ssddisk/jslave/ci/workspace/chipset_WLZ_4g_release/opensource/component_code/vendor/huawei/extra/build/build_script/kirin_kernel_release/kernel/include/linux/timerqueue.h"
	.file	29 "/mnt/ssddisk/jslave/ci/workspace/chipset_WLZ_4g_release/opensource/component_code/vendor/huawei/extra/build/build_script/kirin_kernel_release/kernel/include/linux/ktime.h"
	.file	30 "/mnt/ssddisk/jslave/ci/workspace/chipset_WLZ_4g_release/opensource/component_code/vendor/huawei/extra/build/build_script/kirin_kernel_release/kernel/include/linux/hrtimer.h"
	.file	31 "/mnt/ssddisk/jslave/ci/workspace/chipset_WLZ_4g_release/opensource/component_code/vendor/huawei/extra/build/build_script/kirin_kernel_release/kernel/include/linux/plist.h"
	.file	32 "/mnt/ssddisk/jslave/ci/workspace/chipset_WLZ_4g_release/opensource/component_code/vendor/huawei/extra/build/build_script/kirin_kernel_release/kernel/include/linux/mm_types.h"
	.file	33 "/mnt/ssddisk/jslave/ci/workspace/chipset_WLZ_4g_release/opensource/component_code/vendor/huawei/extra/build/build_script/kirin_kernel_release/kernel/arch/arm64/include/asm/pgtable-types.h"
	.file	34 "/mnt/ssddisk/jslave/ci/workspace/chipset_WLZ_4g_release/opensource/component_code/vendor/huawei/extra/build/build_script/kirin_kernel_release/kernel/include/linux/mm.h"
	.file	35 "/mnt/ssddisk/jslave/ci/workspace/chipset_WLZ_4g_release/opensource/component_code/vendor/huawei/extra/build/build_script/kirin_kernel_release/kernel/include/asm-generic/pgtable-nop4d-hack.h"
	.file	36 "/mnt/ssddisk/jslave/ci/workspace/chipset_WLZ_4g_release/opensource/component_code/vendor/huawei/extra/build/build_script/kirin_kernel_release/kernel/include/linux/fs.h"
	.file	37 "/mnt/ssddisk/jslave/ci/workspace/chipset_WLZ_4g_release/opensource/component_code/vendor/huawei/extra/build/build_script/kirin_kernel_release/kernel/include/linux/uidgid.h"
	.file	38 "/mnt/ssddisk/jslave/ci/workspace/chipset_WLZ_4g_release/opensource/component_code/vendor/huawei/extra/build/build_script/kirin_kernel_release/kernel/include/linux/dcache.h"
	.file	39 "/mnt/ssddisk/jslave/ci/workspace/chipset_WLZ_4g_release/opensource/component_code/vendor/huawei/extra/build/build_script/kirin_kernel_release/kernel/include/linux/list_bl.h"
	.file	40 "/mnt/ssddisk/jslave/ci/workspace/chipset_WLZ_4g_release/opensource/component_code/vendor/huawei/extra/build/build_script/kirin_kernel_release/kernel/include/linux/lockref.h"
	.file	41 "/mnt/ssddisk/jslave/ci/workspace/chipset_WLZ_4g_release/opensource/component_code/vendor/huawei/extra/build/build_script/kirin_kernel_release/kernel/include/linux/path.h"
	.file	42 "/mnt/ssddisk/jslave/ci/workspace/chipset_WLZ_4g_release/opensource/component_code/vendor/huawei/extra/build/build_script/kirin_kernel_release/kernel/include/uapi/asm-generic/int-ll64.h"
	.file	43 "/mnt/ssddisk/jslave/ci/workspace/chipset_WLZ_4g_release/opensource/component_code/vendor/huawei/extra/build/build_script/kirin_kernel_release/kernel/include/linux/module.h"
	.file	44 "/mnt/ssddisk/jslave/ci/workspace/chipset_WLZ_4g_release/opensource/component_code/vendor/huawei/extra/build/build_script/kirin_kernel_release/kernel/include/linux/completion.h"
	.file	45 "/mnt/ssddisk/jslave/ci/workspace/chipset_WLZ_4g_release/opensource/component_code/vendor/huawei/extra/build/build_script/kirin_kernel_release/kernel/include/linux/wait.h"
	.file	46 "/mnt/ssddisk/jslave/ci/workspace/chipset_WLZ_4g_release/opensource/component_code/vendor/huawei/extra/build/build_script/kirin_kernel_release/kernel/include/linux/export.h"
	.file	47 "/mnt/ssddisk/jslave/ci/workspace/chipset_WLZ_4g_release/opensource/component_code/vendor/huawei/extra/build/build_script/kirin_kernel_release/kernel/include/linux/cfi.h"
	.file	48 "/mnt/ssddisk/jslave/ci/workspace/chipset_WLZ_4g_release/opensource/component_code/vendor/huawei/extra/build/build_script/kirin_kernel_release/kernel/include/linux/moduleparam.h"
	.file	49 "/mnt/ssddisk/jslave/ci/workspace/chipset_WLZ_4g_release/opensource/component_code/vendor/huawei/extra/build/build_script/kirin_kernel_release/kernel/arch/arm64/include/asm/extable.h"
	.file	50 "/mnt/ssddisk/jslave/ci/workspace/chipset_WLZ_4g_release/opensource/component_code/vendor/huawei/extra/build/build_script/kirin_kernel_release/kernel/include/linux/rbtree_latch.h"
	.file	51 "/mnt/ssddisk/jslave/ci/workspace/chipset_WLZ_4g_release/opensource/component_code/vendor/huawei/extra/build/build_script/kirin_kernel_release/kernel/include/uapi/linux/elf.h"
	.file	52 "/mnt/ssddisk/jslave/ci/workspace/chipset_WLZ_4g_release/opensource/component_code/vendor/huawei/extra/build/build_script/kirin_kernel_release/kernel/arch/arm64/include/asm/module.h"
	.file	53 "/mnt/ssddisk/jslave/ci/workspace/chipset_WLZ_4g_release/opensource/component_code/vendor/huawei/extra/build/build_script/kirin_kernel_release/kernel/include/uapi/linux/types.h"
	.file	54 "/mnt/ssddisk/jslave/ci/workspace/chipset_WLZ_4g_release/opensource/component_code/vendor/huawei/extra/build/build_script/kirin_kernel_release/kernel/include/asm-generic/bug.h"
	.file	55 "/mnt/ssddisk/jslave/ci/workspace/chipset_WLZ_4g_release/opensource/component_code/vendor/huawei/extra/build/build_script/kirin_kernel_release/kernel/include/linux/tracepoint-defs.h"
	.file	56 "/mnt/ssddisk/jslave/ci/workspace/chipset_WLZ_4g_release/opensource/component_code/vendor/huawei/extra/build/build_script/kirin_kernel_release/kernel/include/linux/jump_label.h"
	.file	57 "/mnt/ssddisk/jslave/ci/workspace/chipset_WLZ_4g_release/opensource/component_code/vendor/huawei/extra/build/build_script/kirin_kernel_release/kernel/include/linux/tracepoint.h"
	.file	58 "/mnt/ssddisk/jslave/ci/workspace/chipset_WLZ_4g_release/opensource/component_code/vendor/huawei/extra/build/build_script/kirin_kernel_release/kernel/include/linux/lockdep.h"
	.file	59 "/mnt/ssddisk/jslave/ci/workspace/chipset_WLZ_4g_release/opensource/component_code/vendor/huawei/extra/build/build_script/kirin_kernel_release/kernel/include/linux/writeback.h"
	.file	60 "/mnt/ssddisk/jslave/ci/workspace/chipset_WLZ_4g_release/opensource/component_code/vendor/huawei/extra/build/build_script/kirin_kernel_release/kernel/include/linux/backing-dev-defs.h"
	.file	61 "/mnt/ssddisk/jslave/ci/workspace/chipset_WLZ_4g_release/opensource/component_code/vendor/huawei/extra/build/build_script/kirin_kernel_release/kernel/include/linux/refcount.h"
	.file	62 "/mnt/ssddisk/jslave/ci/workspace/chipset_WLZ_4g_release/opensource/component_code/vendor/huawei/extra/build/build_script/kirin_kernel_release/kernel/include/linux/kref.h"
	.file	63 "/mnt/ssddisk/jslave/ci/workspace/chipset_WLZ_4g_release/opensource/component_code/vendor/huawei/extra/build/build_script/kirin_kernel_release/kernel/include/linux/rwsem.h"
	.file	64 "/mnt/ssddisk/jslave/ci/workspace/chipset_WLZ_4g_release/opensource/component_code/vendor/huawei/extra/build/build_script/kirin_kernel_release/kernel/include/linux/timer.h"
	.file	65 "/mnt/ssddisk/jslave/ci/workspace/chipset_WLZ_4g_release/opensource/component_code/vendor/huawei/extra/build/build_script/kirin_kernel_release/kernel/include/linux/percpu_counter.h"
	.file	66 "/mnt/ssddisk/jslave/ci/workspace/chipset_WLZ_4g_release/opensource/component_code/vendor/huawei/extra/build/build_script/kirin_kernel_release/kernel/include/linux/flex_proportions.h"
	.file	67 "/mnt/ssddisk/jslave/ci/workspace/chipset_WLZ_4g_release/opensource/component_code/vendor/huawei/extra/build/build_script/kirin_kernel_release/kernel/include/linux/workqueue.h"
	.file	68 "/mnt/ssddisk/jslave/ci/workspace/chipset_WLZ_4g_release/opensource/component_code/vendor/huawei/extra/build/build_script/kirin_kernel_release/kernel/include/linux/percpu-refcount.h"
	.file	69 "/mnt/ssddisk/jslave/ci/workspace/chipset_WLZ_4g_release/opensource/component_code/vendor/huawei/extra/build/build_script/kirin_kernel_release/kernel/include/linux/cgroup-defs.h"
	.file	70 "/mnt/ssddisk/jslave/ci/workspace/chipset_WLZ_4g_release/opensource/component_code/vendor/huawei/extra/build/build_script/kirin_kernel_release/kernel/include/linux/psi_types.h"
	.file	71 "/mnt/ssddisk/jslave/ci/workspace/chipset_WLZ_4g_release/opensource/component_code/vendor/huawei/extra/build/build_script/kirin_kernel_release/kernel/include/linux/bpf-cgroup.h"
	.file	72 "/mnt/ssddisk/jslave/ci/workspace/chipset_WLZ_4g_release/opensource/component_code/vendor/huawei/extra/build/build_script/kirin_kernel_release/kernel/include/linux/uio.h"
	.file	73 "/mnt/ssddisk/jslave/ci/workspace/chipset_WLZ_4g_release/opensource/component_code/vendor/huawei/extra/build/build_script/kirin_kernel_release/kernel/include/uapi/linux/uio.h"
	.file	74 "/mnt/ssddisk/jslave/ci/workspace/chipset_WLZ_4g_release/opensource/component_code/vendor/huawei/extra/build/build_script/kirin_kernel_release/kernel/include/linux/bvec.h"
	.file	75 "/mnt/ssddisk/jslave/ci/workspace/chipset_WLZ_4g_release/opensource/component_code/vendor/huawei/extra/build/build_script/kirin_kernel_release/kernel/include/linux/poll.h"
	.file	76 "/mnt/ssddisk/jslave/ci/workspace/chipset_WLZ_4g_release/opensource/component_code/vendor/huawei/extra/build/build_script/kirin_kernel_release/kernel/include/linux/nfs_fs_i.h"
	.file	77 "/mnt/ssddisk/jslave/ci/workspace/chipset_WLZ_4g_release/opensource/component_code/vendor/huawei/extra/build/build_script/kirin_kernel_release/kernel/include/linux/rwlock_types.h"
	.file	78 "/mnt/ssddisk/jslave/ci/workspace/chipset_WLZ_4g_release/opensource/component_code/vendor/huawei/extra/build/build_script/kirin_kernel_release/kernel/include/linux/pid.h"
	.file	79 "/mnt/ssddisk/jslave/ci/workspace/chipset_WLZ_4g_release/opensource/component_code/vendor/huawei/extra/build/build_script/kirin_kernel_release/kernel/include/linux/cred.h"
	.file	80 "/mnt/ssddisk/jslave/ci/workspace/chipset_WLZ_4g_release/opensource/component_code/vendor/huawei/extra/build/build_script/kirin_kernel_release/kernel/include/linux/capability.h"
	.file	81 "/mnt/ssddisk/jslave/ci/workspace/chipset_WLZ_4g_release/opensource/component_code/vendor/huawei/extra/build/build_script/kirin_kernel_release/kernel/include/linux/key.h"
	.file	82 "/mnt/ssddisk/jslave/ci/workspace/chipset_WLZ_4g_release/opensource/component_code/vendor/huawei/extra/build/build_script/kirin_kernel_release/kernel/include/linux/assoc_array.h"
	.file	83 "/mnt/ssddisk/jslave/ci/workspace/chipset_WLZ_4g_release/opensource/component_code/vendor/huawei/extra/build/build_script/kirin_kernel_release/kernel/include/linux/sched/user.h"
	.file	84 "/mnt/ssddisk/jslave/ci/workspace/chipset_WLZ_4g_release/opensource/component_code/vendor/huawei/extra/build/build_script/kirin_kernel_release/kernel/include/linux/user_namespace.h"
	.file	85 "/mnt/ssddisk/jslave/ci/workspace/chipset_WLZ_4g_release/opensource/component_code/vendor/huawei/extra/build/build_script/kirin_kernel_release/kernel/include/linux/ns_common.h"
	.file	86 "/mnt/ssddisk/jslave/ci/workspace/chipset_WLZ_4g_release/opensource/component_code/vendor/huawei/extra/build/build_script/kirin_kernel_release/kernel/include/linux/sysctl.h"
	.file	87 "/mnt/ssddisk/jslave/ci/workspace/chipset_WLZ_4g_release/opensource/component_code/vendor/huawei/extra/build/build_script/kirin_kernel_release/kernel/include/linux/errseq.h"
	.file	88 "/mnt/ssddisk/jslave/ci/workspace/chipset_WLZ_4g_release/opensource/component_code/vendor/huawei/extra/build/build_script/kirin_kernel_release/kernel/include/linux/quota.h"
	.file	89 "/mnt/ssddisk/jslave/ci/workspace/chipset_WLZ_4g_release/opensource/component_code/vendor/huawei/extra/build/build_script/kirin_kernel_release/kernel/include/linux/projid.h"
	.file	90 "/mnt/ssddisk/jslave/ci/workspace/chipset_WLZ_4g_release/opensource/component_code/vendor/huawei/extra/build/build_script/kirin_kernel_release/kernel/include/linux/time64.h"
	.file	91 "/mnt/ssddisk/jslave/ci/workspace/chipset_WLZ_4g_release/opensource/component_code/vendor/huawei/extra/build/build_script/kirin_kernel_release/kernel/include/linux/shrinker.h"
	.file	92 "/mnt/ssddisk/jslave/ci/workspace/chipset_WLZ_4g_release/opensource/component_code/vendor/huawei/extra/build/build_script/kirin_kernel_release/kernel/include/linux/memcontrol.h"
	.file	93 "/mnt/ssddisk/jslave/ci/workspace/chipset_WLZ_4g_release/opensource/component_code/vendor/huawei/extra/build/build_script/kirin_kernel_release/kernel/include/linux/page_counter.h"
	.file	94 "/mnt/ssddisk/jslave/ci/workspace/chipset_WLZ_4g_release/opensource/component_code/vendor/huawei/extra/build/build_script/kirin_kernel_release/kernel/include/linux/vmpressure.h"
	.file	95 "/mnt/ssddisk/jslave/ci/workspace/chipset_WLZ_4g_release/opensource/component_code/vendor/huawei/extra/build/build_script/kirin_kernel_release/kernel/include/linux/mmzone.h"
	.file	96 "/mnt/ssddisk/jslave/ci/workspace/chipset_WLZ_4g_release/opensource/component_code/vendor/huawei/extra/build/build_script/kirin_kernel_release/kernel/include/linux/blkdev.h"
	.file	97 "/mnt/ssddisk/jslave/ci/workspace/chipset_WLZ_4g_release/opensource/component_code/vendor/huawei/extra/build/build_script/kirin_kernel_release/kernel/include/linux/smp.h"
	.file	98 "/mnt/ssddisk/jslave/ci/workspace/chipset_WLZ_4g_release/opensource/component_code/vendor/huawei/extra/build/build_script/kirin_kernel_release/kernel/block/blk-mq.h"
	.file	99 "/mnt/ssddisk/jslave/ci/workspace/chipset_WLZ_4g_release/opensource/component_code/vendor/huawei/extra/build/build_script/kirin_kernel_release/kernel/include/linux/iocontext.h"
	.file	100 "/mnt/ssddisk/jslave/ci/workspace/chipset_WLZ_4g_release/opensource/component_code/vendor/huawei/extra/build/build_script/kirin_kernel_release/kernel/include/linux/blk-cgroup.h"
	.file	101 "/mnt/ssddisk/jslave/ci/workspace/chipset_WLZ_4g_release/opensource/component_code/vendor/huawei/extra/build/build_script/kirin_kernel_release/kernel/include/linux/mempool.h"
	.file	102 "/mnt/ssddisk/jslave/ci/workspace/chipset_WLZ_4g_release/opensource/component_code/vendor/huawei/extra/build/build_script/kirin_kernel_release/kernel/include/linux/elevator.h"
	.file	103 "/mnt/ssddisk/jslave/ci/workspace/chipset_WLZ_4g_release/opensource/component_code/vendor/huawei/extra/build/build_script/kirin_kernel_release/kernel/include/linux/blk-mq.h"
	.file	104 "/mnt/ssddisk/jslave/ci/workspace/chipset_WLZ_4g_release/opensource/component_code/vendor/huawei/extra/build/build_script/kirin_kernel_release/kernel/block/blk.h"
	.file	105 "/mnt/ssddisk/jslave/ci/workspace/chipset_WLZ_4g_release/opensource/component_code/vendor/huawei/extra/build/build_script/kirin_kernel_release/kernel/include/linux/sbitmap.h"
	.file	106 "/mnt/ssddisk/jslave/ci/workspace/chipset_WLZ_4g_release/opensource/component_code/vendor/huawei/extra/build/build_script/kirin_kernel_release/kernel/include/linux/srcutree.h"
	.file	107 "/mnt/ssddisk/jslave/ci/workspace/chipset_WLZ_4g_release/opensource/component_code/vendor/huawei/extra/build/build_script/kirin_kernel_release/kernel/include/linux/rcu_segcblist.h"
	.file	108 "/mnt/ssddisk/jslave/ci/workspace/chipset_WLZ_4g_release/opensource/component_code/vendor/huawei/extra/build/build_script/kirin_kernel_release/kernel/include/linux/notifier.h"
	.file	109 "/mnt/ssddisk/jslave/ci/workspace/chipset_WLZ_4g_release/opensource/component_code/vendor/huawei/extra/build/build_script/kirin_kernel_release/kernel/block/blk-stat.h"
	.file	110 "/mnt/ssddisk/jslave/ci/workspace/chipset_WLZ_4g_release/opensource/component_code/vendor/huawei/extra/build/build_script/kirin_kernel_release/kernel/include/linux/bsg.h"
	.file	111 "/mnt/ssddisk/jslave/ci/workspace/chipset_WLZ_4g_release/opensource/component_code/vendor/huawei/extra/build/build_script/kirin_kernel_release/kernel/include/linux/bio.h"
	.file	112 "/mnt/ssddisk/jslave/ci/workspace/chipset_WLZ_4g_release/opensource/component_code/vendor/huawei/extra/build/build_script/kirin_kernel_release/kernel/include/linux/rcu_sync.h"
	.file	113 "/mnt/ssddisk/jslave/ci/workspace/chipset_WLZ_4g_release/opensource/component_code/vendor/huawei/extra/build/build_script/kirin_kernel_release/kernel/include/linux/percpu-rwsem.h"
	.file	114 "/mnt/ssddisk/jslave/ci/workspace/chipset_WLZ_4g_release/opensource/component_code/vendor/huawei/extra/build/build_script/kirin_kernel_release/kernel/include/linux/rcuwait.h"
	.file	115 "/mnt/ssddisk/jslave/ci/workspace/chipset_WLZ_4g_release/opensource/component_code/vendor/huawei/extra/build/build_script/kirin_kernel_release/kernel/include/linux/uuid.h"
	.file	116 "/mnt/ssddisk/jslave/ci/workspace/chipset_WLZ_4g_release/opensource/component_code/vendor/huawei/extra/build/build_script/kirin_kernel_release/kernel/include/linux/list_lru.h"
	.file	117 "/mnt/ssddisk/jslave/ci/workspace/chipset_WLZ_4g_release/opensource/component_code/vendor/huawei/extra/build/build_script/kirin_kernel_release/kernel/include/linux/delayed_call.h"
	.file	118 "/mnt/ssddisk/jslave/ci/workspace/chipset_WLZ_4g_release/opensource/component_code/vendor/huawei/extra/build/build_script/kirin_kernel_release/kernel/include/uapi/linux/time.h"
	.file	119 "/mnt/ssddisk/jslave/ci/workspace/chipset_WLZ_4g_release/opensource/component_code/vendor/huawei/extra/build/build_script/kirin_kernel_release/kernel/include/linux/stat.h"
	.file	120 "/mnt/ssddisk/jslave/ci/workspace/chipset_WLZ_4g_release/opensource/component_code/vendor/huawei/extra/build/build_script/kirin_kernel_release/kernel/include/uapi/linux/fiemap.h"
	.file	121 "/mnt/ssddisk/jslave/ci/workspace/chipset_WLZ_4g_release/opensource/component_code/vendor/huawei/extra/build/build_script/kirin_kernel_release/kernel/include/linux/migrate_mode.h"
	.file	122 "/mnt/ssddisk/jslave/ci/workspace/chipset_WLZ_4g_release/opensource/component_code/vendor/huawei/extra/build/build_script/kirin_kernel_release/kernel/include/linux/swap.h"
	.file	123 "/mnt/ssddisk/jslave/ci/workspace/chipset_WLZ_4g_release/opensource/component_code/vendor/huawei/extra/build/build_script/kirin_kernel_release/kernel/include/linux/memremap.h"
	.file	124 "/mnt/ssddisk/jslave/ci/workspace/chipset_WLZ_4g_release/opensource/component_code/vendor/huawei/extra/build/build_script/kirin_kernel_release/kernel/include/linux/ioport.h"
	.file	125 "/mnt/ssddisk/jslave/ci/workspace/chipset_WLZ_4g_release/opensource/component_code/vendor/huawei/extra/build/build_script/kirin_kernel_release/kernel/arch/arm64/include/asm/page.h"
	.file	126 "/mnt/ssddisk/jslave/ci/workspace/chipset_WLZ_4g_release/opensource/component_code/vendor/huawei/extra/build/build_script/kirin_kernel_release/kernel/include/linux/mm_types_task.h"
	.file	127 "/mnt/ssddisk/jslave/ci/workspace/chipset_WLZ_4g_release/opensource/component_code/vendor/huawei/extra/build/build_script/kirin_kernel_release/kernel/arch/arm64/include/asm/mmu.h"
	.file	128 "/mnt/ssddisk/jslave/ci/workspace/chipset_WLZ_4g_release/opensource/component_code/vendor/huawei/extra/build/build_script/kirin_kernel_release/kernel/include/linux/uprobes.h"
	.file	129 "/mnt/ssddisk/jslave/ci/workspace/chipset_WLZ_4g_release/opensource/component_code/vendor/huawei/extra/build/build_script/kirin_kernel_release/kernel/include/linux/restart_block.h"
	.file	130 "/mnt/ssddisk/jslave/ci/workspace/chipset_WLZ_4g_release/opensource/component_code/vendor/huawei/extra/build/build_script/kirin_kernel_release/kernel/arch/arm64/include/asm/compat.h"
	.file	131 "/mnt/ssddisk/jslave/ci/workspace/chipset_WLZ_4g_release/opensource/component_code/vendor/huawei/extra/build/build_script/kirin_kernel_release/kernel/include/uapi/asm-generic/poll.h"
	.file	132 "/mnt/ssddisk/jslave/ci/workspace/chipset_WLZ_4g_release/opensource/component_code/vendor/huawei/extra/build/build_script/kirin_kernel_release/kernel/include/linux/nsproxy.h"
	.file	133 "/mnt/ssddisk/jslave/ci/workspace/chipset_WLZ_4g_release/opensource/component_code/vendor/huawei/extra/build/build_script/kirin_kernel_release/kernel/include/linux/cgroup.h"
	.file	134 "/mnt/ssddisk/jslave/ci/workspace/chipset_WLZ_4g_release/opensource/component_code/vendor/huawei/extra/build/build_script/kirin_kernel_release/kernel/include/uapi/asm-generic/signal.h"
	.file	135 "/mnt/ssddisk/jslave/ci/workspace/chipset_WLZ_4g_release/opensource/component_code/vendor/huawei/extra/build/build_script/kirin_kernel_release/kernel/include/linux/signal_types.h"
	.file	136 "/mnt/ssddisk/jslave/ci/workspace/chipset_WLZ_4g_release/opensource/component_code/vendor/huawei/extra/build/build_script/kirin_kernel_release/kernel/include/linux/seccomp.h"
	.file	137 "/mnt/ssddisk/jslave/ci/workspace/chipset_WLZ_4g_release/opensource/component_code/vendor/huawei/extra/build/build_script/kirin_kernel_release/kernel/include/uapi/asm-generic/siginfo.h"
	.file	138 "/mnt/ssddisk/jslave/ci/workspace/chipset_WLZ_4g_release/opensource/component_code/vendor/huawei/extra/build/build_script/kirin_kernel_release/kernel/include/linux/task_io_accounting.h"
	.file	139 "/mnt/ssddisk/jslave/ci/workspace/chipset_WLZ_4g_release/opensource/component_code/vendor/huawei/extra/build/build_script/kirin_kernel_release/kernel/include/linux/nodemask.h"
	.file	140 "/mnt/ssddisk/jslave/ci/workspace/chipset_WLZ_4g_release/opensource/component_code/vendor/huawei/extra/build/build_script/kirin_kernel_release/kernel/include/linux/compat.h"
	.file	141 "/mnt/ssddisk/jslave/ci/workspace/chipset_WLZ_4g_release/opensource/component_code/vendor/huawei/extra/build/build_script/kirin_kernel_release/kernel/arch/arm64/include/asm/processor.h"
	.file	142 "/mnt/ssddisk/jslave/ci/workspace/chipset_WLZ_4g_release/opensource/component_code/vendor/huawei/extra/build/build_script/kirin_kernel_release/kernel/arch/arm64/include/uapi/asm/ptrace.h"
	.file	143 "/mnt/ssddisk/jslave/ci/workspace/chipset_WLZ_4g_release/opensource/component_code/vendor/huawei/extra/build/build_script/kirin_kernel_release/kernel/arch/arm64/include/asm/fpsimd.h"
	.file	144 "/mnt/ssddisk/jslave/ci/workspace/chipset_WLZ_4g_release/opensource/component_code/vendor/huawei/extra/build/build_script/kirin_kernel_release/kernel/include/linux/pm.h"
	.file	145 "/mnt/ssddisk/jslave/ci/workspace/chipset_WLZ_4g_release/opensource/component_code/vendor/huawei/extra/build/build_script/kirin_kernel_release/kernel/include/linux/pm_wakeup.h"
	.file	146 "/mnt/ssddisk/jslave/ci/workspace/chipset_WLZ_4g_release/opensource/component_code/vendor/huawei/extra/build/build_script/kirin_kernel_release/kernel/include/linux/pinctrl/devinfo.h"
	.file	147 "/mnt/ssddisk/jslave/ci/workspace/chipset_WLZ_4g_release/opensource/component_code/vendor/huawei/extra/build/build_script/kirin_kernel_release/kernel/arch/arm64/include/asm/device.h"
	.file	148 "/mnt/ssddisk/jslave/ci/workspace/chipset_WLZ_4g_release/opensource/component_code/vendor/huawei/extra/build/build_script/kirin_kernel_release/kernel/include/linux/klist.h"
	.section	.text.hisi_blk_latency_bio_submit_func,"ax",@progbits
	.p2align	2               // -- Begin function hisi_blk_latency_bio_submit_func
	.type	hisi_blk_latency_bio_submit_func,@function
hisi_blk_latency_bio_submit_func:       // @hisi_blk_latency_bio_submit_func
.Lfunc_begin0:
	.loc	5 85 0                  // /mnt/ssddisk/jslave/ci/workspace/chipset_WLZ_4g_release/opensource/component_code/vendor/huawei/extra/build/build_script/kirin_kernel_release/kernel/block/hisi-blk-latency.c:85:0
	.cfi_sections .debug_frame
	.cfi_startproc
// %bb.0:
	str	x23, [sp, #-64]!        // 8-byte Folded Spill
	stp	x22, x21, [sp, #16]     // 16-byte Folded Spill
	stp	x20, x19, [sp, #32]     // 16-byte Folded Spill
	stp	x29, x30, [sp, #48]     // 16-byte Folded Spill
	add	x29, sp, #48            // =48
	.cfi_def_cfa w29, 16
	.cfi_offset w30, -8
	.cfi_offset w29, -16
	.cfi_offset w19, -24
	.cfi_offset w20, -32
	.cfi_offset w21, -40
	.cfi_offset w22, -48
	.cfi_offset w23, -64
	//DEBUG_VALUE: hisi_blk_latency_bio_submit_func:bio <- $x0
.Ltmp0:
	//DEBUG_VALUE: hisi_blk_setup_latency_tiemr:bio <- $x0
	//DEBUG_VALUE: bio_get:bio <- $x0
	//DEBUG_VALUE: atomic_add:v <- [DW_OP_plus_uconst 356, DW_OP_stack_value] $x0
	.loc	5 89 12 prologue_end    // /mnt/ssddisk/jslave/ci/workspace/chipset_WLZ_4g_release/opensource/component_code/vendor/huawei/extra/build/build_script/kirin_kernel_release/kernel/block/hisi-blk-latency.c:89:12
	ldr	x8, [x0, #8]
.Ltmp1:
	.loc	5 89 6 is_stmt 0        // /mnt/ssddisk/jslave/ci/workspace/chipset_WLZ_4g_release/opensource/component_code/vendor/huawei/extra/build/build_script/kirin_kernel_release/kernel/block/hisi-blk-latency.c:89:6
	cbz	x8, .LBB0_15
.Ltmp2:
// %bb.1:
	//DEBUG_VALUE: hisi_blk_setup_latency_tiemr:bio <- $x0
	//DEBUG_VALUE: hisi_blk_latency_bio_submit_func:bio <- $x0
	.loc	5 92 20 is_stmt 1       // /mnt/ssddisk/jslave/ci/workspace/chipset_WLZ_4g_release/opensource/component_code/vendor/huawei/extra/build/build_script/kirin_kernel_release/kernel/block/hisi-blk-latency.c:92:20
	ldr	x21, [x8, #1112]
.Ltmp3:
	//DEBUG_VALUE: hisi_blk_latency_bio_submit_func:q <- $x21
	//DEBUG_VALUE: hisi_blk_setup_latency_tiemr:q <- $x21
	.loc	5 93 6                  // /mnt/ssddisk/jslave/ci/workspace/chipset_WLZ_4g_release/opensource/component_code/vendor/huawei/extra/build/build_script/kirin_kernel_release/kernel/block/hisi-blk-latency.c:93:6
	cbz	x21, .LBB0_15
.Ltmp4:
// %bb.2:
	//DEBUG_VALUE: hisi_blk_latency_bio_submit_func:q <- $x21
	//DEBUG_VALUE: hisi_blk_latency_bio_submit_func:bio <- $x0
	ldrb	w8, [x21, #1681]
.Ltmp5:
	.loc	5 93 6 is_stmt 0        // /mnt/ssddisk/jslave/ci/workspace/chipset_WLZ_4g_release/opensource/component_code/vendor/huawei/extra/build/build_script/kirin_kernel_release/kernel/block/hisi-blk-latency.c:93:6
	cbz	w8, .LBB0_15
.Ltmp6:
// %bb.3:
	//DEBUG_VALUE: hisi_blk_latency_bio_submit_func:q <- $x21
	//DEBUG_VALUE: hisi_blk_latency_bio_submit_func:bio <- $x0
	.loc	5 96 6 is_stmt 1        // /mnt/ssddisk/jslave/ci/workspace/chipset_WLZ_4g_release/opensource/component_code/vendor/huawei/extra/build/build_script/kirin_kernel_release/kernel/block/hisi-blk-latency.c:96:6
	ldrb	w8, [x0, #137]
	mov	x19, x0
.Ltmp7:
	//DEBUG_VALUE: hisi_blk_latency_bio_submit_func:bio <- $x19
	//DEBUG_VALUE: hisi_blk_setup_latency_tiemr:bio <- $x19
	//DEBUG_VALUE: bio_get:bio <- $x19
	//DEBUG_VALUE: atomic_add:v <- [DW_OP_plus_uconst 356, DW_OP_stack_value] $x19
	.loc	5 96 6 is_stmt 0        // /mnt/ssddisk/jslave/ci/workspace/chipset_WLZ_4g_release/opensource/component_code/vendor/huawei/extra/build/build_script/kirin_kernel_release/kernel/block/hisi-blk-latency.c:96:6
	cmp	w8, #76                 // =76
	b.eq	.LBB0_14
.Ltmp8:
// %bb.4:
	//DEBUG_VALUE: hisi_blk_setup_latency_tiemr:bio <- $x19
	//DEBUG_VALUE: hisi_blk_latency_bio_submit_func:bio <- $x19
	//DEBUG_VALUE: hisi_blk_latency_bio_submit_func:q <- $x21
	.loc	5 54 2 is_stmt 1        // /mnt/ssddisk/jslave/ci/workspace/chipset_WLZ_4g_release/opensource/component_code/vendor/huawei/extra/build/build_script/kirin_kernel_release/kernel/block/hisi-blk-latency.c:54:2
	add	x20, x19, #176          // =176
	orr	w8, wzr, #0x1
.Ltmp9:
	//DEBUG_VALUE: hisi_blk_setup_latency_tiemr:target_cpu <- -1
	mov	x0, x20
	mov	w1, wzr
	mov	x2, xzr
	mov	x3, xzr
	.loc	5 53 38                 // /mnt/ssddisk/jslave/ci/workspace/chipset_WLZ_4g_release/opensource/component_code/vendor/huawei/extra/build/build_script/kirin_kernel_release/kernel/block/hisi-blk-latency.c:53:38
	str	w8, [x19, #224]
	.loc	5 54 2                  // /mnt/ssddisk/jslave/ci/workspace/chipset_WLZ_4g_release/opensource/component_code/vendor/huawei/extra/build/build_script/kirin_kernel_release/kernel/block/hisi-blk-latency.c:54:2
	bl	init_timer_key
	.loc	5 56 46                 // /mnt/ssddisk/jslave/ci/workspace/chipset_WLZ_4g_release/opensource/component_code/vendor/huawei/extra/build/build_script/kirin_kernel_release/kernel/block/hisi-blk-latency.c:56:46
	adrp	x8, __hisi_blk_latency_check_timer_expire
	add	x8, x8, :lo12:__hisi_blk_latency_check_timer_expire
.Ltmp10:
	.loc	5 59 6                  // /mnt/ssddisk/jslave/ci/workspace/chipset_WLZ_4g_release/opensource/component_code/vendor/huawei/extra/build/build_script/kirin_kernel_release/kernel/block/hisi-blk-latency.c:59:6
	mov	x0, x19
.Ltmp11:
	.loc	5 56 46                 // /mnt/ssddisk/jslave/ci/workspace/chipset_WLZ_4g_release/opensource/component_code/vendor/huawei/extra/build/build_script/kirin_kernel_release/kernel/block/hisi-blk-latency.c:56:46
	stp	x8, x19, [x19, #200]
.Ltmp12:
	.loc	5 59 6                  // /mnt/ssddisk/jslave/ci/workspace/chipset_WLZ_4g_release/opensource/component_code/vendor/huawei/extra/build/build_script/kirin_kernel_release/kernel/block/hisi-blk-latency.c:59:6
	bl	hisi_blk_bio_is_cp
	.loc	5 0 0 is_stmt 0         // /mnt/ssddisk/jslave/ci/workspace/chipset_WLZ_4g_release/opensource/component_code/vendor/huawei/extra/build/build_script/kirin_kernel_release/kernel/block/hisi-blk-latency.c:0:0
	adrp	x8, jiffies
	ldr	x22, [x8, :lo12:jiffies]
.Ltmp13:
	.loc	5 59 6                  // /mnt/ssddisk/jslave/ci/workspace/chipset_WLZ_4g_release/opensource/component_code/vendor/huawei/extra/build/build_script/kirin_kernel_release/kernel/block/hisi-blk-latency.c:59:6
	tbz	w0, #0, .LBB0_6
.Ltmp14:
// %bb.5:
	//DEBUG_VALUE: hisi_blk_setup_latency_tiemr:bio <- $x19
	//DEBUG_VALUE: hisi_blk_latency_bio_submit_func:bio <- $x19
	//DEBUG_VALUE: hisi_blk_latency_bio_submit_func:q <- $x21
	.loc	5 0 6                   // /mnt/ssddisk/jslave/ci/workspace/chipset_WLZ_4g_release/opensource/component_code/vendor/huawei/extra/build/build_script/kirin_kernel_release/kernel/block/hisi-blk-latency.c:0:6
	mov	w0, #1000
	b	.LBB0_7
.Ltmp15:
.LBB0_6:
	//DEBUG_VALUE: hisi_blk_setup_latency_tiemr:bio <- $x19
	//DEBUG_VALUE: hisi_blk_latency_bio_submit_func:bio <- $x19
	//DEBUG_VALUE: hisi_blk_latency_bio_submit_func:q <- $x21
	.loc	5 65 35 is_stmt 1       // /mnt/ssddisk/jslave/ci/workspace/chipset_WLZ_4g_release/opensource/component_code/vendor/huawei/extra/build/build_script/kirin_kernel_release/kernel/block/hisi-blk-latency.c:65:35
	ldr	w0, [x21, #1684]
.Ltmp16:
	//DEBUG_VALUE: msecs_to_jiffies:m <- $w0
.LBB0_7:
	//DEBUG_VALUE: hisi_blk_setup_latency_tiemr:bio <- $x19
	//DEBUG_VALUE: hisi_blk_latency_bio_submit_func:bio <- $x19
	//DEBUG_VALUE: hisi_blk_latency_bio_submit_func:q <- $x21
	.loc	5 0 0 is_stmt 0         // /mnt/ssddisk/jslave/ci/workspace/chipset_WLZ_4g_release/opensource/component_code/vendor/huawei/extra/build/build_script/kirin_kernel_release/kernel/block/hisi-blk-latency.c:0:0
	bl	__msecs_to_jiffies
.Ltmp17:
	.loc	111 254 16 is_stmt 1    // /mnt/ssddisk/jslave/ci/workspace/chipset_WLZ_4g_release/opensource/component_code/vendor/huawei/extra/build/build_script/kirin_kernel_release/kernel/include/linux/bio.h:254:16
	ldrh	w8, [x19, #20]
.Ltmp18:
	.loc	5 0 0 is_stmt 0         // /mnt/ssddisk/jslave/ci/workspace/chipset_WLZ_4g_release/opensource/component_code/vendor/huawei/extra/build/build_script/kirin_kernel_release/kernel/block/hisi-blk-latency.c:0:0
	add	x9, x0, x22
	.loc	5 63 46 is_stmt 1       // /mnt/ssddisk/jslave/ci/workspace/chipset_WLZ_4g_release/opensource/component_code/vendor/huawei/extra/build/build_script/kirin_kernel_release/kernel/block/hisi-blk-latency.c:63:46
	str	x9, [x19, #192]
.Ltmp19:
	.file	149 "/mnt/ssddisk/jslave/ci/workspace/chipset_WLZ_4g_release/opensource/component_code/vendor/huawei/extra/build/build_script/kirin_kernel_release/kernel/arch/arm64/include/asm/atomic_ll_sc.h"
	.loc	149 113 1               // /mnt/ssddisk/jslave/ci/workspace/chipset_WLZ_4g_release/opensource/component_code/vendor/huawei/extra/build/build_script/kirin_kernel_release/kernel/arch/arm64/include/asm/atomic_ll_sc.h:113:1
	add	x10, x19, #356          // =356
.Ltmp20:
	.loc	111 254 16              // /mnt/ssddisk/jslave/ci/workspace/chipset_WLZ_4g_release/opensource/component_code/vendor/huawei/extra/build/build_script/kirin_kernel_release/kernel/include/linux/bio.h:254:16
	orr	w8, w8, #0x100
	strh	w8, [x19, #20]
	.loc	111 255 2               // /mnt/ssddisk/jslave/ci/workspace/chipset_WLZ_4g_release/opensource/component_code/vendor/huawei/extra/build/build_script/kirin_kernel_release/kernel/include/linux/bio.h:255:2
	//APP
	dmb ish
	//NO_APP
.Ltmp21:
	//DEBUG_VALUE: atomic_add:i <- 1
	.loc	149 113 1               // /mnt/ssddisk/jslave/ci/workspace/chipset_WLZ_4g_release/opensource/component_code/vendor/huawei/extra/build/build_script/kirin_kernel_release/kernel/arch/arm64/include/asm/atomic_ll_sc.h:113:1
	//APP
	// atomic_add
	prfm	pstl1strm, [x10]
1:	ldxr	w8, [x10]
	add	w8, w8, #1
	stxr	w9, w8, [x10]
	cbnz	w9, 1b
	//NO_APP
.Ltmp22:
	.loc	5 68 14                 // /mnt/ssddisk/jslave/ci/workspace/chipset_WLZ_4g_release/opensource/component_code/vendor/huawei/extra/build/build_script/kirin_kernel_release/kernel/block/hisi-blk-latency.c:68:14
	adrp	x22, cpu_number
.Ltmp23:
	.file	150 "/mnt/ssddisk/jslave/ci/workspace/chipset_WLZ_4g_release/opensource/component_code/vendor/huawei/extra/build/build_script/kirin_kernel_release/kernel/arch/arm64/include/asm/percpu.h"
	.loc	150 38 2                // /mnt/ssddisk/jslave/ci/workspace/chipset_WLZ_4g_release/opensource/component_code/vendor/huawei/extra/build/build_script/kirin_kernel_release/kernel/arch/arm64/include/asm/percpu.h:38:2
	//APP
	.if 1 == 1
661:
	mrs x8, tpidr_el1
662:
.pushsection .altinstructions,"a"
 .word 661b - .
 .if 0 == 0
 .word 663f - .
 .else
 .word 0- .
 .endif
 .hword 11
 .byte 662b-661b
 .byte 664f-663f
.popsection
 .if 0 == 0
.pushsection .altinstr_replacement, "a"
663:
	mrs x8, tpidr_el2
664:
	.popsection
	.org	. - (664b-663b) + (662b-661b)
	.org	. - (662b-661b) + (664b-663b)
.else
	663:
	664:
	.endif
.endif

	//NO_APP
.Ltmp24:
	//DEBUG_VALUE: __my_cpu_offset:off <- $x8
	.loc	5 68 14                 // /mnt/ssddisk/jslave/ci/workspace/chipset_WLZ_4g_release/opensource/component_code/vendor/huawei/extra/build/build_script/kirin_kernel_release/kernel/block/hisi-blk-latency.c:68:14
	add	x22, x22, :lo12:cpu_number
	//APP
	//NO_APP
.Ltmp25:
	//DEBUG_VALUE: __ptr <- $x22
	//DEBUG_VALUE: __ptr <- $x22
	//DEBUG_VALUE: __ptr <- $x22
	.loc	5 68 14 is_stmt 0       // /mnt/ssddisk/jslave/ci/workspace/chipset_WLZ_4g_release/opensource/component_code/vendor/huawei/extra/build/build_script/kirin_kernel_release/kernel/block/hisi-blk-latency.c:68:14
	ldr	w8, [x8, x22]
.Ltmp26:
	.loc	5 68 37                 // /mnt/ssddisk/jslave/ci/workspace/chipset_WLZ_4g_release/opensource/component_code/vendor/huawei/extra/build/build_script/kirin_kernel_release/kernel/block/hisi-blk-latency.c:68:37
	add	w9, w8, #1              // =1
	.loc	5 68 42                 // /mnt/ssddisk/jslave/ci/workspace/chipset_WLZ_4g_release/opensource/component_code/vendor/huawei/extra/build/build_script/kirin_kernel_release/kernel/block/hisi-blk-latency.c:68:42
	add	w10, w8, #8             // =8
	cmp	w9, #0                  // =0
	csinc	w8, w10, w8, lt
.Ltmp27:
	.file	151 "/mnt/ssddisk/jslave/ci/workspace/chipset_WLZ_4g_release/opensource/component_code/vendor/huawei/extra/build/build_script/kirin_kernel_release/kernel/include/asm-generic/bitops/non-atomic.h"
	.loc	151 106 16 is_stmt 1    // /mnt/ssddisk/jslave/ci/workspace/chipset_WLZ_4g_release/opensource/component_code/vendor/huawei/extra/build/build_script/kirin_kernel_release/kernel/include/asm-generic/bitops/non-atomic.h:106:16
	adrp	x10, __cpu_online_mask
	ldr	x10, [x10, :lo12:__cpu_online_mask]
.Ltmp28:
	.loc	5 68 42                 // /mnt/ssddisk/jslave/ci/workspace/chipset_WLZ_4g_release/opensource/component_code/vendor/huawei/extra/build/build_script/kirin_kernel_release/kernel/block/hisi-blk-latency.c:68:42
	and	w8, w8, #0xfffffff8
	sub	w1, w9, w8
.Ltmp29:
	//DEBUG_VALUE: test_bit:nr <- $w1
	//DEBUG_VALUE: cpumask_test_cpu:cpu <- $w1
	//DEBUG_VALUE: hisi_blk_setup_latency_tiemr:next_cpu <- $w1
	.loc	5 0 42 is_stmt 0        // /mnt/ssddisk/jslave/ci/workspace/chipset_WLZ_4g_release/opensource/component_code/vendor/huawei/extra/build/build_script/kirin_kernel_release/kernel/block/hisi-blk-latency.c:0:42
	orr	w8, wzr, #0x1
.Ltmp30:
	.loc	5 69 6 is_stmt 1        // /mnt/ssddisk/jslave/ci/workspace/chipset_WLZ_4g_release/opensource/component_code/vendor/huawei/extra/build/build_script/kirin_kernel_release/kernel/block/hisi-blk-latency.c:69:6
	lsl	x8, x8, x1
	tst	x8, x10
.Ltmp31:
	.loc	5 69 6 is_stmt 0        // /mnt/ssddisk/jslave/ci/workspace/chipset_WLZ_4g_release/opensource/component_code/vendor/huawei/extra/build/build_script/kirin_kernel_release/kernel/block/hisi-blk-latency.c:69:6
	b.ne	.LBB0_11
.Ltmp32:
// %bb.8:
	//DEBUG_VALUE: hisi_blk_setup_latency_tiemr:next_cpu <- $w1
	//DEBUG_VALUE: cpumask_test_cpu:cpu <- $w1
	//DEBUG_VALUE: test_bit:nr <- $w1
	//DEBUG_VALUE: __ptr <- $x22
	//DEBUG_VALUE: __ptr <- $x22
	//DEBUG_VALUE: __ptr <- $x22
	//DEBUG_VALUE: hisi_blk_setup_latency_tiemr:bio <- $x19
	//DEBUG_VALUE: hisi_blk_latency_bio_submit_func:bio <- $x19
	//DEBUG_VALUE: hisi_blk_latency_bio_submit_func:q <- $x21
	.loc	5 0 6                   // /mnt/ssddisk/jslave/ci/workspace/chipset_WLZ_4g_release/opensource/component_code/vendor/huawei/extra/build/build_script/kirin_kernel_release/kernel/block/hisi-blk-latency.c:0:6
	adrp	x21, __cpu_online_mask
.Ltmp33:
	mov	w1, #-1
.Ltmp34:
	add	x21, x21, :lo12:__cpu_online_mask
	adrp	x23, nr_cpu_ids
.Ltmp35:
.LBB0_9:                                // =>This Inner Loop Header: Depth=1
	//DEBUG_VALUE: hisi_blk_setup_latency_tiemr:bio <- $x19
	//DEBUG_VALUE: hisi_blk_latency_bio_submit_func:bio <- $x19
	//DEBUG_VALUE: hisi_blk_setup_latency_tiemr:target_cpu <- $w1
	.loc	5 72 3 is_stmt 1        // /mnt/ssddisk/jslave/ci/workspace/chipset_WLZ_4g_release/opensource/component_code/vendor/huawei/extra/build/build_script/kirin_kernel_release/kernel/block/hisi-blk-latency.c:72:3
	mov	w0, w1
	mov	x1, x21
.Ltmp36:
	bl	cpumask_next
	ldr	w8, [x23, :lo12:nr_cpu_ids]
	mov	w1, w0
.Ltmp37:
	//DEBUG_VALUE: hisi_blk_setup_latency_tiemr:target_cpu <- $w1
	.loc	5 72 3 is_stmt 0        // /mnt/ssddisk/jslave/ci/workspace/chipset_WLZ_4g_release/opensource/component_code/vendor/huawei/extra/build/build_script/kirin_kernel_release/kernel/block/hisi-blk-latency.c:72:3
	cmp	w0, w8
	b.hs	.LBB0_11
.Ltmp38:
// %bb.10:                              //   in Loop: Header=BB0_9 Depth=1
	//DEBUG_VALUE: hisi_blk_setup_latency_tiemr:target_cpu <- $w1
	//DEBUG_VALUE: hisi_blk_setup_latency_tiemr:bio <- $x19
	//DEBUG_VALUE: hisi_blk_latency_bio_submit_func:bio <- $x19
	.loc	150 38 2 is_stmt 1      // /mnt/ssddisk/jslave/ci/workspace/chipset_WLZ_4g_release/opensource/component_code/vendor/huawei/extra/build/build_script/kirin_kernel_release/kernel/arch/arm64/include/asm/percpu.h:38:2
	//APP
	.if 1 == 1
661:
	mrs x8, tpidr_el1
662:
.pushsection .altinstructions,"a"
 .word 661b - .
 .if 0 == 0
 .word 663f - .
 .else
 .word 0- .
 .endif
 .hword 11
 .byte 662b-661b
 .byte 664f-663f
.popsection
 .if 0 == 0
.pushsection .altinstr_replacement, "a"
663:
	mrs x8, tpidr_el2
664:
	.popsection
	.org	. - (664b-663b) + (662b-661b)
	.org	. - (662b-661b) + (664b-663b)
.else
	663:
	664:
	.endif
.endif

	//NO_APP
.Ltmp39:
	//DEBUG_VALUE: __my_cpu_offset:off <- $x8
	.loc	5 74 6                  // /mnt/ssddisk/jslave/ci/workspace/chipset_WLZ_4g_release/opensource/component_code/vendor/huawei/extra/build/build_script/kirin_kernel_release/kernel/block/hisi-blk-latency.c:74:6
	ldr	w8, [x8, x22]
.Ltmp40:
	.loc	5 73 20                 // /mnt/ssddisk/jslave/ci/workspace/chipset_WLZ_4g_release/opensource/component_code/vendor/huawei/extra/build/build_script/kirin_kernel_release/kernel/block/hisi-blk-latency.c:73:20
	cmp	w1, w8
	b.eq	.LBB0_9
.Ltmp41:
.LBB0_11:
	//DEBUG_VALUE: hisi_blk_setup_latency_tiemr:bio <- $x19
	//DEBUG_VALUE: hisi_blk_latency_bio_submit_func:bio <- $x19
	//DEBUG_VALUE: hisi_blk_setup_latency_tiemr:target_cpu <- $w1
	.loc	5 75 21                 // /mnt/ssddisk/jslave/ci/workspace/chipset_WLZ_4g_release/opensource/component_code/vendor/huawei/extra/build/build_script/kirin_kernel_release/kernel/block/hisi-blk-latency.c:75:21
	cmp	w1, #8                  // =8
	b.lo	.LBB0_13
.Ltmp42:
// %bb.12:
	//DEBUG_VALUE: hisi_blk_setup_latency_tiemr:target_cpu <- $w1
	//DEBUG_VALUE: hisi_blk_setup_latency_tiemr:bio <- $x19
	//DEBUG_VALUE: hisi_blk_latency_bio_submit_func:bio <- $x19
	.loc	150 38 2                // /mnt/ssddisk/jslave/ci/workspace/chipset_WLZ_4g_release/opensource/component_code/vendor/huawei/extra/build/build_script/kirin_kernel_release/kernel/arch/arm64/include/asm/percpu.h:38:2
	//APP
	.if 1 == 1
661:
	mrs x8, tpidr_el1
662:
.pushsection .altinstructions,"a"
 .word 661b - .
 .if 0 == 0
 .word 663f - .
 .else
 .word 0- .
 .endif
 .hword 11
 .byte 662b-661b
 .byte 664f-663f
.popsection
 .if 0 == 0
.pushsection .altinstr_replacement, "a"
663:
	mrs x8, tpidr_el2
664:
	.popsection
	.org	. - (664b-663b) + (662b-661b)
	.org	. - (662b-661b) + (664b-663b)
.else
	663:
	664:
	.endif
.endif

	//NO_APP
.Ltmp43:
	//DEBUG_VALUE: __my_cpu_offset:off <- $x8
	.loc	5 76 16                 // /mnt/ssddisk/jslave/ci/workspace/chipset_WLZ_4g_release/opensource/component_code/vendor/huawei/extra/build/build_script/kirin_kernel_release/kernel/block/hisi-blk-latency.c:76:16
	ldr	w1, [x8, x22]
.Ltmp44:
	//DEBUG_VALUE: hisi_blk_setup_latency_tiemr:target_cpu <- $w1
.LBB0_13:
	//DEBUG_VALUE: hisi_blk_setup_latency_tiemr:target_cpu <- $w1
	//DEBUG_VALUE: hisi_blk_setup_latency_tiemr:bio <- $x19
	//DEBUG_VALUE: hisi_blk_latency_bio_submit_func:bio <- $x19
	//DEBUG_VALUE: hisi_blk_setup_latency_tiemr:target_cpu <- $w1
	.loc	5 77 2                  // /mnt/ssddisk/jslave/ci/workspace/chipset_WLZ_4g_release/opensource/component_code/vendor/huawei/extra/build/build_script/kirin_kernel_release/kernel/block/hisi-blk-latency.c:77:2
	mov	x0, x20
                                        // kill: def $w1 killed $w1 killed $x1
.Ltmp45:
	bl	add_timer_on
.Ltmp46:
	.file	152 "/mnt/ssddisk/jslave/ci/workspace/chipset_WLZ_4g_release/opensource/component_code/vendor/huawei/extra/build/build_script/kirin_kernel_release/kernel/arch/arm64/include/asm/current.h"
	.loc	152 19 2                // /mnt/ssddisk/jslave/ci/workspace/chipset_WLZ_4g_release/opensource/component_code/vendor/huawei/extra/build/build_script/kirin_kernel_release/kernel/arch/arm64/include/asm/current.h:19:2
	//APP
	mrs x8, sp_el0
	//NO_APP
.Ltmp47:
	//DEBUG_VALUE: get_current:sp_el0 <- $x8
	//DEBUG_VALUE: get_current:sp_el0 <- $x8
	//DEBUG_VALUE: get_current:sp_el0 <- $x8
	//DEBUG_VALUE: get_current:sp_el0 <- $x8
	.loc	5 78 30                 // /mnt/ssddisk/jslave/ci/workspace/chipset_WLZ_4g_release/opensource/component_code/vendor/huawei/extra/build/build_script/kirin_kernel_release/kernel/block/hisi-blk-latency.c:78:30
	str	x8, [x19, #104]
	.loc	5 79 36                 // /mnt/ssddisk/jslave/ci/workspace/chipset_WLZ_4g_release/opensource/component_code/vendor/huawei/extra/build/build_script/kirin_kernel_release/kernel/block/hisi-blk-latency.c:79:36
	ldr	w9, [x8, #1928]
	.loc	5 79 25 is_stmt 0       // /mnt/ssddisk/jslave/ci/workspace/chipset_WLZ_4g_release/opensource/component_code/vendor/huawei/extra/build/build_script/kirin_kernel_release/kernel/block/hisi-blk-latency.c:79:25
	str	w9, [x19, #112]
	.loc	5 80 37 is_stmt 1       // /mnt/ssddisk/jslave/ci/workspace/chipset_WLZ_4g_release/opensource/component_code/vendor/huawei/extra/build/build_script/kirin_kernel_release/kernel/block/hisi-blk-latency.c:80:37
	ldr	w9, [x8, #1932]
	.loc	5 80 26 is_stmt 0       // /mnt/ssddisk/jslave/ci/workspace/chipset_WLZ_4g_release/opensource/component_code/vendor/huawei/extra/build/build_script/kirin_kernel_release/kernel/block/hisi-blk-latency.c:80:26
	str	w9, [x19, #116]
	.loc	5 81 2 is_stmt 1        // /mnt/ssddisk/jslave/ci/workspace/chipset_WLZ_4g_release/opensource/component_code/vendor/huawei/extra/build/build_script/kirin_kernel_release/kernel/block/hisi-blk-latency.c:81:2
	ldr	x9, [x8, #2392]
	ldr	x8, [x8, #2400]
.Ltmp48:
	stp	x9, x8, [x19, #120]
.Ltmp49:
.LBB0_14:
	//DEBUG_VALUE: hisi_blk_latency_bio_submit_func:bio <- $x19
	.loc	5 0 2 is_stmt 0         // /mnt/ssddisk/jslave/ci/workspace/chipset_WLZ_4g_release/opensource/component_code/vendor/huawei/extra/build/build_script/kirin_kernel_release/kernel/block/hisi-blk-latency.c:0:2
	mov	w8, #76
	.loc	5 100 23 is_stmt 1      // /mnt/ssddisk/jslave/ci/workspace/chipset_WLZ_4g_release/opensource/component_code/vendor/huawei/extra/build/build_script/kirin_kernel_release/kernel/block/hisi-blk-latency.c:100:23
	str	xzr, [x19, #96]
.Ltmp50:
	//DEBUG_VALUE: hisi_blk_latency_bio_submit_func:i <- 0
	.loc	5 102 36                // /mnt/ssddisk/jslave/ci/workspace/chipset_WLZ_4g_release/opensource/component_code/vendor/huawei/extra/build/build_script/kirin_kernel_release/kernel/block/hisi-blk-latency.c:102:36
	stp	xzr, xzr, [x19, #160]
.Ltmp51:
	.loc	5 99 27                 // /mnt/ssddisk/jslave/ci/workspace/chipset_WLZ_4g_release/opensource/component_code/vendor/huawei/extra/build/build_script/kirin_kernel_release/kernel/block/hisi-blk-latency.c:99:27
	strb	w8, [x19, #137]
.Ltmp52:
	.loc	5 102 36                // /mnt/ssddisk/jslave/ci/workspace/chipset_WLZ_4g_release/opensource/component_code/vendor/huawei/extra/build/build_script/kirin_kernel_release/kernel/block/hisi-blk-latency.c:102:36
	stp	xzr, xzr, [x19, #144]
.Ltmp53:
.LBB0_15:
	.loc	5 110 1                 // /mnt/ssddisk/jslave/ci/workspace/chipset_WLZ_4g_release/opensource/component_code/vendor/huawei/extra/build/build_script/kirin_kernel_release/kernel/block/hisi-blk-latency.c:110:1
	ldp	x29, x30, [sp, #48]     // 16-byte Folded Reload
	ldp	x20, x19, [sp, #32]     // 16-byte Folded Reload
	ldp	x22, x21, [sp, #16]     // 16-byte Folded Reload
	ldr	x23, [sp], #64          // 8-byte Folded Reload
	ret
.Ltmp54:
.Lfunc_end0:
	.size	hisi_blk_latency_bio_submit_func, .Lfunc_end0-hisi_blk_latency_bio_submit_func
	.cfi_endproc
                                        // -- End function
	.section	.text.hisi_blk_latency_bio_endio_func,"ax",@progbits
	.p2align	2               // -- Begin function hisi_blk_latency_bio_endio_func
	.type	hisi_blk_latency_bio_endio_func,@function
hisi_blk_latency_bio_endio_func:        // @hisi_blk_latency_bio_endio_func
.Lfunc_begin1:
	.loc	5 113 0                 // /mnt/ssddisk/jslave/ci/workspace/chipset_WLZ_4g_release/opensource/component_code/vendor/huawei/extra/build/build_script/kirin_kernel_release/kernel/block/hisi-blk-latency.c:113:0
	.cfi_startproc
// %bb.0:
	stp	x20, x19, [sp, #-32]!   // 16-byte Folded Spill
	stp	x29, x30, [sp, #16]     // 16-byte Folded Spill
	add	x29, sp, #16            // =16
	.cfi_def_cfa w29, 16
	.cfi_offset w30, -8
	.cfi_offset w29, -16
	.cfi_offset w19, -24
	.cfi_offset w20, -32
	//DEBUG_VALUE: hisi_blk_latency_bio_endio_func:bio <- $x0
.Ltmp55:
	.loc	152 19 2 prologue_end   // /mnt/ssddisk/jslave/ci/workspace/chipset_WLZ_4g_release/opensource/component_code/vendor/huawei/extra/build/build_script/kirin_kernel_release/kernel/arch/arm64/include/asm/current.h:19:2
	//APP
	mrs x8, sp_el0
	//NO_APP
.Ltmp56:
	//DEBUG_VALUE: __read_once_size:size <- 4
	//DEBUG_VALUE: __read_once_size:res <- undef
	//DEBUG_VALUE: __read_once_size:p <- [DW_OP_plus_uconst 16, DW_OP_stack_value] $x8
	//DEBUG_VALUE: get_current:sp_el0 <- $x8
	.file	153 "/mnt/ssddisk/jslave/ci/workspace/chipset_WLZ_4g_release/opensource/component_code/vendor/huawei/extra/build/build_script/kirin_kernel_release/kernel/include/linux/compiler.h"
	.loc	153 186 2               // /mnt/ssddisk/jslave/ci/workspace/chipset_WLZ_4g_release/opensource/component_code/vendor/huawei/extra/build/build_script/kirin_kernel_release/kernel/include/linux/compiler.h:186:2
	ldr	w20, [x8, #16]
	mov	x19, x0
.Ltmp57:
	//DEBUG_VALUE: hisi_blk_latency_bio_endio_func:bio <- $x19
	.loc	5 116 27                // /mnt/ssddisk/jslave/ci/workspace/chipset_WLZ_4g_release/opensource/component_code/vendor/huawei/extra/build/build_script/kirin_kernel_release/kernel/block/hisi-blk-latency.c:116:27
	strb	wzr, [x0, #137]
.Ltmp58:
	.loc	5 118 6                 // /mnt/ssddisk/jslave/ci/workspace/chipset_WLZ_4g_release/opensource/component_code/vendor/huawei/extra/build/build_script/kirin_kernel_release/kernel/block/hisi-blk-latency.c:118:6
	add	x0, x0, #176            // =176
	bl	del_timer
.Ltmp59:
	.loc	5 118 6 is_stmt 0       // /mnt/ssddisk/jslave/ci/workspace/chipset_WLZ_4g_release/opensource/component_code/vendor/huawei/extra/build/build_script/kirin_kernel_release/kernel/block/hisi-blk-latency.c:118:6
	cbz	w0, .LBB1_3
.Ltmp60:
// %bb.1:
	//DEBUG_VALUE: hisi_blk_latency_bio_endio_func:bio <- $x19
	.loc	5 119 3 is_stmt 1       // /mnt/ssddisk/jslave/ci/workspace/chipset_WLZ_4g_release/opensource/component_code/vendor/huawei/extra/build/build_script/kirin_kernel_release/kernel/block/hisi-blk-latency.c:119:3
	mov	x0, x19
	bl	bio_put
.Ltmp61:
.LBB1_2:
	//DEBUG_VALUE: hisi_blk_latency_bio_endio_func:bio <- $x19
	.loc	5 129 38                // /mnt/ssddisk/jslave/ci/workspace/chipset_WLZ_4g_release/opensource/component_code/vendor/huawei/extra/build/build_script/kirin_kernel_release/kernel/block/hisi-blk-latency.c:129:38
	str	wzr, [x19, #224]
	.loc	5 131 23                // /mnt/ssddisk/jslave/ci/workspace/chipset_WLZ_4g_release/opensource/component_code/vendor/huawei/extra/build/build_script/kirin_kernel_release/kernel/block/hisi-blk-latency.c:131:23
	str	xzr, [x19, #96]
	.loc	5 132 1                 // /mnt/ssddisk/jslave/ci/workspace/chipset_WLZ_4g_release/opensource/component_code/vendor/huawei/extra/build/build_script/kirin_kernel_release/kernel/block/hisi-blk-latency.c:132:1
	ldp	x29, x30, [sp, #16]     // 16-byte Folded Reload
	ldp	x20, x19, [sp], #32     // 16-byte Folded Reload
.Ltmp62:
	ret
.LBB1_3:
.Ltmp63:
	//DEBUG_VALUE: hisi_blk_latency_bio_endio_func:bio <- $x19
	.loc	5 121 24                // /mnt/ssddisk/jslave/ci/workspace/chipset_WLZ_4g_release/opensource/component_code/vendor/huawei/extra/build/build_script/kirin_kernel_release/kernel/block/hisi-blk-latency.c:121:24
	ldr	w8, [x19, #224]
	.loc	5 121 46 is_stmt 0      // /mnt/ssddisk/jslave/ci/workspace/chipset_WLZ_4g_release/opensource/component_code/vendor/huawei/extra/build/build_script/kirin_kernel_release/kernel/block/hisi-blk-latency.c:121:46
	cbz	w8, .LBB1_2
.Ltmp64:
// %bb.4:
	//DEBUG_VALUE: hisi_blk_latency_bio_endio_func:bio <- $x19
	.loc	5 0 46                  // /mnt/ssddisk/jslave/ci/workspace/chipset_WLZ_4g_release/opensource/component_code/vendor/huawei/extra/build/build_script/kirin_kernel_release/kernel/block/hisi-blk-latency.c:0:46
	mov	x10, #-34463
	.loc	5 114 110 is_stmt 1     // /mnt/ssddisk/jslave/ci/workspace/chipset_WLZ_4g_release/opensource/component_code/vendor/huawei/extra/build/build_script/kirin_kernel_release/kernel/block/hisi-blk-latency.c:114:110
	tst	w20, #0x1fff00
	mov	x9, #-999
	movk	x10, #65534, lsl #16
	mov	w8, wzr
	csel	x9, x10, x9, eq
.Ltmp65:
.LBB1_5:                                // =>This Inner Loop Header: Depth=1
	//DEBUG_VALUE: hisi_blk_latency_bio_endio_func:bio <- $x19
	//DEBUG_VALUE: hisi_blk_latency_bio_endio_func:timeout <- undef
	.loc	5 121 3                 // /mnt/ssddisk/jslave/ci/workspace/chipset_WLZ_4g_release/opensource/component_code/vendor/huawei/extra/build/build_script/kirin_kernel_release/kernel/block/hisi-blk-latency.c:121:3
	tbnz	w8, #0, .LBB1_2
.Ltmp66:
// %bb.6:                               //   in Loop: Header=BB1_5 Depth=1
	//DEBUG_VALUE: hisi_blk_latency_bio_endio_func:bio <- $x19
	.loc	5 122 4                 // /mnt/ssddisk/jslave/ci/workspace/chipset_WLZ_4g_release/opensource/component_code/vendor/huawei/extra/build/build_script/kirin_kernel_release/kernel/block/hisi-blk-latency.c:122:4
	mov	w0, #42950
	mov	x20, x9
	bl	__const_udelay
.Ltmp67:
	//DEBUG_VALUE: hisi_blk_latency_bio_endio_func:timeout <- [DW_OP_constu 1, DW_OP_minus, DW_OP_stack_value] undef
	.loc	5 121 24                // /mnt/ssddisk/jslave/ci/workspace/chipset_WLZ_4g_release/opensource/component_code/vendor/huawei/extra/build/build_script/kirin_kernel_release/kernel/block/hisi-blk-latency.c:121:24
	ldr	w10, [x19, #224]
	.loc	5 0 0 is_stmt 0         // /mnt/ssddisk/jslave/ci/workspace/chipset_WLZ_4g_release/opensource/component_code/vendor/huawei/extra/build/build_script/kirin_kernel_release/kernel/block/hisi-blk-latency.c:0:0
	cmp	x20, #0                 // =0
	cset	w8, eq
	.loc	5 121 46                // /mnt/ssddisk/jslave/ci/workspace/chipset_WLZ_4g_release/opensource/component_code/vendor/huawei/extra/build/build_script/kirin_kernel_release/kernel/block/hisi-blk-latency.c:121:46
	add	x9, x20, #1             // =1
	cbnz	w10, .LBB1_5
.Ltmp68:
// %bb.7:
	//DEBUG_VALUE: hisi_blk_latency_bio_endio_func:bio <- $x19
	//DEBUG_VALUE: hisi_blk_latency_bio_endio_func:timeout <- undef
	.loc	5 124 7 is_stmt 1       // /mnt/ssddisk/jslave/ci/workspace/chipset_WLZ_4g_release/opensource/component_code/vendor/huawei/extra/build/build_script/kirin_kernel_release/kernel/block/hisi-blk-latency.c:124:7
	cbnz	x20, .LBB1_2
.Ltmp69:
// %bb.8:
	//DEBUG_VALUE: hisi_blk_latency_bio_endio_func:bio <- $x19
	adrp	x0, .L__func__.hisi_blk_latency_bio_endio_func
	add	x0, x0, :lo12:.L__func__.hisi_blk_latency_bio_endio_func
	bl	__printk_ratelimit
.Ltmp70:
	.loc	5 124 7 is_stmt 0       // /mnt/ssddisk/jslave/ci/workspace/chipset_WLZ_4g_release/opensource/component_code/vendor/huawei/extra/build/build_script/kirin_kernel_release/kernel/block/hisi-blk-latency.c:124:7
	cbz	w0, .LBB1_2
.Ltmp71:
// %bb.9:
	//DEBUG_VALUE: hisi_blk_latency_bio_endio_func:bio <- $x19
	.loc	5 125 4 is_stmt 1       // /mnt/ssddisk/jslave/ci/workspace/chipset_WLZ_4g_release/opensource/component_code/vendor/huawei/extra/build/build_script/kirin_kernel_release/kernel/block/hisi-blk-latency.c:125:4
	adrp	x0, .L.str.24
	add	x0, x0, :lo12:.L.str.24
	bl	printk
	.loc	5 126 4                 // /mnt/ssddisk/jslave/ci/workspace/chipset_WLZ_4g_release/opensource/component_code/vendor/huawei/extra/build/build_script/kirin_kernel_release/kernel/block/hisi-blk-latency.c:126:4
	bl	dump_stack
	b	.LBB1_2
.Ltmp72:
.Lfunc_end1:
	.size	hisi_blk_latency_bio_endio_func, .Lfunc_end1-hisi_blk_latency_bio_endio_func
	.cfi_endproc
	.file	154 "/mnt/ssddisk/jslave/ci/workspace/chipset_WLZ_4g_release/opensource/component_code/vendor/huawei/extra/build/build_script/kirin_kernel_release/kernel/include/asm-generic/preempt.h"
                                        // -- End function
	.section	.text.hisi_blk_latency_req_init_func,"ax",@progbits
	.p2align	2               // -- Begin function hisi_blk_latency_req_init_func
	.type	hisi_blk_latency_req_init_func,@function
hisi_blk_latency_req_init_func:         // @hisi_blk_latency_req_init_func
.Lfunc_begin2:
	.loc	5 135 0                 // /mnt/ssddisk/jslave/ci/workspace/chipset_WLZ_4g_release/opensource/component_code/vendor/huawei/extra/build/build_script/kirin_kernel_release/kernel/block/hisi-blk-latency.c:135:0
	.cfi_startproc
// %bb.0:
	//DEBUG_VALUE: hisi_blk_latency_req_init_func:req <- $x0
	//DEBUG_VALUE: hisi_blk_latency_req_init_func:req <- $x0
	.loc	5 137 6 prologue_end    // /mnt/ssddisk/jslave/ci/workspace/chipset_WLZ_4g_release/opensource/component_code/vendor/huawei/extra/build/build_script/kirin_kernel_release/kernel/block/hisi-blk-latency.c:137:6
	ldr	x8, [x0, #64]
	cbz	x8, .LBB2_3
// %bb.1:
	//DEBUG_VALUE: hisi_blk_latency_req_init_func:req <- $x0
	ldrb	w8, [x8, #1681]
.Ltmp73:
	.loc	5 137 6 is_stmt 0       // /mnt/ssddisk/jslave/ci/workspace/chipset_WLZ_4g_release/opensource/component_code/vendor/huawei/extra/build/build_script/kirin_kernel_release/kernel/block/hisi-blk-latency.c:137:6
	cbz	w8, .LBB2_3
// %bb.2:
	//DEBUG_VALUE: hisi_blk_latency_req_init_func:req <- $x0
	.loc	5 0 6                   // /mnt/ssddisk/jslave/ci/workspace/chipset_WLZ_4g_release/opensource/component_code/vendor/huawei/extra/build/build_script/kirin_kernel_release/kernel/block/hisi-blk-latency.c:0:6
	mov	w8, #76
.Ltmp74:
	.loc	5 140 37 is_stmt 1      // /mnt/ssddisk/jslave/ci/workspace/chipset_WLZ_4g_release/opensource/component_code/vendor/huawei/extra/build/build_script/kirin_kernel_release/kernel/block/hisi-blk-latency.c:140:37
	stp	xzr, xzr, [x0, #400]
	stp	xzr, xzr, [x0, #384]
	stp	xzr, xzr, [x0, #368]
	stp	xzr, xzr, [x0, #352]
	stp	xzr, xzr, [x0, #336]
	stp	xzr, xzr, [x0, #320]
	stp	xzr, xzr, [x0, #304]
	str	xzr, [x0, #296]
.Ltmp75:
	.loc	152 19 2                // /mnt/ssddisk/jslave/ci/workspace/chipset_WLZ_4g_release/opensource/component_code/vendor/huawei/extra/build/build_script/kirin_kernel_release/kernel/arch/arm64/include/asm/current.h:19:2
	//APP
	mrs x9, sp_el0
	//NO_APP
.Ltmp76:
	//DEBUG_VALUE: get_current:sp_el0 <- $x9
	//DEBUG_VALUE: get_current:sp_el0 <- $x9
	//DEBUG_VALUE: get_current:sp_el0 <- $x9
	//DEBUG_VALUE: get_current:sp_el0 <- $x9
	.loc	5 138 28                // /mnt/ssddisk/jslave/ci/workspace/chipset_WLZ_4g_release/opensource/component_code/vendor/huawei/extra/build/build_script/kirin_kernel_release/kernel/block/hisi-blk-latency.c:138:28
	strb	w8, [x0, #272]
.Ltmp77:
	//DEBUG_VALUE: hisi_blk_latency_req_init_func:i <- 0
	.loc	5 141 31                // /mnt/ssddisk/jslave/ci/workspace/chipset_WLZ_4g_release/opensource/component_code/vendor/huawei/extra/build/build_script/kirin_kernel_release/kernel/block/hisi-blk-latency.c:141:31
	str	x9, [x0, #232]
	.loc	5 142 37                // /mnt/ssddisk/jslave/ci/workspace/chipset_WLZ_4g_release/opensource/component_code/vendor/huawei/extra/build/build_script/kirin_kernel_release/kernel/block/hisi-blk-latency.c:142:37
	ldr	w8, [x9, #1928]
	.loc	5 142 26 is_stmt 0      // /mnt/ssddisk/jslave/ci/workspace/chipset_WLZ_4g_release/opensource/component_code/vendor/huawei/extra/build/build_script/kirin_kernel_release/kernel/block/hisi-blk-latency.c:142:26
	str	w8, [x0, #240]
	.loc	5 143 38 is_stmt 1      // /mnt/ssddisk/jslave/ci/workspace/chipset_WLZ_4g_release/opensource/component_code/vendor/huawei/extra/build/build_script/kirin_kernel_release/kernel/block/hisi-blk-latency.c:143:38
	ldr	w8, [x9, #1932]
	.loc	5 143 27 is_stmt 0      // /mnt/ssddisk/jslave/ci/workspace/chipset_WLZ_4g_release/opensource/component_code/vendor/huawei/extra/build/build_script/kirin_kernel_release/kernel/block/hisi-blk-latency.c:143:27
	str	w8, [x0, #244]
	.loc	5 144 3 is_stmt 1       // /mnt/ssddisk/jslave/ci/workspace/chipset_WLZ_4g_release/opensource/component_code/vendor/huawei/extra/build/build_script/kirin_kernel_release/kernel/block/hisi-blk-latency.c:144:3
	ldr	x8, [x9, #2392]
	ldr	x9, [x9, #2400]
.Ltmp78:
	stp	x8, x9, [x0, #248]
.Ltmp79:
	.loc	5 150 1                 // /mnt/ssddisk/jslave/ci/workspace/chipset_WLZ_4g_release/opensource/component_code/vendor/huawei/extra/build/build_script/kirin_kernel_release/kernel/block/hisi-blk-latency.c:150:1
	ret
.LBB2_3:
	//DEBUG_VALUE: hisi_blk_latency_req_init_func:req <- $x0
.Ltmp80:
	.loc	5 146 28                // /mnt/ssddisk/jslave/ci/workspace/chipset_WLZ_4g_release/opensource/component_code/vendor/huawei/extra/build/build_script/kirin_kernel_release/kernel/block/hisi-blk-latency.c:146:28
	strb	wzr, [x0, #272]
.Ltmp81:
	.loc	5 150 1                 // /mnt/ssddisk/jslave/ci/workspace/chipset_WLZ_4g_release/opensource/component_code/vendor/huawei/extra/build/build_script/kirin_kernel_release/kernel/block/hisi-blk-latency.c:150:1
	ret
.Ltmp82:
.Lfunc_end2:
	.size	hisi_blk_latency_req_init_func, .Lfunc_end2-hisi_blk_latency_req_init_func
	.cfi_endproc
                                        // -- End function
	.section	.text.hisi_blk_latency_req_free_func,"ax",@progbits
	.p2align	2               // -- Begin function hisi_blk_latency_req_free_func
	.type	hisi_blk_latency_req_free_func,@function
hisi_blk_latency_req_free_func:         // @hisi_blk_latency_req_free_func
.Lfunc_begin3:
	.loc	5 153 0                 // /mnt/ssddisk/jslave/ci/workspace/chipset_WLZ_4g_release/opensource/component_code/vendor/huawei/extra/build/build_script/kirin_kernel_release/kernel/block/hisi-blk-latency.c:153:0
	.cfi_startproc
// %bb.0:
	//DEBUG_VALUE: hisi_blk_latency_req_free_func:req <- $x0
	//DEBUG_VALUE: hisi_blk_latency_req_free_func:req <- $x0
	.loc	5 156 14 prologue_end   // /mnt/ssddisk/jslave/ci/workspace/chipset_WLZ_4g_release/opensource/component_code/vendor/huawei/extra/build/build_script/kirin_kernel_release/kernel/block/hisi-blk-latency.c:156:14
	ldr	x8, [x0, #120]
	.loc	5 154 27                // /mnt/ssddisk/jslave/ci/workspace/chipset_WLZ_4g_release/opensource/component_code/vendor/huawei/extra/build/build_script/kirin_kernel_release/kernel/block/hisi-blk-latency.c:154:27
	strb	wzr, [x0, #272]
	.loc	5 155 30                // /mnt/ssddisk/jslave/ci/workspace/chipset_WLZ_4g_release/opensource/component_code/vendor/huawei/extra/build/build_script/kirin_kernel_release/kernel/block/hisi-blk-latency.c:155:30
	str	xzr, [x0, #232]
	.loc	5 156 2                 // /mnt/ssddisk/jslave/ci/workspace/chipset_WLZ_4g_release/opensource/component_code/vendor/huawei/extra/build/build_script/kirin_kernel_release/kernel/block/hisi-blk-latency.c:156:2
	cbz	x8, .LBB3_2
.LBB3_1:                                // =>This Inner Loop Header: Depth=1
	//DEBUG_VALUE: hisi_blk_latency_req_free_func:req <- $x0
.Ltmp83:
	//DEBUG_VALUE: bio <- $x8
	.loc	5 158 24                // /mnt/ssddisk/jslave/ci/workspace/chipset_WLZ_4g_release/opensource/component_code/vendor/huawei/extra/build/build_script/kirin_kernel_release/kernel/block/hisi-blk-latency.c:158:24
	str	xzr, [x8, #96]
	.loc	5 159 19                // /mnt/ssddisk/jslave/ci/workspace/chipset_WLZ_4g_release/opensource/component_code/vendor/huawei/extra/build/build_script/kirin_kernel_release/kernel/block/hisi-blk-latency.c:159:19
	ldr	x8, [x8]
.Ltmp84:
	.loc	5 159 12 is_stmt 0      // /mnt/ssddisk/jslave/ci/workspace/chipset_WLZ_4g_release/opensource/component_code/vendor/huawei/extra/build/build_script/kirin_kernel_release/kernel/block/hisi-blk-latency.c:159:12
	str	x8, [x0, #120]
.Ltmp85:
	.loc	5 156 2 is_stmt 1       // /mnt/ssddisk/jslave/ci/workspace/chipset_WLZ_4g_release/opensource/component_code/vendor/huawei/extra/build/build_script/kirin_kernel_release/kernel/block/hisi-blk-latency.c:156:2
	cbnz	x8, .LBB3_1
.LBB3_2:
	//DEBUG_VALUE: hisi_blk_latency_req_free_func:req <- $x0
	.loc	5 161 1                 // /mnt/ssddisk/jslave/ci/workspace/chipset_WLZ_4g_release/opensource/component_code/vendor/huawei/extra/build/build_script/kirin_kernel_release/kernel/block/hisi-blk-latency.c:161:1
	ret
.Ltmp86:
.Lfunc_end3:
	.size	hisi_blk_latency_req_free_func, .Lfunc_end3-hisi_blk_latency_req_free_func
	.cfi_endproc
                                        // -- End function
	.section	.text.hisi_blk_latency_check_timer_expire,"ax",@progbits
	.hidden	hisi_blk_latency_check_timer_expire // -- Begin function hisi_blk_latency_check_timer_expire
	.globl	hisi_blk_latency_check_timer_expire
	.p2align	2
	.type	hisi_blk_latency_check_timer_expire,@function
hisi_blk_latency_check_timer_expire:    // @hisi_blk_latency_check_timer_expire
.Lfunc_begin4:
	.loc	5 178 0                 // /mnt/ssddisk/jslave/ci/workspace/chipset_WLZ_4g_release/opensource/component_code/vendor/huawei/extra/build/build_script/kirin_kernel_release/kernel/block/hisi-blk-latency.c:178:0
	.cfi_startproc
// %bb.0:
	str	x23, [sp, #-64]!        // 8-byte Folded Spill
	stp	x22, x21, [sp, #16]     // 16-byte Folded Spill
	stp	x20, x19, [sp, #32]     // 16-byte Folded Spill
	stp	x29, x30, [sp, #48]     // 16-byte Folded Spill
	add	x29, sp, #48            // =48
	.cfi_def_cfa w29, 16
	.cfi_offset w30, -8
	.cfi_offset w29, -16
	.cfi_offset w19, -24
	.cfi_offset w20, -32
	.cfi_offset w21, -40
	.cfi_offset w22, -48
	.cfi_offset w23, -64
	//DEBUG_VALUE: hisi_blk_latency_check_timer_expire:data <- $x0
	mov	x19, x0
.Ltmp87:
	//DEBUG_VALUE: hisi_blk_latency_check_timer_expire:bio <- $x19
	//DEBUG_VALUE: hisi_blk_dump_fs:bio <- $x19
	//DEBUG_VALUE: hisi_blk_latency_check_timer_expire:data <- $x19
	.loc	5 183 2 prologue_end    // /mnt/ssddisk/jslave/ci/workspace/chipset_WLZ_4g_release/opensource/component_code/vendor/huawei/extra/build/build_script/kirin_kernel_release/kernel/block/hisi-blk-latency.c:183:2
	adrp	x0, latency_log_protect_lock
	add	x0, x0, :lo12:latency_log_protect_lock
	bl	_raw_spin_lock_irqsave
.Ltmp88:
	.loc	5 184 6                 // /mnt/ssddisk/jslave/ci/workspace/chipset_WLZ_4g_release/opensource/component_code/vendor/huawei/extra/build/build_script/kirin_kernel_release/kernel/block/hisi-blk-latency.c:184:6
	ldrb	w3, [x19, #137]
.Ltmp89:
	.loc	5 183 2                 // /mnt/ssddisk/jslave/ci/workspace/chipset_WLZ_4g_release/opensource/component_code/vendor/huawei/extra/build/build_script/kirin_kernel_release/kernel/block/hisi-blk-latency.c:183:2
	mov	x20, x0
.Ltmp90:
	//DEBUG_VALUE: hisi_blk_latency_check_timer_expire:flags <- $x20
	//DEBUG_VALUE: spin_unlock_irqrestore:flags <- $x20
	.loc	5 184 6                 // /mnt/ssddisk/jslave/ci/workspace/chipset_WLZ_4g_release/opensource/component_code/vendor/huawei/extra/build/build_script/kirin_kernel_release/kernel/block/hisi-blk-latency.c:184:6
	cmp	w3, #76                 // =76
	b.ne	.LBB4_11
.Ltmp91:
// %bb.1:
	//DEBUG_VALUE: hisi_blk_latency_check_timer_expire:flags <- $x20
	//DEBUG_VALUE: hisi_blk_latency_check_timer_expire:data <- $x19
	//DEBUG_VALUE: hisi_blk_latency_check_timer_expire:bio <- $x19
	.loc	5 190 12                // /mnt/ssddisk/jslave/ci/workspace/chipset_WLZ_4g_release/opensource/component_code/vendor/huawei/extra/build/build_script/kirin_kernel_release/kernel/block/hisi-blk-latency.c:190:12
	ldr	x8, [x19, #8]
	.loc	5 190 20 is_stmt 0      // /mnt/ssddisk/jslave/ci/workspace/chipset_WLZ_4g_release/opensource/component_code/vendor/huawei/extra/build/build_script/kirin_kernel_release/kernel/block/hisi-blk-latency.c:190:20
	cbz	x8, .LBB4_9
.Ltmp92:
// %bb.2:
	//DEBUG_VALUE: hisi_blk_latency_check_timer_expire:flags <- $x20
	//DEBUG_VALUE: hisi_blk_latency_check_timer_expire:data <- $x19
	//DEBUG_VALUE: hisi_blk_latency_check_timer_expire:bio <- $x19
	.loc	5 190 38                // /mnt/ssddisk/jslave/ci/workspace/chipset_WLZ_4g_release/opensource/component_code/vendor/huawei/extra/build/build_script/kirin_kernel_release/kernel/block/hisi-blk-latency.c:190:38
	ldr	x21, [x8, #1112]
.Ltmp93:
	//DEBUG_VALUE: hisi_blk_latency_check_timer_expire:q <- $x21
	.loc	5 190 6                 // /mnt/ssddisk/jslave/ci/workspace/chipset_WLZ_4g_release/opensource/component_code/vendor/huawei/extra/build/build_script/kirin_kernel_release/kernel/block/hisi-blk-latency.c:190:6
	cbz	x21, .LBB4_9
.Ltmp94:
// %bb.3:
	//DEBUG_VALUE: hisi_blk_latency_check_timer_expire:q <- $x21
	//DEBUG_VALUE: hisi_blk_latency_check_timer_expire:flags <- $x20
	//DEBUG_VALUE: hisi_blk_latency_check_timer_expire:data <- $x19
	//DEBUG_VALUE: hisi_blk_latency_check_timer_expire:bio <- $x19
	.loc	5 196 8 is_stmt 1       // /mnt/ssddisk/jslave/ci/workspace/chipset_WLZ_4g_release/opensource/component_code/vendor/huawei/extra/build/build_script/kirin_kernel_release/kernel/block/hisi-blk-latency.c:196:8
	mov	x0, x21
	bl	hisi_blk_get_lld
.Ltmp95:
	.loc	149 113 1               // /mnt/ssddisk/jslave/ci/workspace/chipset_WLZ_4g_release/opensource/component_code/vendor/huawei/extra/build/build_script/kirin_kernel_release/kernel/arch/arm64/include/asm/atomic_ll_sc.h:113:1
	adrp	x8, latency_warning_total
	add	x8, x8, :lo12:latency_warning_total
.Ltmp96:
	//DEBUG_VALUE: atomic_add:v <- $x8
	//APP
	// atomic_add
	prfm	pstl1strm, [x8]
1:	ldxr	w9, [x8]
	add	w9, w9, #1
	stxr	w10, w9, [x8]
	cbnz	w10, 1b
	//NO_APP
.Ltmp97:
	.loc	5 196 8                 // /mnt/ssddisk/jslave/ci/workspace/chipset_WLZ_4g_release/opensource/component_code/vendor/huawei/extra/build/build_script/kirin_kernel_release/kernel/block/hisi-blk-latency.c:196:8
	mov	x22, x0
.Ltmp98:
	//DEBUG_VALUE: atomic_add:i <- 1
	//DEBUG_VALUE: hisi_blk_latency_check_timer_expire:lld <- $x22
	.loc	5 200 7                 // /mnt/ssddisk/jslave/ci/workspace/chipset_WLZ_4g_release/opensource/component_code/vendor/huawei/extra/build/build_script/kirin_kernel_release/kernel/block/hisi-blk-latency.c:200:7
	adrp	x0, blk_latency_log_ratelimit_state
	adrp	x1, .L.str.21
	add	x0, x0, :lo12:blk_latency_log_ratelimit_state
	add	x1, x1, :lo12:.L.str.21
	bl	___ratelimit
.Ltmp99:
	.loc	5 200 6 is_stmt 0       // /mnt/ssddisk/jslave/ci/workspace/chipset_WLZ_4g_release/opensource/component_code/vendor/huawei/extra/build/build_script/kirin_kernel_release/kernel/block/hisi-blk-latency.c:200:6
	cbz	w0, .LBB4_10
.Ltmp100:
// %bb.4:
	//DEBUG_VALUE: hisi_blk_latency_check_timer_expire:lld <- $x22
	//DEBUG_VALUE: hisi_blk_latency_check_timer_expire:q <- $x21
	//DEBUG_VALUE: hisi_blk_latency_check_timer_expire:flags <- $x20
	//DEBUG_VALUE: hisi_blk_latency_check_timer_expire:data <- $x19
	//DEBUG_VALUE: hisi_blk_latency_check_timer_expire:bio <- $x19
	.loc	5 203 2 is_stmt 1       // /mnt/ssddisk/jslave/ci/workspace/chipset_WLZ_4g_release/opensource/component_code/vendor/huawei/extra/build/build_script/kirin_kernel_release/kernel/block/hisi-blk-latency.c:203:2
	adrp	x23, .L.str.21
	add	x23, x23, :lo12:.L.str.21
	mov	x0, x19
	mov	x1, x23
	bl	hisi_blk_dump_bio
	.loc	5 204 2                 // /mnt/ssddisk/jslave/ci/workspace/chipset_WLZ_4g_release/opensource/component_code/vendor/huawei/extra/build/build_script/kirin_kernel_release/kernel/block/hisi-blk-latency.c:204:2
	mov	x0, x21
	mov	x1, x23
	mov	w2, wzr
	bl	hisi_blk_dump_queue_status
.Ltmp101:
	.loc	6 267 11                // /mnt/ssddisk/jslave/ci/workspace/chipset_WLZ_4g_release/opensource/component_code/vendor/huawei/extra/build/build_script/kirin_kernel_release/kernel/block/hisi-blk.h:267:11
	ldr	x8, [x19, #296]
.Ltmp102:
	.loc	6 267 6 is_stmt 0       // /mnt/ssddisk/jslave/ci/workspace/chipset_WLZ_4g_release/opensource/component_code/vendor/huawei/extra/build/build_script/kirin_kernel_release/kernel/block/hisi-blk.h:267:6
	cbz	x8, .LBB4_6
.Ltmp103:
// %bb.5:
	//DEBUG_VALUE: hisi_blk_latency_check_timer_expire:lld <- $x22
	//DEBUG_VALUE: hisi_blk_latency_check_timer_expire:q <- $x21
	//DEBUG_VALUE: hisi_blk_latency_check_timer_expire:flags <- $x20
	//DEBUG_VALUE: hisi_blk_latency_check_timer_expire:data <- $x19
	//DEBUG_VALUE: hisi_blk_latency_check_timer_expire:bio <- $x19
	.loc	6 268 3 is_stmt 1       // /mnt/ssddisk/jslave/ci/workspace/chipset_WLZ_4g_release/opensource/component_code/vendor/huawei/extra/build/build_script/kirin_kernel_release/kernel/block/hisi-blk.h:268:3
	blr	x8
.Ltmp104:
.LBB4_6:
	//DEBUG_VALUE: hisi_blk_latency_check_timer_expire:lld <- $x22
	//DEBUG_VALUE: hisi_blk_latency_check_timer_expire:q <- $x21
	//DEBUG_VALUE: hisi_blk_latency_check_timer_expire:flags <- $x20
	//DEBUG_VALUE: hisi_blk_latency_check_timer_expire:data <- $x19
	//DEBUG_VALUE: hisi_blk_latency_check_timer_expire:bio <- $x19
	.loc	5 207 11                // /mnt/ssddisk/jslave/ci/workspace/chipset_WLZ_4g_release/opensource/component_code/vendor/huawei/extra/build/build_script/kirin_kernel_release/kernel/block/hisi-blk-latency.c:207:11
	ldr	x8, [x22, #40]
.Ltmp105:
	.loc	5 207 6 is_stmt 0       // /mnt/ssddisk/jslave/ci/workspace/chipset_WLZ_4g_release/opensource/component_code/vendor/huawei/extra/build/build_script/kirin_kernel_release/kernel/block/hisi-blk-latency.c:207:6
	cbz	x8, .LBB4_8
.Ltmp106:
// %bb.7:
	//DEBUG_VALUE: hisi_blk_latency_check_timer_expire:lld <- $x22
	//DEBUG_VALUE: hisi_blk_latency_check_timer_expire:q <- $x21
	//DEBUG_VALUE: hisi_blk_latency_check_timer_expire:flags <- $x20
	//DEBUG_VALUE: hisi_blk_latency_check_timer_expire:data <- $x19
	//DEBUG_VALUE: hisi_blk_latency_check_timer_expire:bio <- $x19
	.loc	5 208 3 is_stmt 1       // /mnt/ssddisk/jslave/ci/workspace/chipset_WLZ_4g_release/opensource/component_code/vendor/huawei/extra/build/build_script/kirin_kernel_release/kernel/block/hisi-blk-latency.c:208:3
	mov	x0, x21
	mov	w1, wzr
	blr	x8
.Ltmp107:
.LBB4_8:
	//DEBUG_VALUE: hisi_blk_latency_check_timer_expire:lld <- $x22
	//DEBUG_VALUE: hisi_blk_latency_check_timer_expire:q <- $x21
	//DEBUG_VALUE: hisi_blk_latency_check_timer_expire:flags <- $x20
	//DEBUG_VALUE: hisi_blk_latency_check_timer_expire:data <- $x19
	//DEBUG_VALUE: hisi_blk_latency_check_timer_expire:bio <- $x19
	.loc	5 211 17                // /mnt/ssddisk/jslave/ci/workspace/chipset_WLZ_4g_release/opensource/component_code/vendor/huawei/extra/build/build_script/kirin_kernel_release/kernel/block/hisi-blk-latency.c:211:17
	ldp	w0, w1, [x19, #112]
	.loc	5 210 2                 // /mnt/ssddisk/jslave/ci/workspace/chipset_WLZ_4g_release/opensource/component_code/vendor/huawei/extra/build/build_script/kirin_kernel_release/kernel/block/hisi-blk-latency.c:210:2
	adrp	x2, .L.str.21
	add	x2, x2, :lo12:.L.str.21
	bl	iowp_report
	b	.LBB4_10
.Ltmp108:
.LBB4_9:
	//DEBUG_VALUE: hisi_blk_latency_check_timer_expire:flags <- $x20
	//DEBUG_VALUE: hisi_blk_latency_check_timer_expire:data <- $x19
	//DEBUG_VALUE: hisi_blk_latency_check_timer_expire:bio <- $x19
	.loc	5 191 3                 // /mnt/ssddisk/jslave/ci/workspace/chipset_WLZ_4g_release/opensource/component_code/vendor/huawei/extra/build/build_script/kirin_kernel_release/kernel/block/hisi-blk-latency.c:191:3
	adrp	x0, .L.str.20
	adrp	x1, .L__func__.hisi_blk_latency_check_timer_expire
	add	x0, x0, :lo12:.L.str.20
	add	x1, x1, :lo12:.L__func__.hisi_blk_latency_check_timer_expire
	mov	w2, #191
	bl	printk
.Ltmp109:
.LBB4_10:
	//DEBUG_VALUE: hisi_blk_latency_check_timer_expire:flags <- $x20
	//DEBUG_VALUE: hisi_blk_latency_check_timer_expire:data <- $x19
	//DEBUG_VALUE: hisi_blk_latency_check_timer_expire:bio <- $x19
	.file	155 "/mnt/ssddisk/jslave/ci/workspace/chipset_WLZ_4g_release/opensource/component_code/vendor/huawei/extra/build/build_script/kirin_kernel_release/kernel/include/linux/spinlock.h"
	.loc	155 372 2               // /mnt/ssddisk/jslave/ci/workspace/chipset_WLZ_4g_release/opensource/component_code/vendor/huawei/extra/build/build_script/kirin_kernel_release/kernel/include/linux/spinlock.h:372:2
	adrp	x0, latency_log_protect_lock
	add	x0, x0, :lo12:latency_log_protect_lock
.Ltmp110:
	//DEBUG_VALUE: spin_unlock_irqrestore:lock <- $x0
	mov	x1, x20
	bl	_raw_spin_unlock_irqrestore
.Ltmp111:
	.loc	5 217 2                 // /mnt/ssddisk/jslave/ci/workspace/chipset_WLZ_4g_release/opensource/component_code/vendor/huawei/extra/build/build_script/kirin_kernel_release/kernel/block/hisi-blk-latency.c:217:2
	mov	x0, x19
	.loc	5 216 38                // /mnt/ssddisk/jslave/ci/workspace/chipset_WLZ_4g_release/opensource/component_code/vendor/huawei/extra/build/build_script/kirin_kernel_release/kernel/block/hisi-blk-latency.c:216:38
	str	wzr, [x19, #224]
	.loc	5 217 2                 // /mnt/ssddisk/jslave/ci/workspace/chipset_WLZ_4g_release/opensource/component_code/vendor/huawei/extra/build/build_script/kirin_kernel_release/kernel/block/hisi-blk-latency.c:217:2
	bl	bio_put
	.loc	5 218 1                 // /mnt/ssddisk/jslave/ci/workspace/chipset_WLZ_4g_release/opensource/component_code/vendor/huawei/extra/build/build_script/kirin_kernel_release/kernel/block/hisi-blk-latency.c:218:1
	ldp	x29, x30, [sp, #48]     // 16-byte Folded Reload
	ldp	x20, x19, [sp, #32]     // 16-byte Folded Reload
.Ltmp112:
	ldp	x22, x21, [sp, #16]     // 16-byte Folded Reload
	ldr	x23, [sp], #64          // 8-byte Folded Reload
	ret
.LBB4_11:
.Ltmp113:
	//DEBUG_VALUE: hisi_blk_latency_check_timer_expire:flags <- $x20
	//DEBUG_VALUE: hisi_blk_latency_check_timer_expire:data <- $x19
	//DEBUG_VALUE: hisi_blk_latency_check_timer_expire:bio <- $x19
	.loc	5 185 3                 // /mnt/ssddisk/jslave/ci/workspace/chipset_WLZ_4g_release/opensource/component_code/vendor/huawei/extra/build/build_script/kirin_kernel_release/kernel/block/hisi-blk-latency.c:185:3
	adrp	x0, .L.str.19
	adrp	x1, .L__func__.hisi_blk_latency_check_timer_expire
	add	x0, x0, :lo12:.L.str.19
	add	x1, x1, :lo12:.L__func__.hisi_blk_latency_check_timer_expire
	mov	w2, #186
	bl	printk
	b	.LBB4_10
.Ltmp114:
.Lfunc_end4:
	.size	hisi_blk_latency_check_timer_expire, .Lfunc_end4-hisi_blk_latency_check_timer_expire
	.cfi_endproc
                                        // -- End function
	.section	.text.hisi_blk_latency_bio_check,"ax",@progbits
	.hidden	hisi_blk_latency_bio_check // -- Begin function hisi_blk_latency_bio_check
	.globl	hisi_blk_latency_bio_check
	.p2align	2
	.type	hisi_blk_latency_bio_check,@function
hisi_blk_latency_bio_check:             // @hisi_blk_latency_bio_check
.Lfunc_begin5:
	.loc	5 225 0                 // /mnt/ssddisk/jslave/ci/workspace/chipset_WLZ_4g_release/opensource/component_code/vendor/huawei/extra/build/build_script/kirin_kernel_release/kernel/block/hisi-blk-latency.c:225:0
	.cfi_startproc
// %bb.0:
	stp	x20, x19, [sp, #-32]!   // 16-byte Folded Spill
	stp	x29, x30, [sp, #16]     // 16-byte Folded Spill
	add	x29, sp, #16            // =16
	.cfi_def_cfa w29, 16
	.cfi_offset w30, -8
	.cfi_offset w29, -16
	.cfi_offset w19, -24
	.cfi_offset w20, -32
	//DEBUG_VALUE: hisi_blk_latency_bio_check:bio <- $x0
	//DEBUG_VALUE: hisi_blk_latency_bio_check:bio_stage <- $w1
	mov	x19, x0
	//DEBUG_VALUE: hisi_blk_latency_bio_check:bio_stage <- $w1
.Ltmp115:
	//DEBUG_VALUE: hisi_blk_latency_bio_check:bio <- $x19
	.loc	5 226 6 prologue_end    // /mnt/ssddisk/jslave/ci/workspace/chipset_WLZ_4g_release/opensource/component_code/vendor/huawei/extra/build/build_script/kirin_kernel_release/kernel/block/hisi-blk-latency.c:226:6
	cbz	w1, .LBB5_3
.Ltmp116:
// %bb.1:
	//DEBUG_VALUE: hisi_blk_latency_bio_check:bio <- $x19
	//DEBUG_VALUE: hisi_blk_latency_bio_check:bio_stage <- $w1
	ldrb	w8, [x19, #137]
.Ltmp117:
	.loc	5 226 6 is_stmt 0       // /mnt/ssddisk/jslave/ci/workspace/chipset_WLZ_4g_release/opensource/component_code/vendor/huawei/extra/build/build_script/kirin_kernel_release/kernel/block/hisi-blk-latency.c:226:6
	cmp	w8, #76                 // =76
	b.ne	.LBB5_6
.Ltmp118:
// %bb.2:
	//DEBUG_VALUE: hisi_blk_latency_bio_check:bio <- $x19
	//DEBUG_VALUE: hisi_blk_latency_bio_check:bio_stage <- $w1
	.loc	5 230 6 is_stmt 1       // /mnt/ssddisk/jslave/ci/workspace/chipset_WLZ_4g_release/opensource/component_code/vendor/huawei/extra/build/build_script/kirin_kernel_release/kernel/block/hisi-blk-latency.c:230:6
	cmp	w1, #1                  // =1
.Ltmp119:
	.loc	5 230 6 is_stmt 0       // /mnt/ssddisk/jslave/ci/workspace/chipset_WLZ_4g_release/opensource/component_code/vendor/huawei/extra/build/build_script/kirin_kernel_release/kernel/block/hisi-blk-latency.c:230:6
	mov	w20, w1
.Ltmp120:
	.loc	5 230 6                 // /mnt/ssddisk/jslave/ci/workspace/chipset_WLZ_4g_release/opensource/component_code/vendor/huawei/extra/build/build_script/kirin_kernel_release/kernel/block/hisi-blk-latency.c:230:6
	b.ls	.LBB5_4
	b	.LBB5_5
.Ltmp121:
.LBB5_3:
	//DEBUG_VALUE: hisi_blk_latency_bio_check:bio <- $x19
	//DEBUG_VALUE: hisi_blk_latency_bio_check:bio_stage <- $w1
	.loc	5 0 6                   // /mnt/ssddisk/jslave/ci/workspace/chipset_WLZ_4g_release/opensource/component_code/vendor/huawei/extra/build/build_script/kirin_kernel_release/kernel/block/hisi-blk-latency.c:0:6
	mov	x20, xzr
.Ltmp122:
.LBB5_4:
	//DEBUG_VALUE: hisi_blk_latency_bio_check:bio <- $x19
	//DEBUG_VALUE: hisi_blk_latency_bio_check:bio_stage <- $w1
	.loc	5 230 31                // /mnt/ssddisk/jslave/ci/workspace/chipset_WLZ_4g_release/opensource/component_code/vendor/huawei/extra/build/build_script/kirin_kernel_release/kernel/block/hisi-blk-latency.c:230:31
	adrp	x8, bio_stage_cfg
	add	x8, x8, :lo12:bio_stage_cfg
	add	x8, x8, x20, lsl #4
	ldr	x8, [x8, #8]
	.loc	5 231 3 is_stmt 1       // /mnt/ssddisk/jslave/ci/workspace/chipset_WLZ_4g_release/opensource/component_code/vendor/huawei/extra/build/build_script/kirin_kernel_release/kernel/block/hisi-blk-latency.c:231:3
	mov	x0, x19
	blr	x8
.Ltmp123:
.LBB5_5:
	//DEBUG_VALUE: hisi_blk_latency_bio_check:bio <- $x19
	.loc	5 233 45                // /mnt/ssddisk/jslave/ci/workspace/chipset_WLZ_4g_release/opensource/component_code/vendor/huawei/extra/build/build_script/kirin_kernel_release/kernel/block/hisi-blk-latency.c:233:45
	bl	ktime_get
	.loc	5 233 2 is_stmt 0       // /mnt/ssddisk/jslave/ci/workspace/chipset_WLZ_4g_release/opensource/component_code/vendor/huawei/extra/build/build_script/kirin_kernel_release/kernel/block/hisi-blk-latency.c:233:2
	add	x8, x19, x20, lsl #3
	.loc	5 233 43                // /mnt/ssddisk/jslave/ci/workspace/chipset_WLZ_4g_release/opensource/component_code/vendor/huawei/extra/build/build_script/kirin_kernel_release/kernel/block/hisi-blk-latency.c:233:43
	str	x0, [x8, #144]
.Ltmp124:
.LBB5_6:
	//DEBUG_VALUE: hisi_blk_latency_bio_check:bio <- $x19
	.loc	5 234 1 is_stmt 1       // /mnt/ssddisk/jslave/ci/workspace/chipset_WLZ_4g_release/opensource/component_code/vendor/huawei/extra/build/build_script/kirin_kernel_release/kernel/block/hisi-blk-latency.c:234:1
	ldp	x29, x30, [sp, #16]     // 16-byte Folded Reload
	ldp	x20, x19, [sp], #32     // 16-byte Folded Reload
.Ltmp125:
	ret
.Ltmp126:
.Lfunc_end5:
	.size	hisi_blk_latency_bio_check, .Lfunc_end5-hisi_blk_latency_bio_check
	.cfi_endproc
                                        // -- End function
	.section	.text.hisi_blk_latency_req_check,"ax",@progbits
	.hidden	hisi_blk_latency_req_check // -- Begin function hisi_blk_latency_req_check
	.globl	hisi_blk_latency_req_check
	.p2align	2
	.type	hisi_blk_latency_req_check,@function
hisi_blk_latency_req_check:             // @hisi_blk_latency_req_check
.Lfunc_begin6:
	.loc	5 241 0                 // /mnt/ssddisk/jslave/ci/workspace/chipset_WLZ_4g_release/opensource/component_code/vendor/huawei/extra/build/build_script/kirin_kernel_release/kernel/block/hisi-blk-latency.c:241:0
	.cfi_startproc
// %bb.0:
	stp	x20, x19, [sp, #-32]!   // 16-byte Folded Spill
	stp	x29, x30, [sp, #16]     // 16-byte Folded Spill
	add	x29, sp, #16            // =16
	.cfi_def_cfa w29, 16
	.cfi_offset w30, -8
	.cfi_offset w29, -16
	.cfi_offset w19, -24
	.cfi_offset w20, -32
	//DEBUG_VALUE: hisi_blk_latency_req_check:req <- $x0
	//DEBUG_VALUE: hisi_blk_latency_req_check:req_stage <- $w1
	mov	x19, x0
	//DEBUG_VALUE: hisi_blk_latency_req_check:req_stage <- $w1
.Ltmp127:
	//DEBUG_VALUE: hisi_blk_latency_req_check:req <- $x19
	.loc	5 242 6 prologue_end    // /mnt/ssddisk/jslave/ci/workspace/chipset_WLZ_4g_release/opensource/component_code/vendor/huawei/extra/build/build_script/kirin_kernel_release/kernel/block/hisi-blk-latency.c:242:6
	cbz	w1, .LBB6_4
.Ltmp128:
// %bb.1:
	//DEBUG_VALUE: hisi_blk_latency_req_check:req <- $x19
	//DEBUG_VALUE: hisi_blk_latency_req_check:req_stage <- $w1
	ldrb	w8, [x19, #272]
.Ltmp129:
	.loc	5 242 6 is_stmt 0       // /mnt/ssddisk/jslave/ci/workspace/chipset_WLZ_4g_release/opensource/component_code/vendor/huawei/extra/build/build_script/kirin_kernel_release/kernel/block/hisi-blk-latency.c:242:6
	cmp	w8, #76                 // =76
	b.ne	.LBB6_8
.Ltmp130:
// %bb.2:
	//DEBUG_VALUE: hisi_blk_latency_req_check:req <- $x19
	//DEBUG_VALUE: hisi_blk_latency_req_check:req_stage <- $w1
	.loc	5 246 6 is_stmt 1       // /mnt/ssddisk/jslave/ci/workspace/chipset_WLZ_4g_release/opensource/component_code/vendor/huawei/extra/build/build_script/kirin_kernel_release/kernel/block/hisi-blk-latency.c:246:6
	cmp	w1, #14                 // =14
	b.ne	.LBB6_6
.Ltmp131:
// %bb.3:
	//DEBUG_VALUE: hisi_blk_latency_req_check:req <- $x19
	//DEBUG_VALUE: hisi_blk_latency_req_check:req_stage <- $w1
	.loc	5 0 6 is_stmt 0         // /mnt/ssddisk/jslave/ci/workspace/chipset_WLZ_4g_release/opensource/component_code/vendor/huawei/extra/build/build_script/kirin_kernel_release/kernel/block/hisi-blk-latency.c:0:6
	orr	w20, wzr, #0xe
	b	.LBB6_5
.Ltmp132:
.LBB6_4:
	//DEBUG_VALUE: hisi_blk_latency_req_check:req <- $x19
	//DEBUG_VALUE: hisi_blk_latency_req_check:req_stage <- $w1
	mov	x20, xzr
.Ltmp133:
.LBB6_5:
	//DEBUG_VALUE: hisi_blk_latency_req_check:req <- $x19
	//DEBUG_VALUE: hisi_blk_latency_req_check:req_stage <- $w1
	.loc	5 246 6                 // /mnt/ssddisk/jslave/ci/workspace/chipset_WLZ_4g_release/opensource/component_code/vendor/huawei/extra/build/build_script/kirin_kernel_release/kernel/block/hisi-blk-latency.c:246:6
	adrp	x8, req_stage_cfg
	add	x8, x8, :lo12:req_stage_cfg
	add	x8, x8, x20, lsl #4
	ldr	x8, [x8, #8]
	.loc	5 247 3 is_stmt 1       // /mnt/ssddisk/jslave/ci/workspace/chipset_WLZ_4g_release/opensource/component_code/vendor/huawei/extra/build/build_script/kirin_kernel_release/kernel/block/hisi-blk-latency.c:247:3
	mov	x0, x19
	blr	x8
.Ltmp134:
	.loc	5 0 3 is_stmt 0         // /mnt/ssddisk/jslave/ci/workspace/chipset_WLZ_4g_release/opensource/component_code/vendor/huawei/extra/build/build_script/kirin_kernel_release/kernel/block/hisi-blk-latency.c:0:3
	b	.LBB6_7
.Ltmp135:
.LBB6_6:
	//DEBUG_VALUE: hisi_blk_latency_req_check:req <- $x19
	//DEBUG_VALUE: hisi_blk_latency_req_check:req_stage <- $w1
	mov	w20, w1
.Ltmp136:
.LBB6_7:
	//DEBUG_VALUE: hisi_blk_latency_req_check:req <- $x19
	.loc	5 249 45 is_stmt 1      // /mnt/ssddisk/jslave/ci/workspace/chipset_WLZ_4g_release/opensource/component_code/vendor/huawei/extra/build/build_script/kirin_kernel_release/kernel/block/hisi-blk-latency.c:249:45
	bl	ktime_get
	.loc	5 249 2 is_stmt 0       // /mnt/ssddisk/jslave/ci/workspace/chipset_WLZ_4g_release/opensource/component_code/vendor/huawei/extra/build/build_script/kirin_kernel_release/kernel/block/hisi-blk-latency.c:249:2
	add	x8, x19, x20, lsl #3
	.loc	5 249 43                // /mnt/ssddisk/jslave/ci/workspace/chipset_WLZ_4g_release/opensource/component_code/vendor/huawei/extra/build/build_script/kirin_kernel_release/kernel/block/hisi-blk-latency.c:249:43
	str	x0, [x8, #296]
.Ltmp137:
.LBB6_8:
	//DEBUG_VALUE: hisi_blk_latency_req_check:req <- $x19
	.loc	5 250 1 is_stmt 1       // /mnt/ssddisk/jslave/ci/workspace/chipset_WLZ_4g_release/opensource/component_code/vendor/huawei/extra/build/build_script/kirin_kernel_release/kernel/block/hisi-blk-latency.c:250:1
	ldp	x29, x30, [sp, #16]     // 16-byte Folded Reload
	ldp	x20, x19, [sp], #32     // 16-byte Folded Reload
.Ltmp138:
	ret
.Ltmp139:
.Lfunc_end6:
	.size	hisi_blk_latency_req_check, .Lfunc_end6-hisi_blk_latency_req_check
	.cfi_endproc
                                        // -- End function
	.section	.text.hisi_blk_latency_for_merge,"ax",@progbits
	.hidden	hisi_blk_latency_for_merge // -- Begin function hisi_blk_latency_for_merge
	.globl	hisi_blk_latency_for_merge
	.p2align	2
	.type	hisi_blk_latency_for_merge,@function
hisi_blk_latency_for_merge:             // @hisi_blk_latency_for_merge
.Lfunc_begin7:
	.loc	5 257 0                 // /mnt/ssddisk/jslave/ci/workspace/chipset_WLZ_4g_release/opensource/component_code/vendor/huawei/extra/build/build_script/kirin_kernel_release/kernel/block/hisi-blk-latency.c:257:0
	.cfi_startproc
// %bb.0:
	//DEBUG_VALUE: hisi_blk_latency_for_merge:req <- $x0
	//DEBUG_VALUE: hisi_blk_latency_for_merge:next <- $x1
	//DEBUG_VALUE: hisi_blk_latency_for_merge:next <- $x1
	.loc	5 0 0 prologue_end      // /mnt/ssddisk/jslave/ci/workspace/chipset_WLZ_4g_release/opensource/component_code/vendor/huawei/extra/build/build_script/kirin_kernel_release/kernel/block/hisi-blk-latency.c:0:0
	ldr	x8, [x1, #120]
.Ltmp140:
	//DEBUG_VALUE: hisi_blk_latency_for_merge:bio <- [DW_OP_plus_uconst 120, DW_OP_deref, DW_OP_stack_value] undef
	//DEBUG_VALUE: hisi_blk_latency_for_merge:bio <- $x8
	//DEBUG_VALUE: hisi_blk_latency_for_merge:req <- $x0
	.loc	5 260 2                 // /mnt/ssddisk/jslave/ci/workspace/chipset_WLZ_4g_release/opensource/component_code/vendor/huawei/extra/build/build_script/kirin_kernel_release/kernel/block/hisi-blk-latency.c:260:2
	cbz	x8, .LBB7_2
.Ltmp141:
.LBB7_1:                                // =>This Inner Loop Header: Depth=1
	//DEBUG_VALUE: hisi_blk_latency_for_merge:bio <- $x8
	//DEBUG_VALUE: hisi_blk_latency_for_merge:next <- $x1
	//DEBUG_VALUE: hisi_blk_latency_for_merge:req <- $x0
	//DEBUG_VALUE: hisi_blk_latency_for_merge:bio <- [DW_OP_deref] $x8
	.loc	5 261 24                // /mnt/ssddisk/jslave/ci/workspace/chipset_WLZ_4g_release/opensource/component_code/vendor/huawei/extra/build/build_script/kirin_kernel_release/kernel/block/hisi-blk-latency.c:261:24
	str	x0, [x8, #96]
.Ltmp142:
	.loc	5 0 0 is_stmt 0         // /mnt/ssddisk/jslave/ci/workspace/chipset_WLZ_4g_release/opensource/component_code/vendor/huawei/extra/build/build_script/kirin_kernel_release/kernel/block/hisi-blk-latency.c:0:0
	ldr	x8, [x8]
.Ltmp143:
	//DEBUG_VALUE: hisi_blk_latency_for_merge:bio <- $x8
	.loc	5 260 2 is_stmt 1       // /mnt/ssddisk/jslave/ci/workspace/chipset_WLZ_4g_release/opensource/component_code/vendor/huawei/extra/build/build_script/kirin_kernel_release/kernel/block/hisi-blk-latency.c:260:2
	cbnz	x8, .LBB7_1
.Ltmp144:
.LBB7_2:
	//DEBUG_VALUE: hisi_blk_latency_for_merge:bio <- $x8
	//DEBUG_VALUE: hisi_blk_latency_for_merge:next <- $x1
	//DEBUG_VALUE: hisi_blk_latency_for_merge:req <- $x0
	.loc	5 264 1                 // /mnt/ssddisk/jslave/ci/workspace/chipset_WLZ_4g_release/opensource/component_code/vendor/huawei/extra/build/build_script/kirin_kernel_release/kernel/block/hisi-blk-latency.c:264:1
	ret
.Ltmp145:
.Lfunc_end7:
	.size	hisi_blk_latency_for_merge, .Lfunc_end7-hisi_blk_latency_for_merge
	.cfi_endproc
                                        // -- End function
	.section	.text.hisi_blk_queue_latency_init,"ax",@progbits
	.hidden	hisi_blk_queue_latency_init // -- Begin function hisi_blk_queue_latency_init
	.globl	hisi_blk_queue_latency_init
	.p2align	2
	.type	hisi_blk_queue_latency_init,@function
hisi_blk_queue_latency_init:            // @hisi_blk_queue_latency_init
.Lfunc_begin8:
	.loc	5 267 0                 // /mnt/ssddisk/jslave/ci/workspace/chipset_WLZ_4g_release/opensource/component_code/vendor/huawei/extra/build/build_script/kirin_kernel_release/kernel/block/hisi-blk-latency.c:267:0
	.cfi_startproc
// %bb.0:
	str	x19, [sp, #-32]!        // 8-byte Folded Spill
	stp	x29, x30, [sp, #16]     // 16-byte Folded Spill
	add	x29, sp, #16            // =16
	.cfi_def_cfa w29, 16
	.cfi_offset w30, -8
	.cfi_offset w29, -16
	.cfi_offset w19, -32
	//DEBUG_VALUE: hisi_blk_queue_latency_init:q <- $x0
	mov	x19, x0
.Ltmp146:
	//DEBUG_VALUE: hisi_blk_queue_latency_init:q <- $x19
	.loc	5 268 32 prologue_end   // /mnt/ssddisk/jslave/ci/workspace/chipset_WLZ_4g_release/opensource/component_code/vendor/huawei/extra/build/build_script/kirin_kernel_release/kernel/block/hisi-blk-latency.c:268:32
	bl	hisi_blk_get_lld
.Ltmp147:
	//DEBUG_VALUE: hisi_blk_queue_latency_init:blk_lld <- $x0
	.loc	5 270 16                // /mnt/ssddisk/jslave/ci/workspace/chipset_WLZ_4g_release/opensource/component_code/vendor/huawei/extra/build/build_script/kirin_kernel_release/kernel/block/hisi-blk-latency.c:270:16
	ldr	w8, [x0, #48]
.Ltmp148:
	.loc	5 270 6 is_stmt 0       // /mnt/ssddisk/jslave/ci/workspace/chipset_WLZ_4g_release/opensource/component_code/vendor/huawei/extra/build/build_script/kirin_kernel_release/kernel/block/hisi-blk-latency.c:270:6
	cbnz	w8, .LBB8_2
.Ltmp149:
// %bb.1:
	//DEBUG_VALUE: hisi_blk_queue_latency_init:blk_lld <- $x0
	//DEBUG_VALUE: hisi_blk_queue_latency_init:q <- $x19
	.loc	5 0 6                   // /mnt/ssddisk/jslave/ci/workspace/chipset_WLZ_4g_release/opensource/component_code/vendor/huawei/extra/build/build_script/kirin_kernel_release/kernel/block/hisi-blk-latency.c:0:6
	mov	w8, #2000
.Ltmp150:
	.loc	5 271 41 is_stmt 1      // /mnt/ssddisk/jslave/ci/workspace/chipset_WLZ_4g_release/opensource/component_code/vendor/huawei/extra/build/build_script/kirin_kernel_release/kernel/block/hisi-blk-latency.c:271:41
	str	w8, [x0, #48]
.Ltmp151:
.LBB8_2:
	//DEBUG_VALUE: hisi_blk_queue_latency_init:blk_lld <- $x0
	//DEBUG_VALUE: hisi_blk_queue_latency_init:q <- $x19
	.loc	5 273 48                // /mnt/ssddisk/jslave/ci/workspace/chipset_WLZ_4g_release/opensource/component_code/vendor/huawei/extra/build/build_script/kirin_kernel_release/kernel/block/hisi-blk-latency.c:273:48
	str	w8, [x19, #1684]
	.loc	5 276 12                // /mnt/ssddisk/jslave/ci/workspace/chipset_WLZ_4g_release/opensource/component_code/vendor/huawei/extra/build/build_script/kirin_kernel_release/kernel/block/hisi-blk-latency.c:276:12
	ldr	w8, [x0, #24]
	.loc	5 276 3 is_stmt 0       // /mnt/ssddisk/jslave/ci/workspace/chipset_WLZ_4g_release/opensource/component_code/vendor/huawei/extra/build/build_script/kirin_kernel_release/kernel/block/hisi-blk-latency.c:276:3
	ubfx	w8, w8, #1, #1
	.loc	5 275 34 is_stmt 1      // /mnt/ssddisk/jslave/ci/workspace/chipset_WLZ_4g_release/opensource/component_code/vendor/huawei/extra/build/build_script/kirin_kernel_release/kernel/block/hisi-blk-latency.c:275:34
	strb	w8, [x19, #1681]
	.loc	5 277 1                 // /mnt/ssddisk/jslave/ci/workspace/chipset_WLZ_4g_release/opensource/component_code/vendor/huawei/extra/build/build_script/kirin_kernel_release/kernel/block/hisi-blk-latency.c:277:1
	ldp	x29, x30, [sp, #16]     // 16-byte Folded Reload
	ldr	x19, [sp], #32          // 8-byte Folded Reload
.Ltmp152:
	ret
.Ltmp153:
.Lfunc_end8:
	.size	hisi_blk_queue_latency_init, .Lfunc_end8-hisi_blk_queue_latency_init
	.cfi_endproc
                                        // -- End function
	.section	.init.text,"ax",@progbits
	.hidden	hisi_blk_latency_init   // -- Begin function hisi_blk_latency_init
	.globl	hisi_blk_latency_init
	.p2align	2
	.type	hisi_blk_latency_init,@function
hisi_blk_latency_init:                  // @hisi_blk_latency_init
.Lfunc_begin9:
	.loc	5 280 0                 // /mnt/ssddisk/jslave/ci/workspace/chipset_WLZ_4g_release/opensource/component_code/vendor/huawei/extra/build/build_script/kirin_kernel_release/kernel/block/hisi-blk-latency.c:280:0
	.cfi_startproc
// %bb.0:
	stp	x29, x30, [sp, #-16]!   // 16-byte Folded Spill
	mov	x29, sp
	.cfi_def_cfa w29, 16
	.cfi_offset w30, -8
	.cfi_offset w29, -16
.Ltmp154:
	.loc	5 281 2 prologue_end    // /mnt/ssddisk/jslave/ci/workspace/chipset_WLZ_4g_release/opensource/component_code/vendor/huawei/extra/build/build_script/kirin_kernel_release/kernel/block/hisi-blk-latency.c:281:2
	adrp	x0, latency_log_protect_lock
	adrp	x1, .L.str.22
	adrp	x2, hisi_blk_latency_init.__key
	add	x0, x0, :lo12:latency_log_protect_lock
	add	x1, x1, :lo12:.L.str.22
	add	x2, x2, :lo12:hisi_blk_latency_init.__key
	bl	__raw_spin_lock_init
.Ltmp155:
	//DEBUG_VALUE: __write_once_size:size <- 4
	//DEBUG_VALUE: __write_once_size:res <- undef
	.loc	153 212 31              // /mnt/ssddisk/jslave/ci/workspace/chipset_WLZ_4g_release/opensource/component_code/vendor/huawei/extra/build/build_script/kirin_kernel_release/kernel/include/linux/compiler.h:212:31
	adrp	x8, latency_warning_total
	str	wzr, [x8, :lo12:latency_warning_total]
.Ltmp156:
	.loc	5 284 2                 // /mnt/ssddisk/jslave/ci/workspace/chipset_WLZ_4g_release/opensource/component_code/vendor/huawei/extra/build/build_script/kirin_kernel_release/kernel/block/hisi-blk-latency.c:284:2
	bl	iowp_workqueue_init
	.loc	5 286 1                 // /mnt/ssddisk/jslave/ci/workspace/chipset_WLZ_4g_release/opensource/component_code/vendor/huawei/extra/build/build_script/kirin_kernel_release/kernel/block/hisi-blk-latency.c:286:1
	ldp	x29, x30, [sp], #16     // 16-byte Folded Reload
	ret
.Ltmp157:
.Lfunc_end9:
	.size	hisi_blk_latency_init, .Lfunc_end9-hisi_blk_latency_init
	.cfi_endproc
                                        // -- End function
	.section	.text.blk_mq_tagset_latency_warning_set,"ax",@progbits
	.hidden	blk_mq_tagset_latency_warning_set // -- Begin function blk_mq_tagset_latency_warning_set
	.globl	blk_mq_tagset_latency_warning_set
	.p2align	2
	.type	blk_mq_tagset_latency_warning_set,@function
blk_mq_tagset_latency_warning_set:      // @blk_mq_tagset_latency_warning_set
.Lfunc_begin10:
	.loc	5 294 0                 // /mnt/ssddisk/jslave/ci/workspace/chipset_WLZ_4g_release/opensource/component_code/vendor/huawei/extra/build/build_script/kirin_kernel_release/kernel/block/hisi-blk-latency.c:294:0
	.cfi_startproc
// %bb.0:
	//DEBUG_VALUE: blk_mq_tagset_latency_warning_set:tag_set <- $x0
	//DEBUG_VALUE: blk_mq_tagset_latency_warning_set:tag_set <- $x0
	//DEBUG_VALUE: blk_mq_tagset_latency_warning_set:warning_threshold_ms <- $w1
	//DEBUG_VALUE: blk_mq_tagset_latency_warning_set:warning_threshold_ms <- $w1
	.loc	5 295 33 prologue_end   // /mnt/ssddisk/jslave/ci/workspace/chipset_WLZ_4g_release/opensource/component_code/vendor/huawei/extra/build/build_script/kirin_kernel_release/kernel/block/hisi-blk-latency.c:295:33
	ldr	x8, [x0, #40]
	.loc	5 297 3                 // /mnt/ssddisk/jslave/ci/workspace/chipset_WLZ_4g_release/opensource/component_code/vendor/huawei/extra/build/build_script/kirin_kernel_release/kernel/block/hisi-blk-latency.c:297:3
	cmp	w1, #0                  // =0
	mov	w9, #2000
	csel	w9, w9, w1, eq
	.loc	5 295 33                // /mnt/ssddisk/jslave/ci/workspace/chipset_WLZ_4g_release/opensource/component_code/vendor/huawei/extra/build/build_script/kirin_kernel_release/kernel/block/hisi-blk-latency.c:295:33
	orr	x8, x8, #0x2
	str	x8, [x0, #40]
	.loc	5 296 49                // /mnt/ssddisk/jslave/ci/workspace/chipset_WLZ_4g_release/opensource/component_code/vendor/huawei/extra/build/build_script/kirin_kernel_release/kernel/block/hisi-blk-latency.c:296:49
	str	w9, [x0, #64]
	.loc	5 300 1                 // /mnt/ssddisk/jslave/ci/workspace/chipset_WLZ_4g_release/opensource/component_code/vendor/huawei/extra/build/build_script/kirin_kernel_release/kernel/block/hisi-blk-latency.c:300:1
	ret
.Ltmp158:
.Lfunc_end10:
	.size	blk_mq_tagset_latency_warning_set, .Lfunc_end10-blk_mq_tagset_latency_warning_set
	.cfi_endproc
                                        // -- End function
	.section	.text.blk_queue_latency_warning_set,"ax",@progbits
	.hidden	blk_queue_latency_warning_set // -- Begin function blk_queue_latency_warning_set
	.globl	blk_queue_latency_warning_set
	.p2align	2
	.type	blk_queue_latency_warning_set,@function
blk_queue_latency_warning_set:          // @blk_queue_latency_warning_set
.Lfunc_begin11:
	.loc	5 309 0                 // /mnt/ssddisk/jslave/ci/workspace/chipset_WLZ_4g_release/opensource/component_code/vendor/huawei/extra/build/build_script/kirin_kernel_release/kernel/block/hisi-blk-latency.c:309:0
	.cfi_startproc
// %bb.0:
	stp	x20, x19, [sp, #-32]!   // 16-byte Folded Spill
	stp	x29, x30, [sp, #16]     // 16-byte Folded Spill
	add	x29, sp, #16            // =16
	.cfi_def_cfa w29, 16
	.cfi_offset w30, -8
	.cfi_offset w29, -16
	.cfi_offset w19, -24
	.cfi_offset w20, -32
	//DEBUG_VALUE: blk_queue_latency_warning_set:q <- $x0
	//DEBUG_VALUE: blk_queue_latency_warning_set:warning_threshold_ms <- $w1
	mov	w19, w1
	mov	x20, x0
.Ltmp159:
	//DEBUG_VALUE: blk_queue_latency_warning_set:warning_threshold_ms <- $w19
	//DEBUG_VALUE: blk_queue_latency_warning_set:q <- $x20
	.loc	5 310 32 prologue_end   // /mnt/ssddisk/jslave/ci/workspace/chipset_WLZ_4g_release/opensource/component_code/vendor/huawei/extra/build/build_script/kirin_kernel_release/kernel/block/hisi-blk-latency.c:310:32
	bl	hisi_blk_get_lld
.Ltmp160:
	//DEBUG_VALUE: blk_queue_latency_warning_set:blk_lld <- $x0
	.loc	5 311 24                // /mnt/ssddisk/jslave/ci/workspace/chipset_WLZ_4g_release/opensource/component_code/vendor/huawei/extra/build/build_script/kirin_kernel_release/kernel/block/hisi-blk-latency.c:311:24
	ldr	x8, [x0, #24]
	.loc	5 313 3                 // /mnt/ssddisk/jslave/ci/workspace/chipset_WLZ_4g_release/opensource/component_code/vendor/huawei/extra/build/build_script/kirin_kernel_release/kernel/block/hisi-blk-latency.c:313:3
	cmp	w19, #0                 // =0
	mov	w9, #2000
	orr	w10, wzr, #0x1
	csel	w9, w9, w19, eq
	.loc	5 311 24                // /mnt/ssddisk/jslave/ci/workspace/chipset_WLZ_4g_release/opensource/component_code/vendor/huawei/extra/build/build_script/kirin_kernel_release/kernel/block/hisi-blk-latency.c:311:24
	orr	x8, x8, #0x2
	.loc	5 312 40                // /mnt/ssddisk/jslave/ci/workspace/chipset_WLZ_4g_release/opensource/component_code/vendor/huawei/extra/build/build_script/kirin_kernel_release/kernel/block/hisi-blk-latency.c:312:40
	str	w9, [x0, #48]
	.loc	5 311 24                // /mnt/ssddisk/jslave/ci/workspace/chipset_WLZ_4g_release/opensource/component_code/vendor/huawei/extra/build/build_script/kirin_kernel_release/kernel/block/hisi-blk-latency.c:311:24
	str	x8, [x0, #24]
	.loc	5 316 48                // /mnt/ssddisk/jslave/ci/workspace/chipset_WLZ_4g_release/opensource/component_code/vendor/huawei/extra/build/build_script/kirin_kernel_release/kernel/block/hisi-blk-latency.c:316:48
	str	w9, [x20, #1684]
	.loc	5 318 34                // /mnt/ssddisk/jslave/ci/workspace/chipset_WLZ_4g_release/opensource/component_code/vendor/huawei/extra/build/build_script/kirin_kernel_release/kernel/block/hisi-blk-latency.c:318:34
	strb	w10, [x20, #1681]
	.loc	5 319 1                 // /mnt/ssddisk/jslave/ci/workspace/chipset_WLZ_4g_release/opensource/component_code/vendor/huawei/extra/build/build_script/kirin_kernel_release/kernel/block/hisi-blk-latency.c:319:1
	ldp	x29, x30, [sp, #16]     // 16-byte Folded Reload
	ldp	x20, x19, [sp], #32     // 16-byte Folded Reload
.Ltmp161:
	ret
.Ltmp162:
.Lfunc_end11:
	.size	blk_queue_latency_warning_set, .Lfunc_end11-blk_queue_latency_warning_set
	.cfi_endproc
                                        // -- End function
	.section	.text.hisi_queue_io_latency_warning_threshold_store,"ax",@progbits
	.hidden	hisi_queue_io_latency_warning_threshold_store // -- Begin function hisi_queue_io_latency_warning_threshold_store
	.globl	hisi_queue_io_latency_warning_threshold_store
	.p2align	2
	.type	hisi_queue_io_latency_warning_threshold_store,@function
hisi_queue_io_latency_warning_threshold_store: // @hisi_queue_io_latency_warning_threshold_store
.Lfunc_begin12:
	.loc	5 351 0                 // /mnt/ssddisk/jslave/ci/workspace/chipset_WLZ_4g_release/opensource/component_code/vendor/huawei/extra/build/build_script/kirin_kernel_release/kernel/block/hisi-blk-latency.c:351:0
	.cfi_startproc
// %bb.0:
	sub	sp, sp, #64             // =64
	stp	x22, x21, [sp, #16]     // 16-byte Folded Spill
	stp	x20, x19, [sp, #32]     // 16-byte Folded Spill
	stp	x29, x30, [sp, #48]     // 16-byte Folded Spill
	add	x29, sp, #48            // =48
	.cfi_def_cfa w29, 16
	.cfi_offset w30, -8
	.cfi_offset w29, -16
	.cfi_offset w19, -24
	.cfi_offset w20, -32
	.cfi_offset w21, -40
	.cfi_offset w22, -48
	//DEBUG_VALUE: hisi_queue_io_latency_warning_threshold_store:q <- $x0
	//DEBUG_VALUE: hisi_queue_io_latency_warning_threshold_store:page <- $x1
	//DEBUG_VALUE: hisi_queue_io_latency_warning_threshold_store:count <- $x2
.Ltmp163:
	//DEBUG_VALUE: hisi_blk_queue_io_latency_check_enable:q <- $x0
	//DEBUG_VALUE: hisi_blk_queue_io_latency_warning_threshold:q <- $x0
	adrp	x8, __stack_chk_guard
	ldr	x8, [x8, :lo12:__stack_chk_guard]
	mov	x20, x0
.Ltmp164:
	//DEBUG_VALUE: hisi_blk_queue_io_latency_warning_threshold:q <- $x20
	//DEBUG_VALUE: hisi_blk_queue_io_latency_check_enable:q <- $x20
	.loc	5 354 8 prologue_end    // /mnt/ssddisk/jslave/ci/workspace/chipset_WLZ_4g_release/opensource/component_code/vendor/huawei/extra/build/build_script/kirin_kernel_release/kernel/block/hisi-blk-latency.c:354:8
	mov	x0, sp
.Ltmp165:
	//DEBUG_VALUE: hisi_queue_io_latency_warning_threshold_store:page <- $x1
	.loc	5 0 8 is_stmt 0         // /mnt/ssddisk/jslave/ci/workspace/chipset_WLZ_4g_release/opensource/component_code/vendor/huawei/extra/build/build_script/kirin_kernel_release/kernel/block/hisi-blk-latency.c:0:8
	mov	x19, x2
	str	x8, [sp, #8]
.Ltmp166:
	//DEBUG_VALUE: hisi_queue_io_latency_warning_threshold_store:count <- $x19
	//DEBUG_VALUE: hisi_queue_io_latency_warning_threshold_store:page <- $x1
	//DEBUG_VALUE: hisi_queue_io_latency_warning_threshold_store:q <- $x20
	//DEBUG_VALUE: hisi_queue_io_latency_warning_threshold_store:val <- [DW_OP_deref] $sp
	.loc	5 354 8                 // /mnt/ssddisk/jslave/ci/workspace/chipset_WLZ_4g_release/opensource/component_code/vendor/huawei/extra/build/build_script/kirin_kernel_release/kernel/block/hisi-blk-latency.c:354:8
	bl	queue_var_store
.Ltmp167:
	//DEBUG_VALUE: hisi_queue_io_latency_warning_threshold_store:ret <- $x0
	.loc	5 355 6 is_stmt 1       // /mnt/ssddisk/jslave/ci/workspace/chipset_WLZ_4g_release/opensource/component_code/vendor/huawei/extra/build/build_script/kirin_kernel_release/kernel/block/hisi-blk-latency.c:355:6
	tbnz	x0, #63, .LBB12_4
.Ltmp168:
// %bb.1:
	//DEBUG_VALUE: hisi_queue_io_latency_warning_threshold_store:ret <- $x0
	//DEBUG_VALUE: hisi_queue_io_latency_warning_threshold_store:val <- [DW_OP_deref] $sp
	//DEBUG_VALUE: hisi_queue_io_latency_warning_threshold_store:q <- $x20
	//DEBUG_VALUE: hisi_queue_io_latency_warning_threshold_store:count <- $x19
	//DEBUG_VALUE: hisi_blk_queue_io_latency_check_enable:q <- $x20
	.loc	5 356 3                 // /mnt/ssddisk/jslave/ci/workspace/chipset_WLZ_4g_release/opensource/component_code/vendor/huawei/extra/build/build_script/kirin_kernel_release/kernel/block/hisi-blk-latency.c:356:3
	ldr	x2, [sp]
.Ltmp169:
	//DEBUG_VALUE: hisi_queue_io_latency_warning_threshold_store:val <- $x2
	adrp	x0, .L.str.23
.Ltmp170:
	adrp	x1, .L__func__.hisi_queue_io_latency_warning_threshold_store
	add	x0, x0, :lo12:.L.str.23
	add	x1, x1, :lo12:.L__func__.hisi_queue_io_latency_warning_threshold_store
	bl	printk
.Ltmp171:
	.loc	5 359 45                // /mnt/ssddisk/jslave/ci/workspace/chipset_WLZ_4g_release/opensource/component_code/vendor/huawei/extra/build/build_script/kirin_kernel_release/kernel/block/hisi-blk-latency.c:359:45
	ldr	x21, [sp]
.Ltmp172:
	//DEBUG_VALUE: hisi_queue_io_latency_warning_threshold_store:val <- $x21
	.loc	5 325 32                // /mnt/ssddisk/jslave/ci/workspace/chipset_WLZ_4g_release/opensource/component_code/vendor/huawei/extra/build/build_script/kirin_kernel_release/kernel/block/hisi-blk-latency.c:325:32
	mov	x0, x20
.Ltmp173:
	.loc	5 359 45                // /mnt/ssddisk/jslave/ci/workspace/chipset_WLZ_4g_release/opensource/component_code/vendor/huawei/extra/build/build_script/kirin_kernel_release/kernel/block/hisi-blk-latency.c:359:45
	cmp	x21, #0                 // =0
	cset	w22, ne
.Ltmp174:
	//DEBUG_VALUE: hisi_blk_queue_io_latency_check_enable:enable <- $w22
	.loc	5 325 32                // /mnt/ssddisk/jslave/ci/workspace/chipset_WLZ_4g_release/opensource/component_code/vendor/huawei/extra/build/build_script/kirin_kernel_release/kernel/block/hisi-blk-latency.c:325:32
	bl	hisi_blk_get_lld
.Ltmp175:
	.loc	5 326 20                // /mnt/ssddisk/jslave/ci/workspace/chipset_WLZ_4g_release/opensource/component_code/vendor/huawei/extra/build/build_script/kirin_kernel_release/kernel/block/hisi-blk-latency.c:326:20
	ldrb	w8, [x20, #1681]
.Ltmp176:
	.loc	5 326 6 is_stmt 0       // /mnt/ssddisk/jslave/ci/workspace/chipset_WLZ_4g_release/opensource/component_code/vendor/huawei/extra/build/build_script/kirin_kernel_release/kernel/block/hisi-blk-latency.c:326:6
	cmp	w8, w22
.Ltmp177:
	//DEBUG_VALUE: hisi_blk_queue_io_latency_check_enable:blk_lld <- $x0
	b.eq	.LBB12_3
.Ltmp178:
// %bb.2:
	//DEBUG_VALUE: hisi_blk_queue_io_latency_check_enable:blk_lld <- $x0
	//DEBUG_VALUE: hisi_blk_queue_io_latency_check_enable:enable <- $w22
	//DEBUG_VALUE: hisi_queue_io_latency_warning_threshold_store:val <- $x21
	//DEBUG_VALUE: hisi_queue_io_latency_warning_threshold_store:q <- $x20
	//DEBUG_VALUE: hisi_queue_io_latency_warning_threshold_store:count <- $x19
	//DEBUG_VALUE: hisi_blk_queue_io_latency_check_enable:q <- $x20
	.loc	5 359 45 is_stmt 1      // /mnt/ssddisk/jslave/ci/workspace/chipset_WLZ_4g_release/opensource/component_code/vendor/huawei/extra/build/build_script/kirin_kernel_release/kernel/block/hisi-blk-latency.c:359:45
	cmp	x21, #0                 // =0
	cset	w8, ne
.Ltmp179:
	.loc	5 328 34                // /mnt/ssddisk/jslave/ci/workspace/chipset_WLZ_4g_release/opensource/component_code/vendor/huawei/extra/build/build_script/kirin_kernel_release/kernel/block/hisi-blk-latency.c:328:34
	strb	w8, [x20, #1681]
.Ltmp180:
	.loc	5 0 0 is_stmt 0         // /mnt/ssddisk/jslave/ci/workspace/chipset_WLZ_4g_release/opensource/component_code/vendor/huawei/extra/build/build_script/kirin_kernel_release/kernel/block/hisi-blk-latency.c:0:0
	ldr	x8, [x0, #24]
.Ltmp181:
	.loc	5 329 6 is_stmt 1       // /mnt/ssddisk/jslave/ci/workspace/chipset_WLZ_4g_release/opensource/component_code/vendor/huawei/extra/build/build_script/kirin_kernel_release/kernel/block/hisi-blk-latency.c:329:6
	and	x9, x8, #0xfffffffffffffffd
	orr	x8, x8, #0x2
	csel	x8, x8, x9, ne
.Ltmp182:
	.loc	5 0 0 is_stmt 0         // /mnt/ssddisk/jslave/ci/workspace/chipset_WLZ_4g_release/opensource/component_code/vendor/huawei/extra/build/build_script/kirin_kernel_release/kernel/block/hisi-blk-latency.c:0:0
	str	x8, [x0, #24]
.Ltmp183:
.LBB12_3:
	//DEBUG_VALUE: hisi_queue_io_latency_warning_threshold_store:val <- $x21
	//DEBUG_VALUE: hisi_queue_io_latency_warning_threshold_store:q <- $x20
	//DEBUG_VALUE: hisi_queue_io_latency_warning_threshold_store:count <- $x19
	.loc	5 360 50 is_stmt 1      // /mnt/ssddisk/jslave/ci/workspace/chipset_WLZ_4g_release/opensource/component_code/vendor/huawei/extra/build/build_script/kirin_kernel_release/kernel/block/hisi-blk-latency.c:360:50
	ldr	w21, [sp]
.Ltmp184:
	//DEBUG_VALUE: hisi_blk_queue_io_latency_warning_threshold:warning_threshold_ms <- $w21
	.loc	5 338 32                // /mnt/ssddisk/jslave/ci/workspace/chipset_WLZ_4g_release/opensource/component_code/vendor/huawei/extra/build/build_script/kirin_kernel_release/kernel/block/hisi-blk-latency.c:338:32
	mov	x0, x20
	bl	hisi_blk_get_lld
.Ltmp185:
	//DEBUG_VALUE: hisi_blk_queue_io_latency_warning_threshold:blk_lld <- $x0
	.loc	5 340 3                 // /mnt/ssddisk/jslave/ci/workspace/chipset_WLZ_4g_release/opensource/component_code/vendor/huawei/extra/build/build_script/kirin_kernel_release/kernel/block/hisi-blk-latency.c:340:3
	cmp	w21, #0                 // =0
	mov	w8, #2000
	csel	w8, w8, w21, eq
	.loc	5 339 40                // /mnt/ssddisk/jslave/ci/workspace/chipset_WLZ_4g_release/opensource/component_code/vendor/huawei/extra/build/build_script/kirin_kernel_release/kernel/block/hisi-blk-latency.c:339:40
	str	w8, [x0, #48]
	.loc	5 343 48                // /mnt/ssddisk/jslave/ci/workspace/chipset_WLZ_4g_release/opensource/component_code/vendor/huawei/extra/build/build_script/kirin_kernel_release/kernel/block/hisi-blk-latency.c:343:48
	str	w8, [x20, #1684]
.Ltmp186:
.LBB12_4:
	//DEBUG_VALUE: hisi_queue_io_latency_warning_threshold_store:q <- $x20
	//DEBUG_VALUE: hisi_queue_io_latency_warning_threshold_store:count <- $x19
	.loc	5 0 48 is_stmt 0        // /mnt/ssddisk/jslave/ci/workspace/chipset_WLZ_4g_release/opensource/component_code/vendor/huawei/extra/build/build_script/kirin_kernel_release/kernel/block/hisi-blk-latency.c:0:48
	adrp	x9, __stack_chk_guard
	ldr	x8, [sp, #8]
	ldr	x9, [x9, :lo12:__stack_chk_guard]
	cmp	x9, x8
	b.ne	.LBB12_6
.Ltmp187:
// %bb.5:
	//DEBUG_VALUE: hisi_queue_io_latency_warning_threshold_store:q <- $x20
	//DEBUG_VALUE: hisi_queue_io_latency_warning_threshold_store:count <- $x19
	.loc	5 362 2 is_stmt 1       // /mnt/ssddisk/jslave/ci/workspace/chipset_WLZ_4g_release/opensource/component_code/vendor/huawei/extra/build/build_script/kirin_kernel_release/kernel/block/hisi-blk-latency.c:362:2
	mov	x0, x19
	ldp	x29, x30, [sp, #48]     // 16-byte Folded Reload
	ldp	x20, x19, [sp, #32]     // 16-byte Folded Reload
.Ltmp188:
	ldp	x22, x21, [sp, #16]     // 16-byte Folded Reload
	add	sp, sp, #64             // =64
	ret
.Ltmp189:
.LBB12_6:
	//DEBUG_VALUE: hisi_queue_io_latency_warning_threshold_store:q <- $x20
	//DEBUG_VALUE: hisi_queue_io_latency_warning_threshold_store:count <- $x19
	.loc	5 0 2 is_stmt 0         // /mnt/ssddisk/jslave/ci/workspace/chipset_WLZ_4g_release/opensource/component_code/vendor/huawei/extra/build/build_script/kirin_kernel_release/kernel/block/hisi-blk-latency.c:0:2
	bl	__stack_chk_fail
.Lfunc_end12:
	.size	hisi_queue_io_latency_warning_threshold_store, .Lfunc_end12-hisi_queue_io_latency_warning_threshold_store
	.cfi_endproc
                                        // -- End function
	.hidden	blk_latency_log_ratelimit_state // @blk_latency_log_ratelimit_state
	.type	blk_latency_log_ratelimit_state,@object
	.section	.data.blk_latency_log_ratelimit_state,"aw",@progbits
	.globl	blk_latency_log_ratelimit_state
	.p2align	3
blk_latency_log_ratelimit_state:
	.zero	4
	.word	3735899821              // 0xdead4ead
	.word	4294967295              // 0xffffffff
	.zero	4
	.xword	-1
	.word	750                     // 0x2ee
	.word	5                       // 0x5
	.word	0                       // 0x0
	.word	0                       // 0x0
	.xword	0                       // 0x0
	.xword	0                       // 0x0
	.size	blk_latency_log_ratelimit_state, 56

	.type	.L.str,@object          // @.str
	.section	.rodata.str1.1,"aMS",@progbits,1
.L.str:
	.asciz	"BIO_SUBMIT"
	.size	.L.str, 11

	.type	.L.str.1,@object        // @.str.1
.L.str.1:
	.asciz	"BIO_END"
	.size	.L.str.1, 8

	.type	.L.str.2,@object        // @.str.2
.L.str.2:
	.asciz	"BIO_MAKE_REQ"
	.size	.L.str.2, 13

	.type	.L.str.3,@object        // @.str.3
.L.str.3:
	.asciz	"BIO_WBT_DONE"
	.size	.L.str.3, 13

	.hidden	bio_stage_cfg           // @bio_stage_cfg
	.type	bio_stage_cfg,@object
	.section	.rodata.bio_stage_cfg,"a",@progbits
	.globl	bio_stage_cfg
	.p2align	3
bio_stage_cfg:
	.xword	.L.str
	.xword	hisi_blk_latency_bio_submit_func
	.xword	.L.str.1
	.xword	hisi_blk_latency_bio_endio_func
	.xword	.L.str.2
	.xword	0
	.xword	.L.str.3
	.xword	0
	.size	bio_stage_cfg, 64

	.type	.L.str.4,@object        // @.str.4
	.section	.rodata.str1.1,"aMS",@progbits,1
.L.str.4:
	.asciz	"REQ_INIT"
	.size	.L.str.4, 9

	.type	.L.str.5,@object        // @.str.5
.L.str.5:
	.asciz	"FSEQ_PREFLUSH"
	.size	.L.str.5, 14

	.type	.L.str.6,@object        // @.str.6
.L.str.6:
	.asciz	"FSEQ_DATA"
	.size	.L.str.6, 10

	.type	.L.str.7,@object        // @.str.7
.L.str.7:
	.asciz	"FSEQ_POSTFLUSH"
	.size	.L.str.7, 15

	.type	.L.str.8,@object        // @.str.8
.L.str.8:
	.asciz	"FSEQ_DONE"
	.size	.L.str.8, 10

	.type	.L.str.9,@object        // @.str.9
.L.str.9:
	.asciz	"REQ_RQ_START"
	.size	.L.str.9, 13

	.type	.L.str.10,@object       // @.str.10
.L.str.10:
	.asciz	"REQ_MQ_ADDTO_PLUGLIST"
	.size	.L.str.10, 22

	.type	.L.str.11,@object       // @.str.11
.L.str.11:
	.asciz	"REQ_MQ_FLUSH_PLUGLIST"
	.size	.L.str.11, 22

	.type	.L.str.12,@object       // @.str.12
.L.str.12:
	.asciz	"REQ_MQ_ADDTO_SYNC_LIST"
	.size	.L.str.12, 23

	.type	.L.str.13,@object       // @.str.13
.L.str.13:
	.asciz	"REQ_MQ_ADDTO_ASYNC_LIST"
	.size	.L.str.13, 24

	.type	.L.str.14,@object       // @.str.14
.L.str.14:
	.asciz	"REQ_MQ_QUEUE_RQ"
	.size	.L.str.14, 16

	.type	.L.str.15,@object       // @.str.15
.L.str.15:
	.asciz	"REQ_SQ_REQUEUE"
	.size	.L.str.15, 15

	.type	.L.str.16,@object       // @.str.16
.L.str.16:
	.asciz	"REQ_SCSI_SFT_IRQ_DONE"
	.size	.L.str.16, 22

	.type	.L.str.17,@object       // @.str.17
.L.str.17:
	.asciz	"REQ_RQ_UPDATE"
	.size	.L.str.17, 14

	.type	.L.str.18,@object       // @.str.18
.L.str.18:
	.asciz	"REQ_RQ_FREE"
	.size	.L.str.18, 12

	.hidden	req_stage_cfg           // @req_stage_cfg
	.type	req_stage_cfg,@object
	.section	.rodata.req_stage_cfg,"a",@progbits
	.globl	req_stage_cfg
	.p2align	3
req_stage_cfg:
	.xword	.L.str.4
	.xword	hisi_blk_latency_req_init_func
	.xword	.L.str.5
	.xword	0
	.xword	.L.str.6
	.xword	0
	.xword	.L.str.7
	.xword	0
	.xword	.L.str.8
	.xword	0
	.xword	.L.str.9
	.xword	0
	.xword	.L.str.10
	.xword	0
	.xword	.L.str.11
	.xword	0
	.xword	.L.str.12
	.xword	0
	.xword	.L.str.13
	.xword	0
	.xword	.L.str.14
	.xword	0
	.xword	.L.str.15
	.xword	0
	.xword	.L.str.16
	.xword	0
	.xword	.L.str.17
	.xword	0
	.xword	.L.str.18
	.xword	hisi_blk_latency_req_free_func
	.size	req_stage_cfg, 240

	.type	latency_log_protect_lock,@object // @latency_log_protect_lock
	.section	.bss.latency_log_protect_lock,"aw",@nobits
	.p2align	3
latency_log_protect_lock:
	.zero	24
	.size	latency_log_protect_lock, 24

	.type	.L.str.19,@object       // @.str.19
	.section	.rodata.str1.1,"aMS",@progbits,1
.L.str.19:
	.asciz	"\0013[BLK-IO]%s %d Invalid fs_io_flag: 0x%x\n"
	.size	.L.str.19, 42

	.type	.L__func__.hisi_blk_latency_check_timer_expire,@object // @__func__.hisi_blk_latency_check_timer_expire
.L__func__.hisi_blk_latency_check_timer_expire:
	.asciz	"hisi_blk_latency_check_timer_expire"
	.size	.L__func__.hisi_blk_latency_check_timer_expire, 36

	.type	.L.str.20,@object       // @.str.20
.L.str.20:
	.asciz	"\0013[BLK-IO]%s %d Invalid request queue !\n"
	.size	.L.str.20, 41

	.type	latency_warning_total,@object // @latency_warning_total
	.section	.bss.latency_warning_total,"aw",@nobits
	.p2align	2
latency_warning_total:
	.zero	4
	.size	latency_warning_total, 4

	.type	.L.str.21,@object       // @.str.21
	.section	.rodata.str1.1,"aMS",@progbits,1
.L.str.21:
	.asciz	"io latency"
	.size	.L.str.21, 11

	.type	hisi_blk_latency_init.__key,@object // @hisi_blk_latency_init.__key
	.section	.bss.hisi_blk_latency_init.__key,"aw",@nobits
hisi_blk_latency_init.__key:
	.size	hisi_blk_latency_init.__key, 0

	.type	.L.str.22,@object       // @.str.22
	.section	.rodata.str1.1,"aMS",@progbits,1
.L.str.22:
	.asciz	"&(&latency_log_protect_lock)->rlock"
	.size	.L.str.22, 36

	.type	__kstrtab_blk_mq_tagset_latency_warning_set,@object // @__kstrtab_blk_mq_tagset_latency_warning_set
	.section	__ksymtab_strings,"a",@progbits
__kstrtab_blk_mq_tagset_latency_warning_set:
	.asciz	"blk_mq_tagset_latency_warning_set"
	.size	__kstrtab_blk_mq_tagset_latency_warning_set, 34

	.type	__ksymtab_blk_mq_tagset_latency_warning_set,@object // @__ksymtab_blk_mq_tagset_latency_warning_set
	.section	"___ksymtab+blk_mq_tagset_latency_warning_set","a",@progbits
	.p2align	3
__ksymtab_blk_mq_tagset_latency_warning_set:
	.xword	blk_mq_tagset_latency_warning_set
	.xword	__kstrtab_blk_mq_tagset_latency_warning_set
	.size	__ksymtab_blk_mq_tagset_latency_warning_set, 16

	.type	__kstrtab_blk_queue_latency_warning_set,@object // @__kstrtab_blk_queue_latency_warning_set
	.section	__ksymtab_strings,"a",@progbits
__kstrtab_blk_queue_latency_warning_set:
	.asciz	"blk_queue_latency_warning_set"
	.size	__kstrtab_blk_queue_latency_warning_set, 30

	.type	__ksymtab_blk_queue_latency_warning_set,@object // @__ksymtab_blk_queue_latency_warning_set
	.section	"___ksymtab+blk_queue_latency_warning_set","a",@progbits
	.p2align	3
__ksymtab_blk_queue_latency_warning_set:
	.xword	blk_queue_latency_warning_set
	.xword	__kstrtab_blk_queue_latency_warning_set
	.size	__ksymtab_blk_queue_latency_warning_set, 16

	.type	.L.str.23,@object       // @.str.23
	.section	.rodata.str1.1,"aMS",@progbits,1
.L.str.23:
	.asciz	"\0013[BLK-IO]%s: io latency warning threshold would be set to %lu \r\n"
	.size	.L.str.23, 66

	.type	.L__func__.hisi_queue_io_latency_warning_threshold_store,@object // @__func__.hisi_queue_io_latency_warning_threshold_store
.L__func__.hisi_queue_io_latency_warning_threshold_store:
	.asciz	"hisi_queue_io_latency_warning_threshold_store"
	.size	.L__func__.hisi_queue_io_latency_warning_threshold_store, 46

	.type	.L__func__.hisi_blk_latency_bio_endio_func,@object // @__func__.hisi_blk_latency_bio_endio_func
.L__func__.hisi_blk_latency_bio_endio_func:
	.asciz	"hisi_blk_latency_bio_endio_func"
	.size	.L__func__.hisi_blk_latency_bio_endio_func, 32

	.type	.L.str.24,@object       // @.str.24
.L.str.24:
	.asciz	"\0013[BLK-IO]Failed to wait io latency timer finished!"
	.size	.L.str.24, 52
