	.text
	.file	"hisi-bkops-core.c"
	.file	1 "/mnt/ssddisk/jslave/ci/workspace/chipset_WLZ_4g_release/opensource/component_code/vendor/huawei/extra/build/build_script/kirin_kernel_release/kernel/block/hisi-bkops-core.c"
	.file	2 "/mnt/ssddisk/jslave/ci/workspace/chipset_WLZ_4g_release/opensource/component_code/vendor/huawei/extra/build/build_script/kirin_kernel_release/kernel/include/linux/types.h"
	.file	3 "/mnt/ssddisk/jslave/ci/workspace/chipset_WLZ_4g_release/opensource/component_code/vendor/huawei/extra/build/build_script/kirin_kernel_release/kernel/include/asm-generic/atomic-long.h"
	.file	4 "/mnt/ssddisk/jslave/ci/workspace/chipset_WLZ_4g_release/opensource/component_code/vendor/huawei/extra/build/build_script/kirin_kernel_release/kernel/include/linux/mutex.h"
	.file	5 "/mnt/ssddisk/jslave/ci/workspace/chipset_WLZ_4g_release/opensource/component_code/vendor/huawei/extra/build/build_script/kirin_kernel_release/kernel/include/asm-generic/int-ll64.h"
	.file	6 "/mnt/ssddisk/jslave/ci/workspace/chipset_WLZ_4g_release/opensource/component_code/vendor/huawei/extra/build/build_script/kirin_kernel_release/kernel/arch/arm64/include/asm/spinlock_types.h"
	.file	7 "/mnt/ssddisk/jslave/ci/workspace/chipset_WLZ_4g_release/opensource/component_code/vendor/huawei/extra/build/build_script/kirin_kernel_release/kernel/include/linux/spinlock_types.h"
	.file	8 "/mnt/ssddisk/jslave/ci/workspace/chipset_WLZ_4g_release/opensource/component_code/vendor/huawei/extra/build/build_script/kirin_kernel_release/kernel/include/linux/osq_lock.h"
	.file	9 "/mnt/ssddisk/jslave/ci/workspace/chipset_WLZ_4g_release/opensource/component_code/vendor/huawei/extra/build/build_script/kirin_kernel_release/kernel/arch/arm64/include/asm/thread_info.h"
	.file	10 "/mnt/ssddisk/jslave/ci/workspace/chipset_WLZ_4g_release/opensource/component_code/vendor/huawei/extra/build/build_script/kirin_kernel_release/kernel/include/linux/sched.h"
	.file	11 "/mnt/ssddisk/jslave/ci/workspace/chipset_WLZ_4g_release/opensource/component_code/vendor/huawei/extra/build/build_script/kirin_kernel_release/kernel/include/uapi/asm-generic/posix_types.h"
	.file	12 "/mnt/ssddisk/jslave/ci/workspace/chipset_WLZ_4g_release/opensource/component_code/vendor/huawei/extra/build/build_script/kirin_kernel_release/kernel/include/linux/llist.h"
	.file	13 "/mnt/ssddisk/jslave/ci/workspace/chipset_WLZ_4g_release/opensource/component_code/vendor/huawei/extra/build/build_script/kirin_kernel_release/kernel/include/linux/rbtree.h"
	.file	14 "/mnt/ssddisk/jslave/ci/workspace/chipset_WLZ_4g_release/opensource/component_code/vendor/huawei/extra/build/build_script/kirin_kernel_release/kernel/include/linux/cpumask.h"
	.file	15 "/mnt/ssddisk/jslave/ci/workspace/chipset_WLZ_4g_release/opensource/component_code/vendor/huawei/extra/build/build_script/kirin_kernel_release/kernel/include/linux/timerqueue.h"
	.file	16 "/mnt/ssddisk/jslave/ci/workspace/chipset_WLZ_4g_release/opensource/component_code/vendor/huawei/extra/build/build_script/kirin_kernel_release/kernel/include/linux/ktime.h"
	.file	17 "/mnt/ssddisk/jslave/ci/workspace/chipset_WLZ_4g_release/opensource/component_code/vendor/huawei/extra/build/build_script/kirin_kernel_release/kernel/include/linux/hrtimer.h"
	.file	18 "/mnt/ssddisk/jslave/ci/workspace/chipset_WLZ_4g_release/opensource/component_code/vendor/huawei/extra/build/build_script/kirin_kernel_release/kernel/include/linux/seqlock.h"
	.file	19 "/mnt/ssddisk/jslave/ci/workspace/chipset_WLZ_4g_release/opensource/component_code/vendor/huawei/extra/build/build_script/kirin_kernel_release/kernel/include/linux/plist.h"
	.file	20 "/mnt/ssddisk/jslave/ci/workspace/chipset_WLZ_4g_release/opensource/component_code/vendor/huawei/extra/build/build_script/kirin_kernel_release/kernel/include/linux/mm_types.h"
	.file	21 "/mnt/ssddisk/jslave/ci/workspace/chipset_WLZ_4g_release/opensource/component_code/vendor/huawei/extra/build/build_script/kirin_kernel_release/kernel/arch/arm64/include/asm/pgtable-types.h"
	.file	22 "/mnt/ssddisk/jslave/ci/workspace/chipset_WLZ_4g_release/opensource/component_code/vendor/huawei/extra/build/build_script/kirin_kernel_release/kernel/include/linux/mm.h"
	.file	23 "/mnt/ssddisk/jslave/ci/workspace/chipset_WLZ_4g_release/opensource/component_code/vendor/huawei/extra/build/build_script/kirin_kernel_release/kernel/include/asm-generic/pgtable-nop4d-hack.h"
	.file	24 "/mnt/ssddisk/jslave/ci/workspace/chipset_WLZ_4g_release/opensource/component_code/vendor/huawei/extra/build/build_script/kirin_kernel_release/kernel/include/linux/fs.h"
	.file	25 "/mnt/ssddisk/jslave/ci/workspace/chipset_WLZ_4g_release/opensource/component_code/vendor/huawei/extra/build/build_script/kirin_kernel_release/kernel/include/linux/uidgid.h"
	.file	26 "/mnt/ssddisk/jslave/ci/workspace/chipset_WLZ_4g_release/opensource/component_code/vendor/huawei/extra/build/build_script/kirin_kernel_release/kernel/include/linux/dcache.h"
	.file	27 "/mnt/ssddisk/jslave/ci/workspace/chipset_WLZ_4g_release/opensource/component_code/vendor/huawei/extra/build/build_script/kirin_kernel_release/kernel/include/linux/list_bl.h"
	.file	28 "/mnt/ssddisk/jslave/ci/workspace/chipset_WLZ_4g_release/opensource/component_code/vendor/huawei/extra/build/build_script/kirin_kernel_release/kernel/include/linux/lockref.h"
	.file	29 "/mnt/ssddisk/jslave/ci/workspace/chipset_WLZ_4g_release/opensource/component_code/vendor/huawei/extra/build/build_script/kirin_kernel_release/kernel/include/linux/path.h"
	.file	30 "/mnt/ssddisk/jslave/ci/workspace/chipset_WLZ_4g_release/opensource/component_code/vendor/huawei/extra/build/build_script/kirin_kernel_release/kernel/include/uapi/asm-generic/int-ll64.h"
	.file	31 "/mnt/ssddisk/jslave/ci/workspace/chipset_WLZ_4g_release/opensource/component_code/vendor/huawei/extra/build/build_script/kirin_kernel_release/kernel/include/linux/module.h"
	.file	32 "/mnt/ssddisk/jslave/ci/workspace/chipset_WLZ_4g_release/opensource/component_code/vendor/huawei/extra/build/build_script/kirin_kernel_release/kernel/include/linux/kobject.h"
	.file	33 "/mnt/ssddisk/jslave/ci/workspace/chipset_WLZ_4g_release/opensource/component_code/vendor/huawei/extra/build/build_script/kirin_kernel_release/kernel/include/linux/sysfs.h"
	.file	34 "/mnt/ssddisk/jslave/ci/workspace/chipset_WLZ_4g_release/opensource/component_code/vendor/huawei/extra/build/build_script/kirin_kernel_release/kernel/include/linux/kobject_ns.h"
	.file	35 "/mnt/ssddisk/jslave/ci/workspace/chipset_WLZ_4g_release/opensource/component_code/vendor/huawei/extra/build/build_script/kirin_kernel_release/kernel/include/linux/kernfs.h"
	.file	36 "/mnt/ssddisk/jslave/ci/workspace/chipset_WLZ_4g_release/opensource/component_code/vendor/huawei/extra/build/build_script/kirin_kernel_release/kernel/include/linux/radix-tree.h"
	.file	37 "/mnt/ssddisk/jslave/ci/workspace/chipset_WLZ_4g_release/opensource/component_code/vendor/huawei/extra/build/build_script/kirin_kernel_release/kernel/include/linux/idr.h"
	.file	38 "/mnt/ssddisk/jslave/ci/workspace/chipset_WLZ_4g_release/opensource/component_code/vendor/huawei/extra/build/build_script/kirin_kernel_release/kernel/include/linux/seq_file.h"
	.file	39 "/mnt/ssddisk/jslave/ci/workspace/chipset_WLZ_4g_release/opensource/component_code/vendor/huawei/extra/build/build_script/kirin_kernel_release/kernel/include/linux/wait.h"
	.file	40 "/mnt/ssddisk/jslave/ci/workspace/chipset_WLZ_4g_release/opensource/component_code/vendor/huawei/extra/build/build_script/kirin_kernel_release/kernel/include/linux/nfs_fs_i.h"
	.file	41 "/mnt/ssddisk/jslave/ci/workspace/chipset_WLZ_4g_release/opensource/component_code/vendor/huawei/extra/build/build_script/kirin_kernel_release/kernel/include/linux/rwlock_types.h"
	.file	42 "/mnt/ssddisk/jslave/ci/workspace/chipset_WLZ_4g_release/opensource/component_code/vendor/huawei/extra/build/build_script/kirin_kernel_release/kernel/include/linux/pid.h"
	.file	43 "/mnt/ssddisk/jslave/ci/workspace/chipset_WLZ_4g_release/opensource/component_code/vendor/huawei/extra/build/build_script/kirin_kernel_release/kernel/include/linux/cred.h"
	.file	44 "/mnt/ssddisk/jslave/ci/workspace/chipset_WLZ_4g_release/opensource/component_code/vendor/huawei/extra/build/build_script/kirin_kernel_release/kernel/include/linux/capability.h"
	.file	45 "/mnt/ssddisk/jslave/ci/workspace/chipset_WLZ_4g_release/opensource/component_code/vendor/huawei/extra/build/build_script/kirin_kernel_release/kernel/include/linux/refcount.h"
	.file	46 "/mnt/ssddisk/jslave/ci/workspace/chipset_WLZ_4g_release/opensource/component_code/vendor/huawei/extra/build/build_script/kirin_kernel_release/kernel/include/linux/key.h"
	.file	47 "/mnt/ssddisk/jslave/ci/workspace/chipset_WLZ_4g_release/opensource/component_code/vendor/huawei/extra/build/build_script/kirin_kernel_release/kernel/include/linux/rwsem.h"
	.file	48 "/mnt/ssddisk/jslave/ci/workspace/chipset_WLZ_4g_release/opensource/component_code/vendor/huawei/extra/build/build_script/kirin_kernel_release/kernel/include/linux/assoc_array.h"
	.file	49 "/mnt/ssddisk/jslave/ci/workspace/chipset_WLZ_4g_release/opensource/component_code/vendor/huawei/extra/build/build_script/kirin_kernel_release/kernel/include/linux/sched/user.h"
	.file	50 "/mnt/ssddisk/jslave/ci/workspace/chipset_WLZ_4g_release/opensource/component_code/vendor/huawei/extra/build/build_script/kirin_kernel_release/kernel/include/linux/user_namespace.h"
	.file	51 "/mnt/ssddisk/jslave/ci/workspace/chipset_WLZ_4g_release/opensource/component_code/vendor/huawei/extra/build/build_script/kirin_kernel_release/kernel/include/linux/ns_common.h"
	.file	52 "/mnt/ssddisk/jslave/ci/workspace/chipset_WLZ_4g_release/opensource/component_code/vendor/huawei/extra/build/build_script/kirin_kernel_release/kernel/include/linux/workqueue.h"
	.file	53 "/mnt/ssddisk/jslave/ci/workspace/chipset_WLZ_4g_release/opensource/component_code/vendor/huawei/extra/build/build_script/kirin_kernel_release/kernel/include/linux/sysctl.h"
	.file	54 "/mnt/ssddisk/jslave/ci/workspace/chipset_WLZ_4g_release/opensource/component_code/vendor/huawei/extra/build/build_script/kirin_kernel_release/kernel/include/linux/completion.h"
	.file	55 "/mnt/ssddisk/jslave/ci/workspace/chipset_WLZ_4g_release/opensource/component_code/vendor/huawei/extra/build/build_script/kirin_kernel_release/kernel/include/linux/errseq.h"
	.file	56 "/mnt/ssddisk/jslave/ci/workspace/chipset_WLZ_4g_release/opensource/component_code/vendor/huawei/extra/build/build_script/kirin_kernel_release/kernel/include/linux/kref.h"
	.file	57 "/mnt/ssddisk/jslave/ci/workspace/chipset_WLZ_4g_release/opensource/component_code/vendor/huawei/extra/build/build_script/kirin_kernel_release/kernel/include/linux/export.h"
	.file	58 "/mnt/ssddisk/jslave/ci/workspace/chipset_WLZ_4g_release/opensource/component_code/vendor/huawei/extra/build/build_script/kirin_kernel_release/kernel/include/linux/cfi.h"
	.file	59 "/mnt/ssddisk/jslave/ci/workspace/chipset_WLZ_4g_release/opensource/component_code/vendor/huawei/extra/build/build_script/kirin_kernel_release/kernel/include/linux/moduleparam.h"
	.file	60 "/mnt/ssddisk/jslave/ci/workspace/chipset_WLZ_4g_release/opensource/component_code/vendor/huawei/extra/build/build_script/kirin_kernel_release/kernel/arch/arm64/include/asm/extable.h"
	.file	61 "/mnt/ssddisk/jslave/ci/workspace/chipset_WLZ_4g_release/opensource/component_code/vendor/huawei/extra/build/build_script/kirin_kernel_release/kernel/include/linux/rbtree_latch.h"
	.file	62 "/mnt/ssddisk/jslave/ci/workspace/chipset_WLZ_4g_release/opensource/component_code/vendor/huawei/extra/build/build_script/kirin_kernel_release/kernel/include/uapi/linux/elf.h"
	.file	63 "/mnt/ssddisk/jslave/ci/workspace/chipset_WLZ_4g_release/opensource/component_code/vendor/huawei/extra/build/build_script/kirin_kernel_release/kernel/arch/arm64/include/asm/module.h"
	.file	64 "/mnt/ssddisk/jslave/ci/workspace/chipset_WLZ_4g_release/opensource/component_code/vendor/huawei/extra/build/build_script/kirin_kernel_release/kernel/include/uapi/linux/types.h"
	.file	65 "/mnt/ssddisk/jslave/ci/workspace/chipset_WLZ_4g_release/opensource/component_code/vendor/huawei/extra/build/build_script/kirin_kernel_release/kernel/include/asm-generic/bug.h"
	.file	66 "/mnt/ssddisk/jslave/ci/workspace/chipset_WLZ_4g_release/opensource/component_code/vendor/huawei/extra/build/build_script/kirin_kernel_release/kernel/include/linux/tracepoint-defs.h"
	.file	67 "/mnt/ssddisk/jslave/ci/workspace/chipset_WLZ_4g_release/opensource/component_code/vendor/huawei/extra/build/build_script/kirin_kernel_release/kernel/include/linux/jump_label.h"
	.file	68 "/mnt/ssddisk/jslave/ci/workspace/chipset_WLZ_4g_release/opensource/component_code/vendor/huawei/extra/build/build_script/kirin_kernel_release/kernel/include/linux/lockdep.h"
	.file	69 "/mnt/ssddisk/jslave/ci/workspace/chipset_WLZ_4g_release/opensource/component_code/vendor/huawei/extra/build/build_script/kirin_kernel_release/kernel/include/linux/writeback.h"
	.file	70 "/mnt/ssddisk/jslave/ci/workspace/chipset_WLZ_4g_release/opensource/component_code/vendor/huawei/extra/build/build_script/kirin_kernel_release/kernel/include/linux/backing-dev-defs.h"
	.file	71 "/mnt/ssddisk/jslave/ci/workspace/chipset_WLZ_4g_release/opensource/component_code/vendor/huawei/extra/build/build_script/kirin_kernel_release/kernel/include/linux/device.h"
	.file	72 "/mnt/ssddisk/jslave/ci/workspace/chipset_WLZ_4g_release/opensource/component_code/vendor/huawei/extra/build/build_script/kirin_kernel_release/kernel/include/linux/pm.h"
	.file	73 "/mnt/ssddisk/jslave/ci/workspace/chipset_WLZ_4g_release/opensource/component_code/vendor/huawei/extra/build/build_script/kirin_kernel_release/kernel/include/linux/pm_wakeup.h"
	.file	74 "/mnt/ssddisk/jslave/ci/workspace/chipset_WLZ_4g_release/opensource/component_code/vendor/huawei/extra/build/build_script/kirin_kernel_release/kernel/include/linux/timer.h"
	.file	75 "/mnt/ssddisk/jslave/ci/workspace/chipset_WLZ_4g_release/opensource/component_code/vendor/huawei/extra/build/build_script/kirin_kernel_release/kernel/include/linux/pinctrl/devinfo.h"
	.file	76 "/mnt/ssddisk/jslave/ci/workspace/chipset_WLZ_4g_release/opensource/component_code/vendor/huawei/extra/build/build_script/kirin_kernel_release/kernel/arch/arm64/include/asm/device.h"
	.file	77 "/mnt/ssddisk/jslave/ci/workspace/chipset_WLZ_4g_release/opensource/component_code/vendor/huawei/extra/build/build_script/kirin_kernel_release/kernel/include/linux/klist.h"
	.file	78 "/mnt/ssddisk/jslave/ci/workspace/chipset_WLZ_4g_release/opensource/component_code/vendor/huawei/extra/build/build_script/kirin_kernel_release/kernel/include/linux/percpu_counter.h"
	.file	79 "/mnt/ssddisk/jslave/ci/workspace/chipset_WLZ_4g_release/opensource/component_code/vendor/huawei/extra/build/build_script/kirin_kernel_release/kernel/include/linux/flex_proportions.h"
	.file	80 "/mnt/ssddisk/jslave/ci/workspace/chipset_WLZ_4g_release/opensource/component_code/vendor/huawei/extra/build/build_script/kirin_kernel_release/kernel/include/linux/percpu-refcount.h"
	.file	81 "/mnt/ssddisk/jslave/ci/workspace/chipset_WLZ_4g_release/opensource/component_code/vendor/huawei/extra/build/build_script/kirin_kernel_release/kernel/include/linux/cgroup-defs.h"
	.file	82 "/mnt/ssddisk/jslave/ci/workspace/chipset_WLZ_4g_release/opensource/component_code/vendor/huawei/extra/build/build_script/kirin_kernel_release/kernel/include/linux/psi_types.h"
	.file	83 "/mnt/ssddisk/jslave/ci/workspace/chipset_WLZ_4g_release/opensource/component_code/vendor/huawei/extra/build/build_script/kirin_kernel_release/kernel/include/linux/bpf-cgroup.h"
	.file	84 "/mnt/ssddisk/jslave/ci/workspace/chipset_WLZ_4g_release/opensource/component_code/vendor/huawei/extra/build/build_script/kirin_kernel_release/kernel/include/linux/statfs.h"
	.file	85 "/mnt/ssddisk/jslave/ci/workspace/chipset_WLZ_4g_release/opensource/component_code/vendor/huawei/extra/build/build_script/kirin_kernel_release/kernel/include/linux/quota.h"
	.file	86 "/mnt/ssddisk/jslave/ci/workspace/chipset_WLZ_4g_release/opensource/component_code/vendor/huawei/extra/build/build_script/kirin_kernel_release/kernel/include/linux/projid.h"
	.file	87 "/mnt/ssddisk/jslave/ci/workspace/chipset_WLZ_4g_release/opensource/component_code/vendor/huawei/extra/build/build_script/kirin_kernel_release/kernel/include/linux/time64.h"
	.file	88 "/mnt/ssddisk/jslave/ci/workspace/chipset_WLZ_4g_release/opensource/component_code/vendor/huawei/extra/build/build_script/kirin_kernel_release/kernel/include/linux/shrinker.h"
	.file	89 "/mnt/ssddisk/jslave/ci/workspace/chipset_WLZ_4g_release/opensource/component_code/vendor/huawei/extra/build/build_script/kirin_kernel_release/kernel/include/linux/memcontrol.h"
	.file	90 "/mnt/ssddisk/jslave/ci/workspace/chipset_WLZ_4g_release/opensource/component_code/vendor/huawei/extra/build/build_script/kirin_kernel_release/kernel/include/linux/page_counter.h"
	.file	91 "/mnt/ssddisk/jslave/ci/workspace/chipset_WLZ_4g_release/opensource/component_code/vendor/huawei/extra/build/build_script/kirin_kernel_release/kernel/include/linux/vmpressure.h"
	.file	92 "/mnt/ssddisk/jslave/ci/workspace/chipset_WLZ_4g_release/opensource/component_code/vendor/huawei/extra/build/build_script/kirin_kernel_release/kernel/include/linux/mmzone.h"
	.file	93 "/mnt/ssddisk/jslave/ci/workspace/chipset_WLZ_4g_release/opensource/component_code/vendor/huawei/extra/build/build_script/kirin_kernel_release/kernel/include/linux/genhd.h"
	.file	94 "/mnt/ssddisk/jslave/ci/workspace/chipset_WLZ_4g_release/opensource/component_code/vendor/huawei/extra/build/build_script/kirin_kernel_release/kernel/include/linux/blkdev.h"
	.file	95 "/mnt/ssddisk/jslave/ci/workspace/chipset_WLZ_4g_release/opensource/component_code/vendor/huawei/extra/build/build_script/kirin_kernel_release/kernel/include/linux/smp.h"
	.file	96 "/mnt/ssddisk/jslave/ci/workspace/chipset_WLZ_4g_release/opensource/component_code/vendor/huawei/extra/build/build_script/kirin_kernel_release/kernel/block/blk-mq.h"
	.file	97 "/mnt/ssddisk/jslave/ci/workspace/chipset_WLZ_4g_release/opensource/component_code/vendor/huawei/extra/build/build_script/kirin_kernel_release/kernel/include/linux/blk_types.h"
	.file	98 "/mnt/ssddisk/jslave/ci/workspace/chipset_WLZ_4g_release/opensource/component_code/vendor/huawei/extra/build/build_script/kirin_kernel_release/kernel/include/linux/bvec.h"
	.file	99 "/mnt/ssddisk/jslave/ci/workspace/chipset_WLZ_4g_release/opensource/component_code/vendor/huawei/extra/build/build_script/kirin_kernel_release/kernel/include/uapi/linux/time.h"
	.file	100 "/mnt/ssddisk/jslave/ci/workspace/chipset_WLZ_4g_release/opensource/component_code/vendor/huawei/extra/build/build_script/kirin_kernel_release/kernel/include/linux/iocontext.h"
	.file	101 "/mnt/ssddisk/jslave/ci/workspace/chipset_WLZ_4g_release/opensource/component_code/vendor/huawei/extra/build/build_script/kirin_kernel_release/kernel/include/linux/bio.h"
	.file	102 "/mnt/ssddisk/jslave/ci/workspace/chipset_WLZ_4g_release/opensource/component_code/vendor/huawei/extra/build/build_script/kirin_kernel_release/kernel/include/linux/mempool.h"
	.file	103 "/mnt/ssddisk/jslave/ci/workspace/chipset_WLZ_4g_release/opensource/component_code/vendor/huawei/extra/build/build_script/kirin_kernel_release/kernel/include/linux/elevator.h"
	.file	104 "/mnt/ssddisk/jslave/ci/workspace/chipset_WLZ_4g_release/opensource/component_code/vendor/huawei/extra/build/build_script/kirin_kernel_release/kernel/include/linux/blk-mq.h"
	.file	105 "/mnt/ssddisk/jslave/ci/workspace/chipset_WLZ_4g_release/opensource/component_code/vendor/huawei/extra/build/build_script/kirin_kernel_release/kernel/block/blk.h"
	.file	106 "/mnt/ssddisk/jslave/ci/workspace/chipset_WLZ_4g_release/opensource/component_code/vendor/huawei/extra/build/build_script/kirin_kernel_release/kernel/include/linux/sbitmap.h"
	.file	107 "/mnt/ssddisk/jslave/ci/workspace/chipset_WLZ_4g_release/opensource/component_code/vendor/huawei/extra/build/build_script/kirin_kernel_release/kernel/include/linux/srcutree.h"
	.file	108 "/mnt/ssddisk/jslave/ci/workspace/chipset_WLZ_4g_release/opensource/component_code/vendor/huawei/extra/build/build_script/kirin_kernel_release/kernel/include/linux/rcu_segcblist.h"
	.file	109 "/mnt/ssddisk/jslave/ci/workspace/chipset_WLZ_4g_release/opensource/component_code/vendor/huawei/extra/build/build_script/kirin_kernel_release/kernel/include/linux/notifier.h"
	.file	110 "/mnt/ssddisk/jslave/ci/workspace/chipset_WLZ_4g_release/opensource/component_code/vendor/huawei/extra/build/build_script/kirin_kernel_release/kernel/block/hisi-blk.h"
	.file	111 "/mnt/ssddisk/jslave/ci/workspace/chipset_WLZ_4g_release/opensource/component_code/vendor/huawei/extra/build/build_script/kirin_kernel_release/kernel/block/blk-stat.h"
	.file	112 "/mnt/ssddisk/jslave/ci/workspace/chipset_WLZ_4g_release/opensource/component_code/vendor/huawei/extra/build/build_script/kirin_kernel_release/kernel/include/linux/bsg.h"
	.file	113 "/mnt/ssddisk/jslave/ci/workspace/chipset_WLZ_4g_release/opensource/component_code/vendor/huawei/extra/build/build_script/kirin_kernel_release/kernel/include/linux/rcu_sync.h"
	.file	114 "/mnt/ssddisk/jslave/ci/workspace/chipset_WLZ_4g_release/opensource/component_code/vendor/huawei/extra/build/build_script/kirin_kernel_release/kernel/include/linux/percpu-rwsem.h"
	.file	115 "/mnt/ssddisk/jslave/ci/workspace/chipset_WLZ_4g_release/opensource/component_code/vendor/huawei/extra/build/build_script/kirin_kernel_release/kernel/include/linux/rcuwait.h"
	.file	116 "/mnt/ssddisk/jslave/ci/workspace/chipset_WLZ_4g_release/opensource/component_code/vendor/huawei/extra/build/build_script/kirin_kernel_release/kernel/include/linux/uuid.h"
	.file	117 "/mnt/ssddisk/jslave/ci/workspace/chipset_WLZ_4g_release/opensource/component_code/vendor/huawei/extra/build/build_script/kirin_kernel_release/kernel/include/linux/list_lru.h"
	.file	118 "/mnt/ssddisk/jslave/ci/workspace/chipset_WLZ_4g_release/opensource/component_code/vendor/huawei/extra/build/build_script/kirin_kernel_release/kernel/include/linux/delayed_call.h"
	.file	119 "/mnt/ssddisk/jslave/ci/workspace/chipset_WLZ_4g_release/opensource/component_code/vendor/huawei/extra/build/build_script/kirin_kernel_release/kernel/include/linux/stat.h"
	.file	120 "/mnt/ssddisk/jslave/ci/workspace/chipset_WLZ_4g_release/opensource/component_code/vendor/huawei/extra/build/build_script/kirin_kernel_release/kernel/include/uapi/linux/fiemap.h"
	.file	121 "/mnt/ssddisk/jslave/ci/workspace/chipset_WLZ_4g_release/opensource/component_code/vendor/huawei/extra/build/build_script/kirin_kernel_release/kernel/include/linux/migrate_mode.h"
	.file	122 "/mnt/ssddisk/jslave/ci/workspace/chipset_WLZ_4g_release/opensource/component_code/vendor/huawei/extra/build/build_script/kirin_kernel_release/kernel/include/linux/swap.h"
	.file	123 "/mnt/ssddisk/jslave/ci/workspace/chipset_WLZ_4g_release/opensource/component_code/vendor/huawei/extra/build/build_script/kirin_kernel_release/kernel/include/linux/memremap.h"
	.file	124 "/mnt/ssddisk/jslave/ci/workspace/chipset_WLZ_4g_release/opensource/component_code/vendor/huawei/extra/build/build_script/kirin_kernel_release/kernel/include/linux/ioport.h"
	.file	125 "/mnt/ssddisk/jslave/ci/workspace/chipset_WLZ_4g_release/opensource/component_code/vendor/huawei/extra/build/build_script/kirin_kernel_release/kernel/arch/arm64/include/asm/page.h"
	.file	126 "/mnt/ssddisk/jslave/ci/workspace/chipset_WLZ_4g_release/opensource/component_code/vendor/huawei/extra/build/build_script/kirin_kernel_release/kernel/include/linux/mm_types_task.h"
	.file	127 "/mnt/ssddisk/jslave/ci/workspace/chipset_WLZ_4g_release/opensource/component_code/vendor/huawei/extra/build/build_script/kirin_kernel_release/kernel/arch/arm64/include/asm/mmu.h"
	.file	128 "/mnt/ssddisk/jslave/ci/workspace/chipset_WLZ_4g_release/opensource/component_code/vendor/huawei/extra/build/build_script/kirin_kernel_release/kernel/include/linux/uprobes.h"
	.file	129 "/mnt/ssddisk/jslave/ci/workspace/chipset_WLZ_4g_release/opensource/component_code/vendor/huawei/extra/build/build_script/kirin_kernel_release/kernel/include/linux/restart_block.h"
	.file	130 "/mnt/ssddisk/jslave/ci/workspace/chipset_WLZ_4g_release/opensource/component_code/vendor/huawei/extra/build/build_script/kirin_kernel_release/kernel/arch/arm64/include/asm/compat.h"
	.file	131 "/mnt/ssddisk/jslave/ci/workspace/chipset_WLZ_4g_release/opensource/component_code/vendor/huawei/extra/build/build_script/kirin_kernel_release/kernel/include/linux/nsproxy.h"
	.file	132 "/mnt/ssddisk/jslave/ci/workspace/chipset_WLZ_4g_release/opensource/component_code/vendor/huawei/extra/build/build_script/kirin_kernel_release/kernel/include/linux/cgroup.h"
	.file	133 "/mnt/ssddisk/jslave/ci/workspace/chipset_WLZ_4g_release/opensource/component_code/vendor/huawei/extra/build/build_script/kirin_kernel_release/kernel/include/uapi/asm-generic/signal.h"
	.file	134 "/mnt/ssddisk/jslave/ci/workspace/chipset_WLZ_4g_release/opensource/component_code/vendor/huawei/extra/build/build_script/kirin_kernel_release/kernel/include/linux/signal_types.h"
	.file	135 "/mnt/ssddisk/jslave/ci/workspace/chipset_WLZ_4g_release/opensource/component_code/vendor/huawei/extra/build/build_script/kirin_kernel_release/kernel/include/linux/seccomp.h"
	.file	136 "/mnt/ssddisk/jslave/ci/workspace/chipset_WLZ_4g_release/opensource/component_code/vendor/huawei/extra/build/build_script/kirin_kernel_release/kernel/include/uapi/asm-generic/siginfo.h"
	.file	137 "/mnt/ssddisk/jslave/ci/workspace/chipset_WLZ_4g_release/opensource/component_code/vendor/huawei/extra/build/build_script/kirin_kernel_release/kernel/include/linux/task_io_accounting.h"
	.file	138 "/mnt/ssddisk/jslave/ci/workspace/chipset_WLZ_4g_release/opensource/component_code/vendor/huawei/extra/build/build_script/kirin_kernel_release/kernel/include/linux/nodemask.h"
	.file	139 "/mnt/ssddisk/jslave/ci/workspace/chipset_WLZ_4g_release/opensource/component_code/vendor/huawei/extra/build/build_script/kirin_kernel_release/kernel/arch/arm64/include/asm/processor.h"
	.file	140 "/mnt/ssddisk/jslave/ci/workspace/chipset_WLZ_4g_release/opensource/component_code/vendor/huawei/extra/build/build_script/kirin_kernel_release/kernel/arch/arm64/include/uapi/asm/ptrace.h"
	.file	141 "/mnt/ssddisk/jslave/ci/workspace/chipset_WLZ_4g_release/opensource/component_code/vendor/huawei/extra/build/build_script/kirin_kernel_release/kernel/arch/arm64/include/asm/fpsimd.h"
	.file	142 "/mnt/ssddisk/jslave/ci/workspace/chipset_WLZ_4g_release/opensource/component_code/vendor/huawei/extra/build/build_script/kirin_kernel_release/kernel/include/linux/ratelimit.h"
	.file	143 "/mnt/ssddisk/jslave/ci/workspace/chipset_WLZ_4g_release/opensource/component_code/vendor/huawei/extra/build/build_script/kirin_kernel_release/kernel/include/linux/hisi-bkops-core.h"
	.file	144 "/mnt/ssddisk/jslave/ci/workspace/chipset_WLZ_4g_release/opensource/component_code/vendor/huawei/extra/build/build_script/kirin_kernel_release/kernel/include/linux/timekeeping.h"
	.file	145 "/mnt/ssddisk/jslave/ci/workspace/chipset_WLZ_4g_release/opensource/component_code/vendor/huawei/extra/build/build_script/kirin_kernel_release/kernel/include/linux/stddef.h"
	.section	.text.hisi_bkops_update_dur,"ax",@progbits
	.hidden	hisi_bkops_update_dur   // -- Begin function hisi_bkops_update_dur
	.globl	hisi_bkops_update_dur
	.p2align	2
	.type	hisi_bkops_update_dur,@function
hisi_bkops_update_dur:                  // @hisi_bkops_update_dur
.Lfunc_begin0:
	.loc	1 30 0                  // /mnt/ssddisk/jslave/ci/workspace/chipset_WLZ_4g_release/opensource/component_code/vendor/huawei/extra/build/build_script/kirin_kernel_release/kernel/block/hisi-bkops-core.c:30:0
	.cfi_sections .debug_frame
	.cfi_startproc
// %bb.0:
	str	x19, [sp, #-32]!        // 8-byte Folded Spill
	stp	x29, x30, [sp, #16]     // 16-byte Folded Spill
	add	x29, sp, #16            // =16
	.cfi_def_cfa w29, 16
	.cfi_offset w30, -8
	.cfi_offset w29, -16
	.cfi_offset w19, -32
	//DEBUG_VALUE: hisi_bkops_update_dur:bkops_stats_p <- $x0
	mov	x19, x0
.Ltmp0:
	//DEBUG_VALUE: hisi_bkops_update_dur:bkops_stats_p <- $x19
	.loc	144 218 9 prologue_end  // /mnt/ssddisk/jslave/ci/workspace/chipset_WLZ_4g_release/opensource/component_code/vendor/huawei/extra/build/build_script/kirin_kernel_release/kernel/include/linux/timekeeping.h:218:9
	bl	ktime_get
.Ltmp1:
	.loc	1 34 51                 // /mnt/ssddisk/jslave/ci/workspace/chipset_WLZ_4g_release/opensource/component_code/vendor/huawei/extra/build/build_script/kirin_kernel_release/kernel/block/hisi-bkops-core.c:34:51
	ldr	x8, [x19, #56]
.Ltmp2:
	.loc	1 35 38                 // /mnt/ssddisk/jslave/ci/workspace/chipset_WLZ_4g_release/opensource/component_code/vendor/huawei/extra/build/build_script/kirin_kernel_release/kernel/block/hisi-bkops-core.c:35:38
	ldr	x9, [x19, #112]
.Ltmp3:
	.loc	1 34 34                 // /mnt/ssddisk/jslave/ci/workspace/chipset_WLZ_4g_release/opensource/component_code/vendor/huawei/extra/build/build_script/kirin_kernel_release/kernel/block/hisi-bkops-core.c:34:34
	sub	x8, x0, x8
.Ltmp4:
	//DEBUG_VALUE: hisi_bkops_update_dur:bkops_duration <- $x8
	.loc	1 35 6                  // /mnt/ssddisk/jslave/ci/workspace/chipset_WLZ_4g_release/opensource/component_code/vendor/huawei/extra/build/build_script/kirin_kernel_release/kernel/block/hisi-bkops-core.c:35:6
	cmp	x8, x9
	b.ls	.LBB0_2
.Ltmp5:
// %bb.1:
	//DEBUG_VALUE: hisi_bkops_update_dur:bkops_duration <- $x8
	//DEBUG_VALUE: hisi_bkops_update_dur:bkops_stats_p <- $x19
	.loc	1 36 37                 // /mnt/ssddisk/jslave/ci/workspace/chipset_WLZ_4g_release/opensource/component_code/vendor/huawei/extra/build/build_script/kirin_kernel_release/kernel/block/hisi-bkops-core.c:36:37
	str	x8, [x19, #112]
.Ltmp6:
.LBB0_2:
	//DEBUG_VALUE: hisi_bkops_update_dur:bkops_duration <- $x8
	//DEBUG_VALUE: hisi_bkops_update_dur:bkops_stats_p <- $x19
	.loc	1 0 37 is_stmt 0        // /mnt/ssddisk/jslave/ci/workspace/chipset_WLZ_4g_release/opensource/component_code/vendor/huawei/extra/build/build_script/kirin_kernel_release/kernel/block/hisi-bkops-core.c:0:37
	mov	w9, #57599
	movk	w9, #1525, lsl #16
	.loc	1 39 6 is_stmt 1        // /mnt/ssddisk/jslave/ci/workspace/chipset_WLZ_4g_release/opensource/component_code/vendor/huawei/extra/build/build_script/kirin_kernel_release/kernel/block/hisi-bkops-core.c:39:6
	cmp	x8, x9
	b.hi	.LBB0_4
.Ltmp7:
// %bb.3:
	//DEBUG_VALUE: hisi_bkops_update_dur:bkops_duration <- $x8
	//DEBUG_VALUE: hisi_bkops_update_dur:bkops_stats_p <- $x19
	.loc	1 40 40                 // /mnt/ssddisk/jslave/ci/workspace/chipset_WLZ_4g_release/opensource/component_code/vendor/huawei/extra/build/build_script/kirin_kernel_release/kernel/block/hisi-bkops-core.c:40:40
	ldr	w9, [x19, #128]
	add	w9, w9, #1              // =1
	str	w9, [x19, #128]
	b	.LBB0_13
.Ltmp8:
.LBB0_4:
	//DEBUG_VALUE: hisi_bkops_update_dur:bkops_duration <- $x8
	//DEBUG_VALUE: hisi_bkops_update_dur:bkops_stats_p <- $x19
	.loc	1 0 40 is_stmt 0        // /mnt/ssddisk/jslave/ci/workspace/chipset_WLZ_4g_release/opensource/component_code/vendor/huawei/extra/build/build_script/kirin_kernel_release/kernel/block/hisi-bkops-core.c:0:40
	mov	w9, #25855
	movk	w9, #7629, lsl #16
	.loc	1 41 11 is_stmt 1       // /mnt/ssddisk/jslave/ci/workspace/chipset_WLZ_4g_release/opensource/component_code/vendor/huawei/extra/build/build_script/kirin_kernel_release/kernel/block/hisi-bkops-core.c:41:11
	cmp	x8, x9
	b.hi	.LBB0_6
.Ltmp9:
// %bb.5:
	//DEBUG_VALUE: hisi_bkops_update_dur:bkops_duration <- $x8
	//DEBUG_VALUE: hisi_bkops_update_dur:bkops_stats_p <- $x19
	.loc	1 42 40                 // /mnt/ssddisk/jslave/ci/workspace/chipset_WLZ_4g_release/opensource/component_code/vendor/huawei/extra/build/build_script/kirin_kernel_release/kernel/block/hisi-bkops-core.c:42:40
	ldr	w9, [x19, #132]
	add	w9, w9, #1              // =1
	str	w9, [x19, #132]
	b	.LBB0_13
.Ltmp10:
.LBB0_6:
	//DEBUG_VALUE: hisi_bkops_update_dur:bkops_duration <- $x8
	//DEBUG_VALUE: hisi_bkops_update_dur:bkops_stats_p <- $x19
	.loc	1 0 40 is_stmt 0        // /mnt/ssddisk/jslave/ci/workspace/chipset_WLZ_4g_release/opensource/component_code/vendor/huawei/extra/build/build_script/kirin_kernel_release/kernel/block/hisi-bkops-core.c:0:40
	mov	w9, #51711
	movk	w9, #15258, lsl #16
	.loc	1 43 11 is_stmt 1       // /mnt/ssddisk/jslave/ci/workspace/chipset_WLZ_4g_release/opensource/component_code/vendor/huawei/extra/build/build_script/kirin_kernel_release/kernel/block/hisi-bkops-core.c:43:11
	cmp	x8, x9
	b.hi	.LBB0_8
.Ltmp11:
// %bb.7:
	//DEBUG_VALUE: hisi_bkops_update_dur:bkops_duration <- $x8
	//DEBUG_VALUE: hisi_bkops_update_dur:bkops_stats_p <- $x19
	.loc	1 44 41                 // /mnt/ssddisk/jslave/ci/workspace/chipset_WLZ_4g_release/opensource/component_code/vendor/huawei/extra/build/build_script/kirin_kernel_release/kernel/block/hisi-bkops-core.c:44:41
	ldr	w9, [x19, #136]
	add	w9, w9, #1              // =1
	str	w9, [x19, #136]
	b	.LBB0_13
.Ltmp12:
.LBB0_8:
	//DEBUG_VALUE: hisi_bkops_update_dur:bkops_duration <- $x8
	//DEBUG_VALUE: hisi_bkops_update_dur:bkops_stats_p <- $x19
	.loc	1 0 41 is_stmt 0        // /mnt/ssddisk/jslave/ci/workspace/chipset_WLZ_4g_release/opensource/component_code/vendor/huawei/extra/build/build_script/kirin_kernel_release/kernel/block/hisi-bkops-core.c:0:41
	mov	w9, #37887
	movk	w9, #30517, lsl #16
	.loc	1 45 11 is_stmt 1       // /mnt/ssddisk/jslave/ci/workspace/chipset_WLZ_4g_release/opensource/component_code/vendor/huawei/extra/build/build_script/kirin_kernel_release/kernel/block/hisi-bkops-core.c:45:11
	cmp	x8, x9
	b.hi	.LBB0_10
.Ltmp13:
// %bb.9:
	//DEBUG_VALUE: hisi_bkops_update_dur:bkops_duration <- $x8
	//DEBUG_VALUE: hisi_bkops_update_dur:bkops_stats_p <- $x19
	.loc	1 46 41                 // /mnt/ssddisk/jslave/ci/workspace/chipset_WLZ_4g_release/opensource/component_code/vendor/huawei/extra/build/build_script/kirin_kernel_release/kernel/block/hisi-bkops-core.c:46:41
	ldr	w9, [x19, #140]
	add	w9, w9, #1              // =1
	str	w9, [x19, #140]
	b	.LBB0_13
.Ltmp14:
.LBB0_10:
	//DEBUG_VALUE: hisi_bkops_update_dur:bkops_duration <- $x8
	//DEBUG_VALUE: hisi_bkops_update_dur:bkops_stats_p <- $x19
	.loc	1 0 41 is_stmt 0        // /mnt/ssddisk/jslave/ci/workspace/chipset_WLZ_4g_release/opensource/component_code/vendor/huawei/extra/build/build_script/kirin_kernel_release/kernel/block/hisi-bkops-core.c:0:41
	mov	x9, #61951
	movk	x9, #10757, lsl #16
	movk	x9, #1, lsl #32
	.loc	1 47 11 is_stmt 1       // /mnt/ssddisk/jslave/ci/workspace/chipset_WLZ_4g_release/opensource/component_code/vendor/huawei/extra/build/build_script/kirin_kernel_release/kernel/block/hisi-bkops-core.c:47:11
	cmp	x8, x9
	b.hi	.LBB0_12
.Ltmp15:
// %bb.11:
	//DEBUG_VALUE: hisi_bkops_update_dur:bkops_duration <- $x8
	//DEBUG_VALUE: hisi_bkops_update_dur:bkops_stats_p <- $x19
	.loc	1 48 41                 // /mnt/ssddisk/jslave/ci/workspace/chipset_WLZ_4g_release/opensource/component_code/vendor/huawei/extra/build/build_script/kirin_kernel_release/kernel/block/hisi-bkops-core.c:48:41
	ldr	w9, [x19, #144]
	add	w9, w9, #1              // =1
	str	w9, [x19, #144]
	b	.LBB0_13
.Ltmp16:
.LBB0_12:
	//DEBUG_VALUE: hisi_bkops_update_dur:bkops_duration <- $x8
	//DEBUG_VALUE: hisi_bkops_update_dur:bkops_stats_p <- $x19
	.loc	1 50 43                 // /mnt/ssddisk/jslave/ci/workspace/chipset_WLZ_4g_release/opensource/component_code/vendor/huawei/extra/build/build_script/kirin_kernel_release/kernel/block/hisi-bkops-core.c:50:43
	ldr	w9, [x19, #148]
	add	w9, w9, #1              // =1
	str	w9, [x19, #148]
.Ltmp17:
.LBB0_13:
	//DEBUG_VALUE: hisi_bkops_update_dur:bkops_duration <- $x8
	//DEBUG_VALUE: hisi_bkops_update_dur:bkops_stats_p <- $x19
	.loc	1 54 21                 // /mnt/ssddisk/jslave/ci/workspace/chipset_WLZ_4g_release/opensource/component_code/vendor/huawei/extra/build/build_script/kirin_kernel_release/kernel/block/hisi-bkops-core.c:54:21
	ldr	w9, [x19, #8]
	.loc	1 53 20                 // /mnt/ssddisk/jslave/ci/workspace/chipset_WLZ_4g_release/opensource/component_code/vendor/huawei/extra/build/build_script/kirin_kernel_release/kernel/block/hisi-bkops-core.c:53:20
	ldr	x10, [x19, #120]
	.loc	1 54 38                 // /mnt/ssddisk/jslave/ci/workspace/chipset_WLZ_4g_release/opensource/component_code/vendor/huawei/extra/build/build_script/kirin_kernel_release/kernel/block/hisi-bkops-core.c:54:38
	sub	w11, w9, #1             // =1
	.loc	1 54 44 is_stmt 0       // /mnt/ssddisk/jslave/ci/workspace/chipset_WLZ_4g_release/opensource/component_code/vendor/huawei/extra/build/build_script/kirin_kernel_release/kernel/block/hisi-bkops-core.c:54:44
	madd	x8, x10, x11, x8
.Ltmp18:
	.loc	1 55 20 is_stmt 1       // /mnt/ssddisk/jslave/ci/workspace/chipset_WLZ_4g_release/opensource/component_code/vendor/huawei/extra/build/build_script/kirin_kernel_release/kernel/block/hisi-bkops-core.c:55:20
	udiv	x8, x8, x9
	.loc	1 52 37                 // /mnt/ssddisk/jslave/ci/workspace/chipset_WLZ_4g_release/opensource/component_code/vendor/huawei/extra/build/build_script/kirin_kernel_release/kernel/block/hisi-bkops-core.c:52:37
	str	x8, [x19, #120]
	.loc	1 57 1                  // /mnt/ssddisk/jslave/ci/workspace/chipset_WLZ_4g_release/opensource/component_code/vendor/huawei/extra/build/build_script/kirin_kernel_release/kernel/block/hisi-bkops-core.c:57:1
	ldp	x29, x30, [sp, #16]     // 16-byte Folded Reload
	ldr	x19, [sp], #32          // 8-byte Folded Reload
.Ltmp19:
	ret
.Ltmp20:
.Lfunc_end0:
	.size	hisi_bkops_update_dur, .Lfunc_end0-hisi_bkops_update_dur
	.cfi_endproc
                                        // -- End function
	.section	.text.bkops_idle_work_func,"ax",@progbits
	.hidden	bkops_idle_work_func    // -- Begin function bkops_idle_work_func
	.globl	bkops_idle_work_func
	.p2align	2
	.type	bkops_idle_work_func,@function
bkops_idle_work_func:                   // @bkops_idle_work_func
.Lfunc_begin1:
	.loc	1 160 0                 // /mnt/ssddisk/jslave/ci/workspace/chipset_WLZ_4g_release/opensource/component_code/vendor/huawei/extra/build/build_script/kirin_kernel_release/kernel/block/hisi-bkops-core.c:160:0
	.cfi_startproc
// %bb.0:
	sub	sp, sp, #80             // =80
	str	x23, [sp, #16]          // 8-byte Folded Spill
	stp	x22, x21, [sp, #32]     // 16-byte Folded Spill
	stp	x20, x19, [sp, #48]     // 16-byte Folded Spill
	stp	x29, x30, [sp, #64]     // 16-byte Folded Spill
	add	x29, sp, #64            // =64
	.cfi_def_cfa w29, 16
	.cfi_offset w30, -8
	.cfi_offset w29, -16
	.cfi_offset w19, -24
	.cfi_offset w20, -32
	.cfi_offset w21, -40
	.cfi_offset w22, -48
	.cfi_offset w23, -64
	//DEBUG_VALUE: bkops_idle_work_func:work <- $x0
.Ltmp21:
	//DEBUG_VALUE: __mptr <- $x0
	adrp	x8, __stack_chk_guard
	ldr	x8, [x8, :lo12:__stack_chk_guard]
.Ltmp22:
	.loc	1 162 29 prologue_end   // /mnt/ssddisk/jslave/ci/workspace/chipset_WLZ_4g_release/opensource/component_code/vendor/huawei/extra/build/build_script/kirin_kernel_release/kernel/block/hisi-bkops-core.c:162:29
	sub	x21, x0, #32            // =32
.Ltmp23:
	//DEBUG_VALUE: bkops_idle_work_func:bkops <- $x21
	//DEBUG_VALUE: hisi_bkops_start:bkops <- $x21
	//DEBUG_VALUE: hisi_bkops_start:bkops_stats_p <- [DW_OP_plus_uconst 256, DW_OP_stack_value] $x21
	//DEBUG_VALUE: bkops_idle_work_func:bkops_status <- [DW_OP_plus_uconst 4, DW_OP_deref] $sp
	.loc	1 0 29 is_stmt 0        // /mnt/ssddisk/jslave/ci/workspace/chipset_WLZ_4g_release/opensource/component_code/vendor/huawei/extra/build/build_script/kirin_kernel_release/kernel/block/hisi-bkops-core.c:0:29
	mov	x19, x0
.Ltmp24:
	.loc	1 166 8 is_stmt 1       // /mnt/ssddisk/jslave/ci/workspace/chipset_WLZ_4g_release/opensource/component_code/vendor/huawei/extra/build/build_script/kirin_kernel_release/kernel/block/hisi-bkops-core.c:166:8
	add	x1, sp, #4              // =4
	mov	x0, x21
.Ltmp25:
	.loc	1 0 8 is_stmt 0         // /mnt/ssddisk/jslave/ci/workspace/chipset_WLZ_4g_release/opensource/component_code/vendor/huawei/extra/build/build_script/kirin_kernel_release/kernel/block/hisi-bkops-core.c:0:8
	str	x8, [sp, #8]
.Ltmp26:
	//DEBUG_VALUE: bkops_idle_work_func:bkops_status <- 0
	//DEBUG_VALUE: bkops_idle_work_func:work <- $x19
	.loc	1 161 6 is_stmt 1       // /mnt/ssddisk/jslave/ci/workspace/chipset_WLZ_4g_release/opensource/component_code/vendor/huawei/extra/build/build_script/kirin_kernel_release/kernel/block/hisi-bkops-core.c:161:6
	str	wzr, [sp, #4]
.Ltmp27:
	//DEBUG_VALUE: __mptr <- $x19
	.loc	1 166 8                 // /mnt/ssddisk/jslave/ci/workspace/chipset_WLZ_4g_release/opensource/component_code/vendor/huawei/extra/build/build_script/kirin_kernel_release/kernel/block/hisi-bkops-core.c:166:8
	bl	hisi_bkops_query
.Ltmp28:
	//DEBUG_VALUE: bkops_idle_work_func:ret <- $w0
	.loc	1 167 6                 // /mnt/ssddisk/jslave/ci/workspace/chipset_WLZ_4g_release/opensource/component_code/vendor/huawei/extra/build/build_script/kirin_kernel_release/kernel/block/hisi-bkops-core.c:167:6
	cbz	w0, .LBB1_5
.Ltmp29:
// %bb.1:
	//DEBUG_VALUE: bkops_idle_work_func:ret <- $w0
	//DEBUG_VALUE: bkops_idle_work_func:work <- $x19
	//DEBUG_VALUE: bkops_idle_work_func:bkops <- $x21
	.loc	1 168 3                 // /mnt/ssddisk/jslave/ci/workspace/chipset_WLZ_4g_release/opensource/component_code/vendor/huawei/extra/build/build_script/kirin_kernel_release/kernel/block/hisi-bkops-core.c:168:3
	adrp	x0, .L.str
.Ltmp30:
	add	x0, x0, :lo12:.L.str
.Ltmp31:
.LBB1_2:
	//DEBUG_VALUE: bkops_idle_work_func:work <- $x19
	//DEBUG_VALUE: bkops_idle_work_func:bkops <- $x21
	.loc	1 0 0 is_stmt 0         // /mnt/ssddisk/jslave/ci/workspace/chipset_WLZ_4g_release/opensource/component_code/vendor/huawei/extra/build/build_script/kirin_kernel_release/kernel/block/hisi-bkops-core.c:0:0
	bl	printk
.Ltmp32:
.LBB1_3:
	//DEBUG_VALUE: bkops_idle_work_func:work <- $x19
	//DEBUG_VALUE: bkops_idle_work_func:bkops <- $x21
	adrp	x9, __stack_chk_guard
	ldr	x8, [sp, #8]
	ldr	x9, [x9, :lo12:__stack_chk_guard]
	cmp	x9, x8
	b.ne	.LBB1_16
.Ltmp33:
// %bb.4:
	//DEBUG_VALUE: bkops_idle_work_func:work <- $x19
	//DEBUG_VALUE: bkops_idle_work_func:bkops <- $x21
	.loc	1 183 1 is_stmt 1       // /mnt/ssddisk/jslave/ci/workspace/chipset_WLZ_4g_release/opensource/component_code/vendor/huawei/extra/build/build_script/kirin_kernel_release/kernel/block/hisi-bkops-core.c:183:1
	ldp	x29, x30, [sp, #64]     // 16-byte Folded Reload
	ldp	x20, x19, [sp, #48]     // 16-byte Folded Reload
.Ltmp34:
	ldp	x22, x21, [sp, #32]     // 16-byte Folded Reload
.Ltmp35:
	ldr	x23, [sp, #16]          // 8-byte Folded Reload
	add	sp, sp, #80             // =80
	ret
.LBB1_5:
.Ltmp36:
	//DEBUG_VALUE: bkops_idle_work_func:ret <- $w0
	//DEBUG_VALUE: bkops_idle_work_func:work <- $x19
	//DEBUG_VALUE: bkops_idle_work_func:bkops <- $x21
	//DEBUG_VALUE: test_bit:addr <- undef
	.loc	1 171 20                // /mnt/ssddisk/jslave/ci/workspace/chipset_WLZ_4g_release/opensource/component_code/vendor/huawei/extra/build/build_script/kirin_kernel_release/kernel/block/hisi-bkops-core.c:171:20
	mov	x20, x19
	ldr	x8, [x20, #96]!
	and	x8, x8, #0xfffffffffffffffd
	str	x8, [x20]
	.loc	1 174 24                // /mnt/ssddisk/jslave/ci/workspace/chipset_WLZ_4g_release/opensource/component_code/vendor/huawei/extra/build/build_script/kirin_kernel_release/kernel/block/hisi-bkops-core.c:174:24
	ldr	w8, [sp, #4]
.Ltmp37:
	//DEBUG_VALUE: bkops_idle_work_func:bkops_status <- $w8
	.loc	1 174 22 is_stmt 0      // /mnt/ssddisk/jslave/ci/workspace/chipset_WLZ_4g_release/opensource/component_code/vendor/huawei/extra/build/build_script/kirin_kernel_release/kernel/block/hisi-bkops-core.c:174:22
	str	w8, [x20, #72]
.Ltmp38:
	.loc	1 176 19 is_stmt 1      // /mnt/ssddisk/jslave/ci/workspace/chipset_WLZ_4g_release/opensource/component_code/vendor/huawei/extra/build/build_script/kirin_kernel_release/kernel/block/hisi-bkops-core.c:176:19
	cbz	w8, .LBB1_3
.Ltmp39:
// %bb.6:
	//DEBUG_VALUE: bkops_idle_work_func:bkops_status <- $w8
	//DEBUG_VALUE: bkops_idle_work_func:ret <- $w0
	//DEBUG_VALUE: bkops_idle_work_func:work <- $x19
	//DEBUG_VALUE: bkops_idle_work_func:bkops <- $x21
	//DEBUG_VALUE: test_bit:nr <- 0
	.file	146 "/mnt/ssddisk/jslave/ci/workspace/chipset_WLZ_4g_release/opensource/component_code/vendor/huawei/extra/build/build_script/kirin_kernel_release/kernel/include/asm-generic/bitops/non-atomic.h"
	.loc	146 106 16              // /mnt/ssddisk/jslave/ci/workspace/chipset_WLZ_4g_release/opensource/component_code/vendor/huawei/extra/build/build_script/kirin_kernel_release/kernel/include/asm-generic/bitops/non-atomic.h:106:16
	ldr	x8, [x20]
.Ltmp40:
	.loc	1 176 6                 // /mnt/ssddisk/jslave/ci/workspace/chipset_WLZ_4g_release/opensource/component_code/vendor/huawei/extra/build/build_script/kirin_kernel_release/kernel/block/hisi-bkops-core.c:176:6
	tbnz	w8, #0, .LBB1_3
.Ltmp41:
// %bb.7:
	//DEBUG_VALUE: bkops_idle_work_func:ret <- $w0
	//DEBUG_VALUE: bkops_idle_work_func:work <- $x19
	//DEBUG_VALUE: bkops_idle_work_func:bkops <- $x21
	//DEBUG_VALUE: hisi_bkops_start:ret <- -1
	.loc	1 105 41                // /mnt/ssddisk/jslave/ci/workspace/chipset_WLZ_4g_release/opensource/component_code/vendor/huawei/extra/build/build_script/kirin_kernel_release/kernel/block/hisi-bkops-core.c:105:41
	ldur	x22, [x19, #-24]
.Ltmp42:
	//DEBUG_VALUE: hisi_bkops_start:bkops_ops_p <- $x22
	.loc	1 109 2                 // /mnt/ssddisk/jslave/ci/workspace/chipset_WLZ_4g_release/opensource/component_code/vendor/huawei/extra/build/build_script/kirin_kernel_release/kernel/block/hisi-bkops-core.c:109:2
	adrp	x0, bkops_lock
.Ltmp43:
	add	x0, x0, :lo12:bkops_lock
	bl	mutex_lock
.Ltmp44:
	.loc	1 110 7                 // /mnt/ssddisk/jslave/ci/workspace/chipset_WLZ_4g_release/opensource/component_code/vendor/huawei/extra/build/build_script/kirin_kernel_release/kernel/block/hisi-bkops-core.c:110:7
	adrp	x8, bkops_enabled
	ldrb	w8, [x8, :lo12:bkops_enabled]
.Ltmp45:
	.loc	1 110 6 is_stmt 0       // /mnt/ssddisk/jslave/ci/workspace/chipset_WLZ_4g_release/opensource/component_code/vendor/huawei/extra/build/build_script/kirin_kernel_release/kernel/block/hisi-bkops-core.c:110:6
	cmp	w8, #1                  // =1
	b.ne	.LBB1_9
.Ltmp46:
// %bb.8:
	//DEBUG_VALUE: hisi_bkops_start:bkops_ops_p <- $x22
	//DEBUG_VALUE: bkops_idle_work_func:work <- $x19
	//DEBUG_VALUE: bkops_idle_work_func:bkops <- $x21
	.loc	1 130 2 is_stmt 1       // /mnt/ssddisk/jslave/ci/workspace/chipset_WLZ_4g_release/opensource/component_code/vendor/huawei/extra/build/build_script/kirin_kernel_release/kernel/block/hisi-bkops-core.c:130:2
	adrp	x0, bkops_lock
	add	x0, x0, :lo12:bkops_lock
	bl	mutex_unlock
	b	.LBB1_14
.Ltmp47:
.LBB1_9:
	//DEBUG_VALUE: hisi_bkops_start:bkops_ops_p <- $x22
	//DEBUG_VALUE: bkops_idle_work_func:work <- $x19
	//DEBUG_VALUE: bkops_idle_work_func:bkops <- $x21
	.loc	144 218 9               // /mnt/ssddisk/jslave/ci/workspace/chipset_WLZ_4g_release/opensource/component_code/vendor/huawei/extra/build/build_script/kirin_kernel_release/kernel/include/linux/timekeeping.h:218:9
	bl	ktime_get
.Ltmp48:
	.loc	1 114 45                // /mnt/ssddisk/jslave/ci/workspace/chipset_WLZ_4g_release/opensource/component_code/vendor/huawei/extra/build/build_script/kirin_kernel_release/kernel/block/hisi-bkops-core.c:114:45
	ldur	x8, [x19, #-16]
	.loc	1 114 21 is_stmt 0      // /mnt/ssddisk/jslave/ci/workspace/chipset_WLZ_4g_release/opensource/component_code/vendor/huawei/extra/build/build_script/kirin_kernel_release/kernel/block/hisi-bkops-core.c:114:21
	ldr	x9, [x22]
.Ltmp49:
	.loc	144 218 9 is_stmt 1     // /mnt/ssddisk/jslave/ci/workspace/chipset_WLZ_4g_release/opensource/component_code/vendor/huawei/extra/build/build_script/kirin_kernel_release/kernel/include/linux/timekeeping.h:218:9
	mov	x23, x0
.Ltmp50:
	//DEBUG_VALUE: hisi_bkops_start:start_time <- $x23
	.loc	1 114 8                 // /mnt/ssddisk/jslave/ci/workspace/chipset_WLZ_4g_release/opensource/component_code/vendor/huawei/extra/build/build_script/kirin_kernel_release/kernel/block/hisi-bkops-core.c:114:8
	orr	w1, wzr, #0x1
	mov	x0, x8
	blr	x9
	.loc	1 115 34                // /mnt/ssddisk/jslave/ci/workspace/chipset_WLZ_4g_release/opensource/component_code/vendor/huawei/extra/build/build_script/kirin_kernel_release/kernel/block/hisi-bkops-core.c:115:34
	ldr	w8, [x19, #228]
	.loc	1 114 8                 // /mnt/ssddisk/jslave/ci/workspace/chipset_WLZ_4g_release/opensource/component_code/vendor/huawei/extra/build/build_script/kirin_kernel_release/kernel/block/hisi-bkops-core.c:114:8
	mov	w22, w0
.Ltmp51:
	//DEBUG_VALUE: hisi_bkops_start:ret <- $w22
	//DEBUG_VALUE: bkops_idle_work_func:ret <- $w22
	.loc	1 116 6                 // /mnt/ssddisk/jslave/ci/workspace/chipset_WLZ_4g_release/opensource/component_code/vendor/huawei/extra/build/build_script/kirin_kernel_release/kernel/block/hisi-bkops-core.c:116:6
	adrp	x0, hisi_bkops_start.bkops_start_rs
	adrp	x1, .L__func__.hisi_bkops_start
.Ltmp52:
	.loc	1 115 34                // /mnt/ssddisk/jslave/ci/workspace/chipset_WLZ_4g_release/opensource/component_code/vendor/huawei/extra/build/build_script/kirin_kernel_release/kernel/block/hisi-bkops-core.c:115:34
	add	w8, w8, #1              // =1
.Ltmp53:
	.loc	1 116 6                 // /mnt/ssddisk/jslave/ci/workspace/chipset_WLZ_4g_release/opensource/component_code/vendor/huawei/extra/build/build_script/kirin_kernel_release/kernel/block/hisi-bkops-core.c:116:6
	add	x0, x0, :lo12:hisi_bkops_start.bkops_start_rs
	add	x1, x1, :lo12:.L__func__.hisi_bkops_start
.Ltmp54:
	.loc	1 115 34                // /mnt/ssddisk/jslave/ci/workspace/chipset_WLZ_4g_release/opensource/component_code/vendor/huawei/extra/build/build_script/kirin_kernel_release/kernel/block/hisi-bkops-core.c:115:34
	str	w8, [x19, #228]
.Ltmp55:
	.loc	1 116 6                 // /mnt/ssddisk/jslave/ci/workspace/chipset_WLZ_4g_release/opensource/component_code/vendor/huawei/extra/build/build_script/kirin_kernel_release/kernel/block/hisi-bkops-core.c:116:6
	bl	___ratelimit
.Ltmp56:
	.loc	1 116 6 is_stmt 0       // /mnt/ssddisk/jslave/ci/workspace/chipset_WLZ_4g_release/opensource/component_code/vendor/huawei/extra/build/build_script/kirin_kernel_release/kernel/block/hisi-bkops-core.c:116:6
	cbz	w0, .LBB1_11
.Ltmp57:
// %bb.10:
	//DEBUG_VALUE: bkops_idle_work_func:ret <- $w22
	//DEBUG_VALUE: hisi_bkops_start:ret <- $w22
	//DEBUG_VALUE: hisi_bkops_start:start_time <- $x23
	//DEBUG_VALUE: bkops_idle_work_func:work <- $x19
	//DEBUG_VALUE: bkops_idle_work_func:bkops <- $x21
	.loc	1 117 3 is_stmt 1       // /mnt/ssddisk/jslave/ci/workspace/chipset_WLZ_4g_release/opensource/component_code/vendor/huawei/extra/build/build_script/kirin_kernel_release/kernel/block/hisi-bkops-core.c:117:3
	ldr	w1, [x21, #260]
	adrp	x0, .L.str.12
	add	x0, x0, :lo12:.L.str.12
	bl	printk
.Ltmp58:
.LBB1_11:
	//DEBUG_VALUE: bkops_idle_work_func:ret <- $w22
	//DEBUG_VALUE: hisi_bkops_start:ret <- $w22
	//DEBUG_VALUE: hisi_bkops_start:start_time <- $x23
	//DEBUG_VALUE: bkops_idle_work_func:work <- $x19
	//DEBUG_VALUE: bkops_idle_work_func:bkops <- $x21
	.loc	144 218 9               // /mnt/ssddisk/jslave/ci/workspace/chipset_WLZ_4g_release/opensource/component_code/vendor/huawei/extra/build/build_script/kirin_kernel_release/kernel/include/linux/timekeeping.h:218:9
	bl	ktime_get
.Ltmp59:
	.loc	1 121 37                // /mnt/ssddisk/jslave/ci/workspace/chipset_WLZ_4g_release/opensource/component_code/vendor/huawei/extra/build/build_script/kirin_kernel_release/kernel/block/hisi-bkops-core.c:121:37
	ldr	x9, [x19, #304]
.Ltmp60:
	//DEBUG_VALUE: hisi_bkops_start:stop_time <- $x0
	.loc	1 120 28                // /mnt/ssddisk/jslave/ci/workspace/chipset_WLZ_4g_release/opensource/component_code/vendor/huawei/extra/build/build_script/kirin_kernel_release/kernel/block/hisi-bkops-core.c:120:28
	sub	x8, x0, x23
.Ltmp61:
	//DEBUG_VALUE: hisi_bkops_start:time_interval <- $x8
	.loc	1 119 46                // /mnt/ssddisk/jslave/ci/workspace/chipset_WLZ_4g_release/opensource/component_code/vendor/huawei/extra/build/build_script/kirin_kernel_release/kernel/block/hisi-bkops-core.c:119:46
	str	x0, [x19, #280]
	.loc	1 121 6                 // /mnt/ssddisk/jslave/ci/workspace/chipset_WLZ_4g_release/opensource/component_code/vendor/huawei/extra/build/build_script/kirin_kernel_release/kernel/block/hisi-bkops-core.c:121:6
	cmp	x8, x9
	b.ls	.LBB1_13
.Ltmp62:
// %bb.12:
	//DEBUG_VALUE: hisi_bkops_start:time_interval <- $x8
	//DEBUG_VALUE: hisi_bkops_start:stop_time <- $x0
	//DEBUG_VALUE: bkops_idle_work_func:ret <- $w22
	//DEBUG_VALUE: hisi_bkops_start:ret <- $w22
	//DEBUG_VALUE: hisi_bkops_start:start_time <- $x23
	//DEBUG_VALUE: bkops_idle_work_func:work <- $x19
	//DEBUG_VALUE: bkops_idle_work_func:bkops <- $x21
	.loc	1 122 39                // /mnt/ssddisk/jslave/ci/workspace/chipset_WLZ_4g_release/opensource/component_code/vendor/huawei/extra/build/build_script/kirin_kernel_release/kernel/block/hisi-bkops-core.c:122:39
	str	x8, [x19, #304]
.Ltmp63:
.LBB1_13:
	//DEBUG_VALUE: hisi_bkops_start:time_interval <- $x8
	//DEBUG_VALUE: hisi_bkops_start:stop_time <- $x0
	//DEBUG_VALUE: bkops_idle_work_func:ret <- $w22
	//DEBUG_VALUE: hisi_bkops_start:ret <- $w22
	//DEBUG_VALUE: hisi_bkops_start:start_time <- $x23
	//DEBUG_VALUE: bkops_idle_work_func:work <- $x19
	//DEBUG_VALUE: bkops_idle_work_func:bkops <- $x21
	.loc	1 125 21                // /mnt/ssddisk/jslave/ci/workspace/chipset_WLZ_4g_release/opensource/component_code/vendor/huawei/extra/build/build_script/kirin_kernel_release/kernel/block/hisi-bkops-core.c:125:21
	ldr	w9, [x19, #228]
	.loc	1 124 20                // /mnt/ssddisk/jslave/ci/workspace/chipset_WLZ_4g_release/opensource/component_code/vendor/huawei/extra/build/build_script/kirin_kernel_release/kernel/block/hisi-bkops-core.c:124:20
	ldr	x10, [x19, #312]
	.loc	1 130 2                 // /mnt/ssddisk/jslave/ci/workspace/chipset_WLZ_4g_release/opensource/component_code/vendor/huawei/extra/build/build_script/kirin_kernel_release/kernel/block/hisi-bkops-core.c:130:2
	adrp	x0, bkops_lock
.Ltmp64:
	add	x0, x0, :lo12:bkops_lock
	.loc	1 125 39                // /mnt/ssddisk/jslave/ci/workspace/chipset_WLZ_4g_release/opensource/component_code/vendor/huawei/extra/build/build_script/kirin_kernel_release/kernel/block/hisi-bkops-core.c:125:39
	sub	w11, w9, #1             // =1
	.loc	1 125 45 is_stmt 0      // /mnt/ssddisk/jslave/ci/workspace/chipset_WLZ_4g_release/opensource/component_code/vendor/huawei/extra/build/build_script/kirin_kernel_release/kernel/block/hisi-bkops-core.c:125:45
	madd	x8, x10, x11, x8
.Ltmp65:
	.loc	1 126 19 is_stmt 1      // /mnt/ssddisk/jslave/ci/workspace/chipset_WLZ_4g_release/opensource/component_code/vendor/huawei/extra/build/build_script/kirin_kernel_release/kernel/block/hisi-bkops-core.c:126:19
	udiv	x8, x8, x9
	.loc	1 123 39                // /mnt/ssddisk/jslave/ci/workspace/chipset_WLZ_4g_release/opensource/component_code/vendor/huawei/extra/build/build_script/kirin_kernel_release/kernel/block/hisi-bkops-core.c:123:39
	str	x8, [x19, #312]
	.loc	1 130 2                 // /mnt/ssddisk/jslave/ci/workspace/chipset_WLZ_4g_release/opensource/component_code/vendor/huawei/extra/build/build_script/kirin_kernel_release/kernel/block/hisi-bkops-core.c:130:2
	bl	mutex_unlock
.Ltmp66:
	.loc	1 178 7                 // /mnt/ssddisk/jslave/ci/workspace/chipset_WLZ_4g_release/opensource/component_code/vendor/huawei/extra/build/build_script/kirin_kernel_release/kernel/block/hisi-bkops-core.c:178:7
	cbz	w22, .LBB1_15
.Ltmp67:
.LBB1_14:
	//DEBUG_VALUE: bkops_idle_work_func:work <- $x19
	//DEBUG_VALUE: bkops_idle_work_func:bkops <- $x21
	.loc	1 179 4                 // /mnt/ssddisk/jslave/ci/workspace/chipset_WLZ_4g_release/opensource/component_code/vendor/huawei/extra/build/build_script/kirin_kernel_release/kernel/block/hisi-bkops-core.c:179:4
	adrp	x0, .L.str.1
	add	x0, x0, :lo12:.L.str.1
	b	.LBB1_2
.Ltmp68:
.LBB1_15:
	//DEBUG_VALUE: bkops_idle_work_func:ret <- $w22
	//DEBUG_VALUE: bkops_idle_work_func:work <- $x19
	//DEBUG_VALUE: bkops_idle_work_func:bkops <- $x21
	.loc	1 181 4                 // /mnt/ssddisk/jslave/ci/workspace/chipset_WLZ_4g_release/opensource/component_code/vendor/huawei/extra/build/build_script/kirin_kernel_release/kernel/block/hisi-bkops-core.c:181:4
	mov	w0, wzr
	mov	x1, x20
	bl	set_bit
	b	.LBB1_3
.Ltmp69:
.LBB1_16:
	//DEBUG_VALUE: bkops_idle_work_func:work <- $x19
	//DEBUG_VALUE: bkops_idle_work_func:bkops <- $x21
	.loc	1 0 4 is_stmt 0         // /mnt/ssddisk/jslave/ci/workspace/chipset_WLZ_4g_release/opensource/component_code/vendor/huawei/extra/build/build_script/kirin_kernel_release/kernel/block/hisi-bkops-core.c:0:4
	bl	__stack_chk_fail
.Lfunc_end1:
	.size	bkops_idle_work_func, .Lfunc_end1-bkops_idle_work_func
	.cfi_endproc
                                        // -- End function
	.section	.text.hisi_bkops_query,"ax",@progbits
	.p2align	2               // -- Begin function hisi_bkops_query
	.type	hisi_bkops_query,@function
hisi_bkops_query:                       // @hisi_bkops_query
.Lfunc_begin2:
	.loc	1 60 0 is_stmt 1        // /mnt/ssddisk/jslave/ci/workspace/chipset_WLZ_4g_release/opensource/component_code/vendor/huawei/extra/build/build_script/kirin_kernel_release/kernel/block/hisi-bkops-core.c:60:0
	.cfi_startproc
// %bb.0:
	stp	x22, x21, [sp, #-48]!   // 16-byte Folded Spill
	stp	x20, x19, [sp, #16]     // 16-byte Folded Spill
	stp	x29, x30, [sp, #32]     // 16-byte Folded Spill
	add	x29, sp, #32            // =32
	.cfi_def_cfa w29, 16
	.cfi_offset w30, -8
	.cfi_offset w29, -16
	.cfi_offset w19, -24
	.cfi_offset w20, -32
	.cfi_offset w21, -40
	.cfi_offset w22, -48
	//DEBUG_VALUE: hisi_bkops_query:bkops <- $x0
	//DEBUG_VALUE: hisi_bkops_query:bkops_status <- $x1
.Ltmp70:
	//DEBUG_VALUE: hisi_bkops_query:bkops_stats_p <- [DW_OP_plus_uconst 256, DW_OP_stack_value] $x0
	.loc	1 63 41 prologue_end    // /mnt/ssddisk/jslave/ci/workspace/chipset_WLZ_4g_release/opensource/component_code/vendor/huawei/extra/build/build_script/kirin_kernel_release/kernel/block/hisi-bkops-core.c:63:41
	ldr	x20, [x0, #8]
.Ltmp71:
	//DEBUG_VALUE: hisi_bkops_query:bkops_ops_p <- $x20
	.loc	1 0 41 is_stmt 0        // /mnt/ssddisk/jslave/ci/workspace/chipset_WLZ_4g_release/opensource/component_code/vendor/huawei/extra/build/build_script/kirin_kernel_release/kernel/block/hisi-bkops-core.c:0:41
	mov	x19, x0
.Ltmp72:
	//DEBUG_VALUE: hisi_bkops_query:ret <- -1
	//DEBUG_VALUE: hisi_bkops_query:bkops_stats_p <- [DW_OP_plus_uconst 256, DW_OP_stack_value] $x19
	//DEBUG_VALUE: hisi_bkops_query:bkops <- $x19
	.loc	1 66 2 is_stmt 1        // /mnt/ssddisk/jslave/ci/workspace/chipset_WLZ_4g_release/opensource/component_code/vendor/huawei/extra/build/build_script/kirin_kernel_release/kernel/block/hisi-bkops-core.c:66:2
	adrp	x0, bkops_lock
	add	x0, x0, :lo12:bkops_lock
	mov	x21, x1
.Ltmp73:
	//DEBUG_VALUE: hisi_bkops_query:bkops_status <- $x21
	bl	mutex_lock
.Ltmp74:
	.loc	1 67 7                  // /mnt/ssddisk/jslave/ci/workspace/chipset_WLZ_4g_release/opensource/component_code/vendor/huawei/extra/build/build_script/kirin_kernel_release/kernel/block/hisi-bkops-core.c:67:7
	adrp	x8, bkops_enabled
	ldrb	w8, [x8, :lo12:bkops_enabled]
.Ltmp75:
	.loc	1 67 6 is_stmt 0        // /mnt/ssddisk/jslave/ci/workspace/chipset_WLZ_4g_release/opensource/component_code/vendor/huawei/extra/build/build_script/kirin_kernel_release/kernel/block/hisi-bkops-core.c:67:6
	tbz	w8, #0, .LBB2_2
.Ltmp76:
// %bb.1:
	//DEBUG_VALUE: hisi_bkops_query:bkops_status <- $x21
	//DEBUG_VALUE: hisi_bkops_query:bkops <- $x19
	//DEBUG_VALUE: hisi_bkops_query:bkops_stats_p <- [DW_OP_plus_uconst 256, DW_OP_stack_value] $x19
	//DEBUG_VALUE: hisi_bkops_query:bkops_ops_p <- $x20
	.loc	1 0 6                   // /mnt/ssddisk/jslave/ci/workspace/chipset_WLZ_4g_release/opensource/component_code/vendor/huawei/extra/build/build_script/kirin_kernel_release/kernel/block/hisi-bkops-core.c:0:6
	mov	w20, #-1
.Ltmp77:
	b	.LBB2_11
.Ltmp78:
.LBB2_2:
	//DEBUG_VALUE: hisi_bkops_query:bkops_status <- $x21
	//DEBUG_VALUE: hisi_bkops_query:bkops <- $x19
	//DEBUG_VALUE: hisi_bkops_query:bkops_stats_p <- [DW_OP_plus_uconst 256, DW_OP_stack_value] $x19
	//DEBUG_VALUE: hisi_bkops_query:bkops_ops_p <- $x20
	.loc	144 218 9 is_stmt 1     // /mnt/ssddisk/jslave/ci/workspace/chipset_WLZ_4g_release/opensource/component_code/vendor/huawei/extra/build/build_script/kirin_kernel_release/kernel/include/linux/timekeeping.h:218:9
	bl	ktime_get
.Ltmp79:
	.loc	1 79 47                 // /mnt/ssddisk/jslave/ci/workspace/chipset_WLZ_4g_release/opensource/component_code/vendor/huawei/extra/build/build_script/kirin_kernel_release/kernel/block/hisi-bkops-core.c:79:47
	ldr	x8, [x19, #16]
	.loc	1 79 21 is_stmt 0       // /mnt/ssddisk/jslave/ci/workspace/chipset_WLZ_4g_release/opensource/component_code/vendor/huawei/extra/build/build_script/kirin_kernel_release/kernel/block/hisi-bkops-core.c:79:21
	ldr	x9, [x20, #8]
.Ltmp80:
	.loc	144 218 9 is_stmt 1     // /mnt/ssddisk/jslave/ci/workspace/chipset_WLZ_4g_release/opensource/component_code/vendor/huawei/extra/build/build_script/kirin_kernel_release/kernel/include/linux/timekeeping.h:218:9
	mov	x22, x0
.Ltmp81:
	//DEBUG_VALUE: hisi_bkops_query:start_time <- $x22
	.loc	1 79 8                  // /mnt/ssddisk/jslave/ci/workspace/chipset_WLZ_4g_release/opensource/component_code/vendor/huawei/extra/build/build_script/kirin_kernel_release/kernel/block/hisi-bkops-core.c:79:8
	mov	x1, x21
	mov	x0, x8
	blr	x9
	.loc	1 80 41                 // /mnt/ssddisk/jslave/ci/workspace/chipset_WLZ_4g_release/opensource/component_code/vendor/huawei/extra/build/build_script/kirin_kernel_release/kernel/block/hisi-bkops-core.c:80:41
	ldr	w8, [x19, #276]
	.loc	1 79 8                  // /mnt/ssddisk/jslave/ci/workspace/chipset_WLZ_4g_release/opensource/component_code/vendor/huawei/extra/build/build_script/kirin_kernel_release/kernel/block/hisi-bkops-core.c:79:8
	mov	w20, w0
.Ltmp82:
	//DEBUG_VALUE: hisi_bkops_query:ret <- $w20
	.loc	1 80 41                 // /mnt/ssddisk/jslave/ci/workspace/chipset_WLZ_4g_release/opensource/component_code/vendor/huawei/extra/build/build_script/kirin_kernel_release/kernel/block/hisi-bkops-core.c:80:41
	add	w8, w8, #1              // =1
	str	w8, [x19, #276]
.Ltmp83:
	.loc	1 81 11                 // /mnt/ssddisk/jslave/ci/workspace/chipset_WLZ_4g_release/opensource/component_code/vendor/huawei/extra/build/build_script/kirin_kernel_release/kernel/block/hisi-bkops-core.c:81:11
	cbnz	w0, .LBB2_5
.Ltmp84:
// %bb.3:
	//DEBUG_VALUE: hisi_bkops_query:ret <- $w20
	//DEBUG_VALUE: hisi_bkops_query:start_time <- $x22
	//DEBUG_VALUE: hisi_bkops_query:bkops_status <- $x21
	//DEBUG_VALUE: hisi_bkops_query:bkops <- $x19
	//DEBUG_VALUE: hisi_bkops_query:bkops_stats_p <- [DW_OP_plus_uconst 256, DW_OP_stack_value] $x19
	.loc	1 81 14 is_stmt 0       // /mnt/ssddisk/jslave/ci/workspace/chipset_WLZ_4g_release/opensource/component_code/vendor/huawei/extra/build/build_script/kirin_kernel_release/kernel/block/hisi-bkops-core.c:81:14
	ldr	w8, [x21]
	.loc	1 81 45                 // /mnt/ssddisk/jslave/ci/workspace/chipset_WLZ_4g_release/opensource/component_code/vendor/huawei/extra/build/build_script/kirin_kernel_release/kernel/block/hisi-bkops-core.c:81:45
	ldr	w9, [x19, #448]
.Ltmp85:
	.loc	1 81 6                  // /mnt/ssddisk/jslave/ci/workspace/chipset_WLZ_4g_release/opensource/component_code/vendor/huawei/extra/build/build_script/kirin_kernel_release/kernel/block/hisi-bkops-core.c:81:6
	cmp	w8, w9
	b.hs	.LBB2_5
.Ltmp86:
// %bb.4:
	//DEBUG_VALUE: hisi_bkops_query:ret <- $w20
	//DEBUG_VALUE: hisi_bkops_query:start_time <- $x22
	//DEBUG_VALUE: hisi_bkops_query:bkops_status <- $x21
	//DEBUG_VALUE: hisi_bkops_query:bkops <- $x19
	//DEBUG_VALUE: hisi_bkops_query:bkops_stats_p <- [DW_OP_plus_uconst 256, DW_OP_stack_value] $x19
	.loc	1 82 3 is_stmt 1        // /mnt/ssddisk/jslave/ci/workspace/chipset_WLZ_4g_release/opensource/component_code/vendor/huawei/extra/build/build_script/kirin_kernel_release/kernel/block/hisi-bkops-core.c:82:3
	add	x8, x19, x8, lsl #2
	.loc	1 82 45 is_stmt 0       // /mnt/ssddisk/jslave/ci/workspace/chipset_WLZ_4g_release/opensource/component_code/vendor/huawei/extra/build/build_script/kirin_kernel_release/kernel/block/hisi-bkops-core.c:82:45
	ldr	w9, [x8, #408]
	add	w9, w9, #1              // =1
	str	w9, [x8, #408]
.Ltmp87:
.LBB2_5:
	//DEBUG_VALUE: hisi_bkops_query:ret <- $w20
	//DEBUG_VALUE: hisi_bkops_query:start_time <- $x22
	//DEBUG_VALUE: hisi_bkops_query:bkops_status <- $x21
	//DEBUG_VALUE: hisi_bkops_query:bkops <- $x19
	//DEBUG_VALUE: hisi_bkops_query:bkops_stats_p <- [DW_OP_plus_uconst 256, DW_OP_stack_value] $x19
	.loc	1 83 6 is_stmt 1        // /mnt/ssddisk/jslave/ci/workspace/chipset_WLZ_4g_release/opensource/component_code/vendor/huawei/extra/build/build_script/kirin_kernel_release/kernel/block/hisi-bkops-core.c:83:6
	adrp	x8, user_manual_gc
	ldrb	w9, [x8, :lo12:user_manual_gc]
	.loc	1 83 21 is_stmt 0       // /mnt/ssddisk/jslave/ci/workspace/chipset_WLZ_4g_release/opensource/component_code/vendor/huawei/extra/build/build_script/kirin_kernel_release/kernel/block/hisi-bkops-core.c:83:21
	cbz	w9, .LBB2_8
.Ltmp88:
// %bb.6:
	//DEBUG_VALUE: hisi_bkops_query:ret <- $w20
	//DEBUG_VALUE: hisi_bkops_query:start_time <- $x22
	//DEBUG_VALUE: hisi_bkops_query:bkops_status <- $x21
	//DEBUG_VALUE: hisi_bkops_query:bkops <- $x19
	//DEBUG_VALUE: hisi_bkops_query:bkops_stats_p <- [DW_OP_plus_uconst 256, DW_OP_stack_value] $x19
	.loc	1 83 26                 // /mnt/ssddisk/jslave/ci/workspace/chipset_WLZ_4g_release/opensource/component_code/vendor/huawei/extra/build/build_script/kirin_kernel_release/kernel/block/hisi-bkops-core.c:83:26
	ldr	w9, [x21]
.Ltmp89:
	.loc	1 83 6                  // /mnt/ssddisk/jslave/ci/workspace/chipset_WLZ_4g_release/opensource/component_code/vendor/huawei/extra/build/build_script/kirin_kernel_release/kernel/block/hisi-bkops-core.c:83:6
	cbnz	w9, .LBB2_8
.Ltmp90:
// %bb.7:
	//DEBUG_VALUE: hisi_bkops_query:ret <- $w20
	//DEBUG_VALUE: hisi_bkops_query:start_time <- $x22
	//DEBUG_VALUE: hisi_bkops_query:bkops_status <- $x21
	//DEBUG_VALUE: hisi_bkops_query:bkops <- $x19
	//DEBUG_VALUE: hisi_bkops_query:bkops_stats_p <- [DW_OP_plus_uconst 256, DW_OP_stack_value] $x19
	.loc	1 84 18 is_stmt 1       // /mnt/ssddisk/jslave/ci/workspace/chipset_WLZ_4g_release/opensource/component_code/vendor/huawei/extra/build/build_script/kirin_kernel_release/kernel/block/hisi-bkops-core.c:84:18
	strb	wzr, [x8, :lo12:user_manual_gc]
.Ltmp91:
.LBB2_8:
	//DEBUG_VALUE: hisi_bkops_query:ret <- $w20
	//DEBUG_VALUE: hisi_bkops_query:start_time <- $x22
	//DEBUG_VALUE: hisi_bkops_query:bkops_status <- $x21
	//DEBUG_VALUE: hisi_bkops_query:bkops <- $x19
	//DEBUG_VALUE: hisi_bkops_query:bkops_stats_p <- [DW_OP_plus_uconst 256, DW_OP_stack_value] $x19
	.loc	144 218 9               // /mnt/ssddisk/jslave/ci/workspace/chipset_WLZ_4g_release/opensource/component_code/vendor/huawei/extra/build/build_script/kirin_kernel_release/kernel/include/linux/timekeeping.h:218:9
	bl	ktime_get
.Ltmp92:
	.loc	1 87 37                 // /mnt/ssddisk/jslave/ci/workspace/chipset_WLZ_4g_release/opensource/component_code/vendor/huawei/extra/build/build_script/kirin_kernel_release/kernel/block/hisi-bkops-core.c:87:37
	ldr	x9, [x19, #320]
.Ltmp93:
	//DEBUG_VALUE: hisi_bkops_query:stop_time <- $x0
	.loc	1 86 28                 // /mnt/ssddisk/jslave/ci/workspace/chipset_WLZ_4g_release/opensource/component_code/vendor/huawei/extra/build/build_script/kirin_kernel_release/kernel/block/hisi-bkops-core.c:86:28
	sub	x8, x0, x22
.Ltmp94:
	//DEBUG_VALUE: hisi_bkops_query:time_interval <- $x8
	.loc	1 87 6                  // /mnt/ssddisk/jslave/ci/workspace/chipset_WLZ_4g_release/opensource/component_code/vendor/huawei/extra/build/build_script/kirin_kernel_release/kernel/block/hisi-bkops-core.c:87:6
	cmp	x8, x9
	b.ls	.LBB2_10
.Ltmp95:
// %bb.9:
	//DEBUG_VALUE: hisi_bkops_query:time_interval <- $x8
	//DEBUG_VALUE: hisi_bkops_query:stop_time <- $x0
	//DEBUG_VALUE: hisi_bkops_query:ret <- $w20
	//DEBUG_VALUE: hisi_bkops_query:start_time <- $x22
	//DEBUG_VALUE: hisi_bkops_query:bkops_status <- $x21
	//DEBUG_VALUE: hisi_bkops_query:bkops <- $x19
	//DEBUG_VALUE: hisi_bkops_query:bkops_stats_p <- [DW_OP_plus_uconst 256, DW_OP_stack_value] $x19
	.loc	1 88 39                 // /mnt/ssddisk/jslave/ci/workspace/chipset_WLZ_4g_release/opensource/component_code/vendor/huawei/extra/build/build_script/kirin_kernel_release/kernel/block/hisi-bkops-core.c:88:39
	str	x8, [x19, #320]
.Ltmp96:
.LBB2_10:
	//DEBUG_VALUE: hisi_bkops_query:time_interval <- $x8
	//DEBUG_VALUE: hisi_bkops_query:stop_time <- $x0
	//DEBUG_VALUE: hisi_bkops_query:ret <- $w20
	//DEBUG_VALUE: hisi_bkops_query:start_time <- $x22
	//DEBUG_VALUE: hisi_bkops_query:bkops_status <- $x21
	//DEBUG_VALUE: hisi_bkops_query:bkops <- $x19
	//DEBUG_VALUE: hisi_bkops_query:bkops_stats_p <- [DW_OP_plus_uconst 256, DW_OP_stack_value] $x19
	.loc	1 92 21                 // /mnt/ssddisk/jslave/ci/workspace/chipset_WLZ_4g_release/opensource/component_code/vendor/huawei/extra/build/build_script/kirin_kernel_release/kernel/block/hisi-bkops-core.c:92:21
	ldr	w9, [x19, #276]
	.loc	1 91 20                 // /mnt/ssddisk/jslave/ci/workspace/chipset_WLZ_4g_release/opensource/component_code/vendor/huawei/extra/build/build_script/kirin_kernel_release/kernel/block/hisi-bkops-core.c:91:20
	ldr	x10, [x19, #328]
	.loc	1 92 46                 // /mnt/ssddisk/jslave/ci/workspace/chipset_WLZ_4g_release/opensource/component_code/vendor/huawei/extra/build/build_script/kirin_kernel_release/kernel/block/hisi-bkops-core.c:92:46
	sub	w11, w9, #1             // =1
	.loc	1 92 52 is_stmt 0       // /mnt/ssddisk/jslave/ci/workspace/chipset_WLZ_4g_release/opensource/component_code/vendor/huawei/extra/build/build_script/kirin_kernel_release/kernel/block/hisi-bkops-core.c:92:52
	madd	x8, x10, x11, x8
.Ltmp97:
	.loc	1 93 19 is_stmt 1       // /mnt/ssddisk/jslave/ci/workspace/chipset_WLZ_4g_release/opensource/component_code/vendor/huawei/extra/build/build_script/kirin_kernel_release/kernel/block/hisi-bkops-core.c:93:19
	udiv	x8, x8, x9
	.loc	1 90 39                 // /mnt/ssddisk/jslave/ci/workspace/chipset_WLZ_4g_release/opensource/component_code/vendor/huawei/extra/build/build_script/kirin_kernel_release/kernel/block/hisi-bkops-core.c:90:39
	str	x8, [x19, #328]
.Ltmp98:
.LBB2_11:
	//DEBUG_VALUE: hisi_bkops_query:bkops_status <- $x21
	//DEBUG_VALUE: hisi_bkops_query:bkops <- $x19
	//DEBUG_VALUE: hisi_bkops_query:bkops_stats_p <- [DW_OP_plus_uconst 256, DW_OP_stack_value] $x19
	//DEBUG_VALUE: hisi_bkops_query:ret <- $w20
	.loc	1 97 2                  // /mnt/ssddisk/jslave/ci/workspace/chipset_WLZ_4g_release/opensource/component_code/vendor/huawei/extra/build/build_script/kirin_kernel_release/kernel/block/hisi-bkops-core.c:97:2
	adrp	x0, bkops_lock
	add	x0, x0, :lo12:bkops_lock
	bl	mutex_unlock
	.loc	1 98 2                  // /mnt/ssddisk/jslave/ci/workspace/chipset_WLZ_4g_release/opensource/component_code/vendor/huawei/extra/build/build_script/kirin_kernel_release/kernel/block/hisi-bkops-core.c:98:2
	mov	w0, w20
	ldp	x29, x30, [sp, #32]     // 16-byte Folded Reload
	ldp	x20, x19, [sp, #16]     // 16-byte Folded Reload
.Ltmp99:
	ldp	x22, x21, [sp], #48     // 16-byte Folded Reload
.Ltmp100:
	ret
.Ltmp101:
.Lfunc_end2:
	.size	hisi_bkops_query, .Lfunc_end2-hisi_bkops_query
	.cfi_endproc
                                        // -- End function
	.section	.text.bkops_io_busy_idle_notify_handler,"ax",@progbits
	.hidden	bkops_io_busy_idle_notify_handler // -- Begin function bkops_io_busy_idle_notify_handler
	.globl	bkops_io_busy_idle_notify_handler
	.p2align	2
	.type	bkops_io_busy_idle_notify_handler,@function
bkops_io_busy_idle_notify_handler:      // @bkops_io_busy_idle_notify_handler
.Lfunc_begin3:
	.loc	1 258 0                 // /mnt/ssddisk/jslave/ci/workspace/chipset_WLZ_4g_release/opensource/component_code/vendor/huawei/extra/build/build_script/kirin_kernel_release/kernel/block/hisi-bkops-core.c:258:0
	.cfi_startproc
// %bb.0:
	str	x21, [sp, #-48]!        // 8-byte Folded Spill
	stp	x20, x19, [sp, #16]     // 16-byte Folded Spill
	stp	x29, x30, [sp, #32]     // 16-byte Folded Spill
	add	x29, sp, #32            // =32
	.cfi_def_cfa w29, 16
	.cfi_offset w30, -8
	.cfi_offset w29, -16
	.cfi_offset w19, -24
	.cfi_offset w20, -32
	.cfi_offset w21, -48
	//DEBUG_VALUE: bkops_io_busy_idle_notify_handler:event_node <- $x0
	//DEBUG_VALUE: bkops_io_busy_idle_notify_handler:event_node <- $x0
	//DEBUG_VALUE: bkops_io_busy_idle_notify_handler:state <- $w1
.Ltmp102:
	//DEBUG_VALUE: bkops_io_busy_idle_notify_handler:ret <- 0
	.loc	1 262 37 prologue_end   // /mnt/ssddisk/jslave/ci/workspace/chipset_WLZ_4g_release/opensource/component_code/vendor/huawei/extra/build/build_script/kirin_kernel_release/kernel/block/hisi-bkops-core.c:262:37
	ldr	x21, [x0, #40]
.Ltmp103:
	//DEBUG_VALUE: bkops_io_busy_idle_notify_handler:bkops <- $x21
	//DEBUG_VALUE: bkops_should_query:bkops <- $x21
	//DEBUG_VALUE: bkops_strategy:bkops <- $x21
	//DEBUG_VALUE: hisi_bkops_stop:bkops <- $x21
	//DEBUG_VALUE: bkops_io_busy_idle_notify_handler:state <- $w1
	.loc	1 264 2                 // /mnt/ssddisk/jslave/ci/workspace/chipset_WLZ_4g_release/opensource/component_code/vendor/huawei/extra/build/build_script/kirin_kernel_release/kernel/block/hisi-bkops-core.c:264:2
	cbz	w1, .LBB3_6
.Ltmp104:
// %bb.1:
	//DEBUG_VALUE: bkops_io_busy_idle_notify_handler:bkops <- $x21
	//DEBUG_VALUE: bkops_io_busy_idle_notify_handler:state <- $w1
	//DEBUG_VALUE: bkops_io_busy_idle_notify_handler:event_node <- $x0
	cmp	w1, #1                  // =1
	b.ne	.LBB3_13
.Ltmp105:
// %bb.2:
	//DEBUG_VALUE: bkops_io_busy_idle_notify_handler:bkops <- $x21
	//DEBUG_VALUE: bkops_io_busy_idle_notify_handler:state <- $w1
	//DEBUG_VALUE: bkops_io_busy_idle_notify_handler:event_node <- $x0
	.loc	1 230 13                // /mnt/ssddisk/jslave/ci/workspace/chipset_WLZ_4g_release/opensource/component_code/vendor/huawei/extra/build/build_script/kirin_kernel_release/kernel/block/hisi-bkops-core.c:230:13
	mov	x19, x21
	ldr	x8, [x19, #128]!
.Ltmp106:
	.loc	1 230 6 is_stmt 0       // /mnt/ssddisk/jslave/ci/workspace/chipset_WLZ_4g_release/opensource/component_code/vendor/huawei/extra/build/build_script/kirin_kernel_release/kernel/block/hisi-bkops-core.c:230:6
	tbnz	w8, #1, .LBB3_26
.Ltmp107:
// %bb.3:
	//DEBUG_VALUE: bkops_io_busy_idle_notify_handler:bkops <- $x21
	//DEBUG_VALUE: bkops_io_busy_idle_notify_handler:state <- $w1
	//DEBUG_VALUE: bkops_io_busy_idle_notify_handler:event_node <- $x0
	.loc	1 233 13 is_stmt 1      // /mnt/ssddisk/jslave/ci/workspace/chipset_WLZ_4g_release/opensource/component_code/vendor/huawei/extra/build/build_script/kirin_kernel_release/kernel/block/hisi-bkops-core.c:233:13
	ldr	w9, [x21, #204]
	.loc	1 233 28 is_stmt 0      // /mnt/ssddisk/jslave/ci/workspace/chipset_WLZ_4g_release/opensource/component_code/vendor/huawei/extra/build/build_script/kirin_kernel_release/kernel/block/hisi-bkops-core.c:233:28
	cbz	w9, .LBB3_14
.Ltmp108:
// %bb.4:
	//DEBUG_VALUE: bkops_io_busy_idle_notify_handler:bkops <- $x21
	//DEBUG_VALUE: bkops_io_busy_idle_notify_handler:state <- $w1
	//DEBUG_VALUE: bkops_io_busy_idle_notify_handler:event_node <- $x0
	.loc	1 233 38                // /mnt/ssddisk/jslave/ci/workspace/chipset_WLZ_4g_release/opensource/component_code/vendor/huawei/extra/build/build_script/kirin_kernel_release/kernel/block/hisi-bkops-core.c:233:38
	ldr	w9, [x21, #200]
.Ltmp109:
	.loc	1 233 6                 // /mnt/ssddisk/jslave/ci/workspace/chipset_WLZ_4g_release/opensource/component_code/vendor/huawei/extra/build/build_script/kirin_kernel_release/kernel/block/hisi-bkops-core.c:233:6
	cbz	w9, .LBB3_14
.Ltmp110:
// %bb.5:
	//DEBUG_VALUE: bkops_io_busy_idle_notify_handler:bkops <- $x21
	//DEBUG_VALUE: bkops_io_busy_idle_notify_handler:state <- $w1
	//DEBUG_VALUE: bkops_io_busy_idle_notify_handler:event_node <- $x0
	.loc	1 234 39 is_stmt 1      // /mnt/ssddisk/jslave/ci/workspace/chipset_WLZ_4g_release/opensource/component_code/vendor/huawei/extra/build/build_script/kirin_kernel_release/kernel/block/hisi-bkops-core.c:234:39
	ldr	w9, [x21, #256]
	add	w9, w9, #1              // =1
	str	w9, [x21, #256]
	b	.LBB3_26
.Ltmp111:
.LBB3_6:
	//DEBUG_VALUE: bkops_io_busy_idle_notify_handler:bkops <- $x21
	//DEBUG_VALUE: bkops_io_busy_idle_notify_handler:state <- $w1
	//DEBUG_VALUE: bkops_io_busy_idle_notify_handler:event_node <- $x0
	.loc	1 275 42                // /mnt/ssddisk/jslave/ci/workspace/chipset_WLZ_4g_release/opensource/component_code/vendor/huawei/extra/build/build_script/kirin_kernel_release/kernel/block/hisi-bkops-core.c:275:42
	add	x19, x21, #128          // =128
.Ltmp112:
	//DEBUG_VALUE: test_bit:addr <- $x19
	.loc	1 274 8                 // /mnt/ssddisk/jslave/ci/workspace/chipset_WLZ_4g_release/opensource/component_code/vendor/huawei/extra/build/build_script/kirin_kernel_release/kernel/block/hisi-bkops-core.c:274:8
	orr	w0, wzr, #0x2
.Ltmp113:
	mov	x1, x19
.Ltmp114:
	bl	test_and_clear_bit
.Ltmp115:
	.loc	1 274 7 is_stmt 0       // /mnt/ssddisk/jslave/ci/workspace/chipset_WLZ_4g_release/opensource/component_code/vendor/huawei/extra/build/build_script/kirin_kernel_release/kernel/block/hisi-bkops-core.c:274:7
	cbz	w0, .LBB3_27
.Ltmp116:
// %bb.7:
	//DEBUG_VALUE: bkops_io_busy_idle_notify_handler:bkops <- $x21
	.loc	1 277 40 is_stmt 1      // /mnt/ssddisk/jslave/ci/workspace/chipset_WLZ_4g_release/opensource/component_code/vendor/huawei/extra/build/build_script/kirin_kernel_release/kernel/block/hisi-bkops-core.c:277:40
	add	x0, x21, #32            // =32
	.loc	1 277 7 is_stmt 0       // /mnt/ssddisk/jslave/ci/workspace/chipset_WLZ_4g_release/opensource/component_code/vendor/huawei/extra/build/build_script/kirin_kernel_release/kernel/block/hisi-bkops-core.c:277:7
	bl	cancel_delayed_work_sync
.Ltmp117:
	.loc	1 277 7                 // /mnt/ssddisk/jslave/ci/workspace/chipset_WLZ_4g_release/opensource/component_code/vendor/huawei/extra/build/build_script/kirin_kernel_release/kernel/block/hisi-bkops-core.c:277:7
	tbz	w0, #0, .LBB3_9
.Ltmp118:
// %bb.8:
	//DEBUG_VALUE: bkops_io_busy_idle_notify_handler:bkops <- $x21
	.loc	1 278 53 is_stmt 1      // /mnt/ssddisk/jslave/ci/workspace/chipset_WLZ_4g_release/opensource/component_code/vendor/huawei/extra/build/build_script/kirin_kernel_release/kernel/block/hisi-bkops-core.c:278:53
	ldr	w8, [x21, #280]
	add	w8, w8, #1              // =1
	str	w8, [x21, #280]
.Ltmp119:
	//DEBUG_VALUE: test_bit:nr <- 0
	.loc	146 106 16              // /mnt/ssddisk/jslave/ci/workspace/chipset_WLZ_4g_release/opensource/component_code/vendor/huawei/extra/build/build_script/kirin_kernel_release/kernel/include/asm-generic/bitops/non-atomic.h:106:16
	ldr	x8, [x19]
.Ltmp120:
	.loc	1 281 7                 // /mnt/ssddisk/jslave/ci/workspace/chipset_WLZ_4g_release/opensource/component_code/vendor/huawei/extra/build/build_script/kirin_kernel_release/kernel/block/hisi-bkops-core.c:281:7
	tbnz	w8, #0, .LBB3_10
	b	.LBB3_13
.Ltmp121:
.LBB3_9:
	//DEBUG_VALUE: bkops_io_busy_idle_notify_handler:bkops <- $x21
	.loc	1 280 51                // /mnt/ssddisk/jslave/ci/workspace/chipset_WLZ_4g_release/opensource/component_code/vendor/huawei/extra/build/build_script/kirin_kernel_release/kernel/block/hisi-bkops-core.c:280:51
	ldr	w8, [x21, #284]
	add	w8, w8, #1              // =1
	str	w8, [x21, #284]
.Ltmp122:
	//DEBUG_VALUE: test_bit:nr <- 0
	.loc	146 106 16              // /mnt/ssddisk/jslave/ci/workspace/chipset_WLZ_4g_release/opensource/component_code/vendor/huawei/extra/build/build_script/kirin_kernel_release/kernel/include/asm-generic/bitops/non-atomic.h:106:16
	ldr	x8, [x19]
.Ltmp123:
	.loc	1 281 7                 // /mnt/ssddisk/jslave/ci/workspace/chipset_WLZ_4g_release/opensource/component_code/vendor/huawei/extra/build/build_script/kirin_kernel_release/kernel/block/hisi-bkops-core.c:281:7
	tbz	w8, #0, .LBB3_13
.Ltmp124:
.LBB3_10:
	//DEBUG_VALUE: bkops_io_busy_idle_notify_handler:bkops <- $x21
	//DEBUG_VALUE: hisi_bkops_stop:ret <- -1
	.loc	1 147 2                 // /mnt/ssddisk/jslave/ci/workspace/chipset_WLZ_4g_release/opensource/component_code/vendor/huawei/extra/build/build_script/kirin_kernel_release/kernel/block/hisi-bkops-core.c:147:2
	adrp	x0, bkops_lock
	add	x0, x0, :lo12:bkops_lock
	bl	mutex_lock
.Ltmp125:
	.loc	1 148 7                 // /mnt/ssddisk/jslave/ci/workspace/chipset_WLZ_4g_release/opensource/component_code/vendor/huawei/extra/build/build_script/kirin_kernel_release/kernel/block/hisi-bkops-core.c:148:7
	adrp	x8, bkops_enabled
	ldrb	w8, [x8, :lo12:bkops_enabled]
.Ltmp126:
	.loc	1 148 6 is_stmt 0       // /mnt/ssddisk/jslave/ci/workspace/chipset_WLZ_4g_release/opensource/component_code/vendor/huawei/extra/build/build_script/kirin_kernel_release/kernel/block/hisi-bkops-core.c:148:6
	tbnz	w8, #0, .LBB3_12
.Ltmp127:
// %bb.11:
	//DEBUG_VALUE: bkops_io_busy_idle_notify_handler:bkops <- $x21
	.loc	1 151 15 is_stmt 1      // /mnt/ssddisk/jslave/ci/workspace/chipset_WLZ_4g_release/opensource/component_code/vendor/huawei/extra/build/build_script/kirin_kernel_release/kernel/block/hisi-bkops-core.c:151:15
	ldp	x8, x0, [x21, #8]
	.loc	1 151 8 is_stmt 0       // /mnt/ssddisk/jslave/ci/workspace/chipset_WLZ_4g_release/opensource/component_code/vendor/huawei/extra/build/build_script/kirin_kernel_release/kernel/block/hisi-bkops-core.c:151:8
	mov	w1, wzr
	.loc	1 151 26                // /mnt/ssddisk/jslave/ci/workspace/chipset_WLZ_4g_release/opensource/component_code/vendor/huawei/extra/build/build_script/kirin_kernel_release/kernel/block/hisi-bkops-core.c:151:26
	ldr	x8, [x8]
	.loc	1 151 8                 // /mnt/ssddisk/jslave/ci/workspace/chipset_WLZ_4g_release/opensource/component_code/vendor/huawei/extra/build/build_script/kirin_kernel_release/kernel/block/hisi-bkops-core.c:151:8
	blr	x8
.Ltmp128:
	//DEBUG_VALUE: hisi_bkops_stop:ret <- undef
	.loc	1 152 42 is_stmt 1      // /mnt/ssddisk/jslave/ci/workspace/chipset_WLZ_4g_release/opensource/component_code/vendor/huawei/extra/build/build_script/kirin_kernel_release/kernel/block/hisi-bkops-core.c:152:42
	ldr	w8, [x21, #268]
	add	w8, w8, #1              // =1
	str	w8, [x21, #268]
.Ltmp129:
.LBB3_12:
	//DEBUG_VALUE: bkops_io_busy_idle_notify_handler:bkops <- $x21
	.loc	1 155 2                 // /mnt/ssddisk/jslave/ci/workspace/chipset_WLZ_4g_release/opensource/component_code/vendor/huawei/extra/build/build_script/kirin_kernel_release/kernel/block/hisi-bkops-core.c:155:2
	adrp	x0, bkops_lock
	add	x0, x0, :lo12:bkops_lock
	bl	mutex_unlock
.Ltmp130:
	.loc	1 283 4                 // /mnt/ssddisk/jslave/ci/workspace/chipset_WLZ_4g_release/opensource/component_code/vendor/huawei/extra/build/build_script/kirin_kernel_release/kernel/block/hisi-bkops-core.c:283:4
	mov	w0, wzr
	mov	x1, x19
	bl	clear_bit
.Ltmp131:
.LBB3_13:
	//DEBUG_VALUE: bkops_io_busy_idle_notify_handler:bkops <- $x21
	.loc	1 0 0 is_stmt 0         // /mnt/ssddisk/jslave/ci/workspace/chipset_WLZ_4g_release/opensource/component_code/vendor/huawei/extra/build/build_script/kirin_kernel_release/kernel/block/hisi-bkops-core.c:0:0
	mov	w0, wzr
	b	.LBB3_27
.Ltmp132:
.LBB3_14:
	//DEBUG_VALUE: bkops_io_busy_idle_notify_handler:bkops <- $x21
	//DEBUG_VALUE: bkops_io_busy_idle_notify_handler:state <- $w1
	//DEBUG_VALUE: bkops_io_busy_idle_notify_handler:event_node <- $x0
	.loc	1 187 52 is_stmt 1      // /mnt/ssddisk/jslave/ci/workspace/chipset_WLZ_4g_release/opensource/component_code/vendor/huawei/extra/build/build_script/kirin_kernel_release/kernel/block/hisi-bkops-core.c:187:52
	ldr	x0, [x21, #24]
.Ltmp133:
	.loc	1 187 28 is_stmt 0      // /mnt/ssddisk/jslave/ci/workspace/chipset_WLZ_4g_release/opensource/component_code/vendor/huawei/extra/build/build_script/kirin_kernel_release/kernel/block/hisi-bkops-core.c:187:28
	bl	hisi_blk_get_lld
.Ltmp134:
	.loc	1 190 13 is_stmt 1      // /mnt/ssddisk/jslave/ci/workspace/chipset_WLZ_4g_release/opensource/component_code/vendor/huawei/extra/build/build_script/kirin_kernel_release/kernel/block/hisi-bkops-core.c:190:13
	ldr	x8, [x21, #128]
.Ltmp135:
	.loc	1 187 28                // /mnt/ssddisk/jslave/ci/workspace/chipset_WLZ_4g_release/opensource/component_code/vendor/huawei/extra/build/build_script/kirin_kernel_release/kernel/block/hisi-bkops-core.c:187:28
	mov	x20, x0
.Ltmp136:
	//DEBUG_VALUE: bkops_strategy:lld <- $x20
	.loc	1 190 6                 // /mnt/ssddisk/jslave/ci/workspace/chipset_WLZ_4g_release/opensource/component_code/vendor/huawei/extra/build/build_script/kirin_kernel_release/kernel/block/hisi-bkops-core.c:190:6
	tbz	w8, #3, .LBB3_18
.Ltmp137:
// %bb.15:
	//DEBUG_VALUE: bkops_strategy:lld <- $x20
	//DEBUG_VALUE: bkops_io_busy_idle_notify_handler:bkops <- $x21
	//DEBUG_VALUE: bkops_strategy:tp <- [DW_OP_deref] undef
	//DEBUG_VALUE: get_monotonic_boottime:ts <- undef
	.loc	144 197 9               // /mnt/ssddisk/jslave/ci/workspace/chipset_WLZ_4g_release/opensource/component_code/vendor/huawei/extra/build/build_script/kirin_kernel_release/kernel/include/linux/timekeeping.h:197:9
	orr	w0, wzr, #0x1
	bl	ktime_get_with_offset
.Ltmp138:
	.loc	144 250 8               // /mnt/ssddisk/jslave/ci/workspace/chipset_WLZ_4g_release/opensource/component_code/vendor/huawei/extra/build/build_script/kirin_kernel_release/kernel/include/linux/timekeeping.h:250:8
	bl	ns_to_timespec
.Ltmp139:
	.loc	1 192 7                 // /mnt/ssddisk/jslave/ci/workspace/chipset_WLZ_4g_release/opensource/component_code/vendor/huawei/extra/build/build_script/kirin_kernel_release/kernel/block/hisi-bkops-core.c:192:7
	ldr	x8, [x21, #216]
	.loc	1 192 47 is_stmt 0      // /mnt/ssddisk/jslave/ci/workspace/chipset_WLZ_4g_release/opensource/component_code/vendor/huawei/extra/build/build_script/kirin_kernel_release/kernel/block/hisi-bkops-core.c:192:47
	cbz	x8, .LBB3_28
.Ltmp140:
// %bb.16:
	//DEBUG_VALUE: bkops_strategy:lld <- $x20
	//DEBUG_VALUE: bkops_io_busy_idle_notify_handler:bkops <- $x21
	.loc	1 193 4 is_stmt 1       // /mnt/ssddisk/jslave/ci/workspace/chipset_WLZ_4g_release/opensource/component_code/vendor/huawei/extra/build/build_script/kirin_kernel_release/kernel/block/hisi-bkops-core.c:193:4
	ldr	x9, [x21, #208]
	sub	x8, x0, x8
.Ltmp141:
	.loc	1 192 7                 // /mnt/ssddisk/jslave/ci/workspace/chipset_WLZ_4g_release/opensource/component_code/vendor/huawei/extra/build/build_script/kirin_kernel_release/kernel/block/hisi-bkops-core.c:192:7
	cmp	x8, x9
	b.hs	.LBB3_28
.Ltmp142:
// %bb.17:
	//DEBUG_VALUE: bkops_strategy:lld <- $x20
	//DEBUG_VALUE: bkops_io_busy_idle_notify_handler:bkops <- $x21
	.loc	1 201 13                // /mnt/ssddisk/jslave/ci/workspace/chipset_WLZ_4g_release/opensource/component_code/vendor/huawei/extra/build/build_script/kirin_kernel_release/kernel/block/hisi-bkops-core.c:201:13
	ldr	x8, [x19]
.Ltmp143:
.LBB3_18:
	//DEBUG_VALUE: bkops_strategy:lld <- $x20
	//DEBUG_VALUE: bkops_io_busy_idle_notify_handler:bkops <- $x21
	.loc	1 201 60 is_stmt 0      // /mnt/ssddisk/jslave/ci/workspace/chipset_WLZ_4g_release/opensource/component_code/vendor/huawei/extra/build/build_script/kirin_kernel_release/kernel/block/hisi-bkops-core.c:201:60
	tbz	w8, #5, .LBB3_20
.Ltmp144:
// %bb.19:
	//DEBUG_VALUE: bkops_strategy:lld <- $x20
	//DEBUG_VALUE: bkops_io_busy_idle_notify_handler:bkops <- $x21
	.loc	1 202 8 is_stmt 1       // /mnt/ssddisk/jslave/ci/workspace/chipset_WLZ_4g_release/opensource/component_code/vendor/huawei/extra/build/build_script/kirin_kernel_release/kernel/block/hisi-bkops-core.c:202:8
	ldr	x9, [x20, #904]
	.loc	1 202 29 is_stmt 0      // /mnt/ssddisk/jslave/ci/workspace/chipset_WLZ_4g_release/opensource/component_code/vendor/huawei/extra/build/build_script/kirin_kernel_release/kernel/block/hisi-bkops-core.c:202:29
	ldp	x11, x10, [x21, #224]
	.loc	1 202 20                // /mnt/ssddisk/jslave/ci/workspace/chipset_WLZ_4g_release/opensource/component_code/vendor/huawei/extra/build/build_script/kirin_kernel_release/kernel/block/hisi-bkops-core.c:202:20
	sub	x10, x9, x10
.Ltmp145:
	.loc	1 201 6 is_stmt 1       // /mnt/ssddisk/jslave/ci/workspace/chipset_WLZ_4g_release/opensource/component_code/vendor/huawei/extra/build/build_script/kirin_kernel_release/kernel/block/hisi-bkops-core.c:201:6
	cmp	x10, x11
	b.hs	.LBB3_24
.Ltmp146:
.LBB3_20:
	//DEBUG_VALUE: bkops_strategy:lld <- $x20
	//DEBUG_VALUE: bkops_io_busy_idle_notify_handler:bkops <- $x21
	.loc	1 209 58                // /mnt/ssddisk/jslave/ci/workspace/chipset_WLZ_4g_release/opensource/component_code/vendor/huawei/extra/build/build_script/kirin_kernel_release/kernel/block/hisi-bkops-core.c:209:58
	tbz	w8, #4, .LBB3_22
.Ltmp147:
// %bb.21:
	//DEBUG_VALUE: bkops_strategy:lld <- $x20
	//DEBUG_VALUE: bkops_io_busy_idle_notify_handler:bkops <- $x21
	.loc	1 210 8                 // /mnt/ssddisk/jslave/ci/workspace/chipset_WLZ_4g_release/opensource/component_code/vendor/huawei/extra/build/build_script/kirin_kernel_release/kernel/block/hisi-bkops-core.c:210:8
	ldr	x9, [x20, #896]
	.loc	1 210 27 is_stmt 0      // /mnt/ssddisk/jslave/ci/workspace/chipset_WLZ_4g_release/opensource/component_code/vendor/huawei/extra/build/build_script/kirin_kernel_release/kernel/block/hisi-bkops-core.c:210:27
	ldp	x11, x10, [x21, #240]
	.loc	1 210 18                // /mnt/ssddisk/jslave/ci/workspace/chipset_WLZ_4g_release/opensource/component_code/vendor/huawei/extra/build/build_script/kirin_kernel_release/kernel/block/hisi-bkops-core.c:210:18
	sub	x10, x9, x10
.Ltmp148:
	.loc	1 209 6 is_stmt 1       // /mnt/ssddisk/jslave/ci/workspace/chipset_WLZ_4g_release/opensource/component_code/vendor/huawei/extra/build/build_script/kirin_kernel_release/kernel/block/hisi-bkops-core.c:209:6
	cmp	x10, x11
	b.hs	.LBB3_25
.Ltmp149:
.LBB3_22:
	//DEBUG_VALUE: bkops_io_busy_idle_notify_handler:bkops <- $x21
	.loc	1 241 6                 // /mnt/ssddisk/jslave/ci/workspace/chipset_WLZ_4g_release/opensource/component_code/vendor/huawei/extra/build/build_script/kirin_kernel_release/kernel/block/hisi-bkops-core.c:241:6
	adrp	x9, user_manual_gc
	ldrb	w9, [x9, :lo12:user_manual_gc]
.Ltmp150:
	.loc	1 238 6                 // /mnt/ssddisk/jslave/ci/workspace/chipset_WLZ_4g_release/opensource/component_code/vendor/huawei/extra/build/build_script/kirin_kernel_release/kernel/block/hisi-bkops-core.c:238:6
	cbnz	w9, .LBB3_26
.Ltmp151:
// %bb.23:
	//DEBUG_VALUE: bkops_io_busy_idle_notify_handler:bkops <- $x21
	.loc	1 247 20                // /mnt/ssddisk/jslave/ci/workspace/chipset_WLZ_4g_release/opensource/component_code/vendor/huawei/extra/build/build_script/kirin_kernel_release/kernel/block/hisi-bkops-core.c:247:20
	and	x8, x8, #0xfffffffffffffffd
.Ltmp152:
	.loc	1 0 0 is_stmt 0         // /mnt/ssddisk/jslave/ci/workspace/chipset_WLZ_4g_release/opensource/component_code/vendor/huawei/extra/build/build_script/kirin_kernel_release/kernel/block/hisi-bkops-core.c:0:0
	mov	w0, wzr
.Ltmp153:
	str	x8, [x19]
	b	.LBB3_27
.Ltmp154:
.LBB3_24:
	//DEBUG_VALUE: bkops_strategy:lld <- $x20
	//DEBUG_VALUE: bkops_io_busy_idle_notify_handler:bkops <- $x21
	.loc	1 205 47 is_stmt 1      // /mnt/ssddisk/jslave/ci/workspace/chipset_WLZ_4g_release/opensource/component_code/vendor/huawei/extra/build/build_script/kirin_kernel_release/kernel/block/hisi-bkops-core.c:205:47
	ldr	w10, [x21, #296]
	.loc	1 204 27                // /mnt/ssddisk/jslave/ci/workspace/chipset_WLZ_4g_release/opensource/component_code/vendor/huawei/extra/build/build_script/kirin_kernel_release/kernel/block/hisi-bkops-core.c:204:27
	str	x9, [x21, #232]
	.loc	1 205 47                // /mnt/ssddisk/jslave/ci/workspace/chipset_WLZ_4g_release/opensource/component_code/vendor/huawei/extra/build/build_script/kirin_kernel_release/kernel/block/hisi-bkops-core.c:205:47
	add	w9, w10, #1             // =1
	str	w9, [x21, #296]
	b	.LBB3_26
.Ltmp155:
.LBB3_25:
	//DEBUG_VALUE: bkops_strategy:lld <- $x20
	//DEBUG_VALUE: bkops_io_busy_idle_notify_handler:bkops <- $x21
	.loc	1 213 45                // /mnt/ssddisk/jslave/ci/workspace/chipset_WLZ_4g_release/opensource/component_code/vendor/huawei/extra/build/build_script/kirin_kernel_release/kernel/block/hisi-bkops-core.c:213:45
	ldr	w10, [x21, #292]
	.loc	1 212 25                // /mnt/ssddisk/jslave/ci/workspace/chipset_WLZ_4g_release/opensource/component_code/vendor/huawei/extra/build/build_script/kirin_kernel_release/kernel/block/hisi-bkops-core.c:212:25
	str	x9, [x21, #248]
	.loc	1 213 45                // /mnt/ssddisk/jslave/ci/workspace/chipset_WLZ_4g_release/opensource/component_code/vendor/huawei/extra/build/build_script/kirin_kernel_release/kernel/block/hisi-bkops-core.c:213:45
	add	w9, w10, #1             // =1
	str	w9, [x21, #292]
.Ltmp156:
.LBB3_26:
	//DEBUG_VALUE: bkops_io_busy_idle_notify_handler:bkops <- $x21
	.loc	1 251 20                // /mnt/ssddisk/jslave/ci/workspace/chipset_WLZ_4g_release/opensource/component_code/vendor/huawei/extra/build/build_script/kirin_kernel_release/kernel/block/hisi-bkops-core.c:251:20
	orr	x8, x8, #0x2
.Ltmp157:
	.loc	1 268 3                 // /mnt/ssddisk/jslave/ci/workspace/chipset_WLZ_4g_release/opensource/component_code/vendor/huawei/extra/build/build_script/kirin_kernel_release/kernel/block/hisi-bkops-core.c:268:3
	orr	w0, wzr, #0x2
	mov	x1, x19
.Ltmp158:
	.loc	1 0 0 is_stmt 0         // /mnt/ssddisk/jslave/ci/workspace/chipset_WLZ_4g_release/opensource/component_code/vendor/huawei/extra/build/build_script/kirin_kernel_release/kernel/block/hisi-bkops-core.c:0:0
	str	x8, [x21, #128]
.Ltmp159:
	.loc	1 268 3                 // /mnt/ssddisk/jslave/ci/workspace/chipset_WLZ_4g_release/opensource/component_code/vendor/huawei/extra/build/build_script/kirin_kernel_release/kernel/block/hisi-bkops-core.c:268:3
	bl	set_bit
	.loc	1 269 22 is_stmt 1      // /mnt/ssddisk/jslave/ci/workspace/chipset_WLZ_4g_release/opensource/component_code/vendor/huawei/extra/build/build_script/kirin_kernel_release/kernel/block/hisi-bkops-core.c:269:22
	adrp	x8, bkops_workqueue_g
	.loc	1 270 28                // /mnt/ssddisk/jslave/ci/workspace/chipset_WLZ_4g_release/opensource/component_code/vendor/huawei/extra/build/build_script/kirin_kernel_release/kernel/block/hisi-bkops-core.c:270:28
	ldr	w0, [x21, #136]
	.loc	1 269 22                // /mnt/ssddisk/jslave/ci/workspace/chipset_WLZ_4g_release/opensource/component_code/vendor/huawei/extra/build/build_script/kirin_kernel_release/kernel/block/hisi-bkops-core.c:269:22
	ldr	x19, [x8, :lo12:bkops_workqueue_g]
	.loc	1 269 49 is_stmt 0      // /mnt/ssddisk/jslave/ci/workspace/chipset_WLZ_4g_release/opensource/component_code/vendor/huawei/extra/build/build_script/kirin_kernel_release/kernel/block/hisi-bkops-core.c:269:49
	add	x20, x21, #32           // =32
.Ltmp160:
	//DEBUG_VALUE: msecs_to_jiffies:m <- $w0
	.file	147 "/mnt/ssddisk/jslave/ci/workspace/chipset_WLZ_4g_release/opensource/component_code/vendor/huawei/extra/build/build_script/kirin_kernel_release/kernel/include/linux/jiffies.h"
	.loc	147 370 10 is_stmt 1    // /mnt/ssddisk/jslave/ci/workspace/chipset_WLZ_4g_release/opensource/component_code/vendor/huawei/extra/build/build_script/kirin_kernel_release/kernel/include/linux/jiffies.h:370:10
	bl	__msecs_to_jiffies
.Ltmp161:
	mov	x3, x0
.Ltmp162:
	//DEBUG_VALUE: queue_delayed_work:delay <- $x3
	//DEBUG_VALUE: queue_delayed_work:dwork <- $x20
	//DEBUG_VALUE: queue_delayed_work:wq <- $x19
	.loc	52 506 9                // /mnt/ssddisk/jslave/ci/workspace/chipset_WLZ_4g_release/opensource/component_code/vendor/huawei/extra/build/build_script/kirin_kernel_release/kernel/include/linux/workqueue.h:506:9
	orr	w0, wzr, #0x8
	mov	x1, x19
	mov	x2, x20
	bl	queue_delayed_work_on
.Ltmp163:
	.loc	52 0 9 is_stmt 0        // /mnt/ssddisk/jslave/ci/workspace/chipset_WLZ_4g_release/opensource/component_code/vendor/huawei/extra/build/build_script/kirin_kernel_release/kernel/include/linux/workqueue.h:0:9
	orr	w0, wzr, #0x1
.Ltmp164:
	//DEBUG_VALUE: bkops_io_busy_idle_notify_handler:ret <- 1
.LBB3_27:
	//DEBUG_VALUE: bkops_io_busy_idle_notify_handler:bkops <- $x21
	//DEBUG_VALUE: bkops_io_busy_idle_notify_handler:ret <- undef
	.loc	1 289 2 is_stmt 1       // /mnt/ssddisk/jslave/ci/workspace/chipset_WLZ_4g_release/opensource/component_code/vendor/huawei/extra/build/build_script/kirin_kernel_release/kernel/block/hisi-bkops-core.c:289:2
	ldp	x29, x30, [sp, #32]     // 16-byte Folded Reload
	ldp	x20, x19, [sp, #16]     // 16-byte Folded Reload
	ldr	x21, [sp], #48          // 8-byte Folded Reload
.Ltmp165:
	ret
.LBB3_28:
.Ltmp166:
	//DEBUG_VALUE: bkops_strategy:lld <- $x20
	//DEBUG_VALUE: bkops_io_busy_idle_notify_handler:bkops <- $x21
	.loc	1 196 45                // /mnt/ssddisk/jslave/ci/workspace/chipset_WLZ_4g_release/opensource/component_code/vendor/huawei/extra/build/build_script/kirin_kernel_release/kernel/block/hisi-bkops-core.c:196:45
	ldr	w9, [x21, #288]
.Ltmp167:
	.loc	1 251 20                // /mnt/ssddisk/jslave/ci/workspace/chipset_WLZ_4g_release/opensource/component_code/vendor/huawei/extra/build/build_script/kirin_kernel_release/kernel/block/hisi-bkops-core.c:251:20
	ldr	x8, [x21, #128]
.Ltmp168:
	.loc	1 195 33                // /mnt/ssddisk/jslave/ci/workspace/chipset_WLZ_4g_release/opensource/component_code/vendor/huawei/extra/build/build_script/kirin_kernel_release/kernel/block/hisi-bkops-core.c:195:33
	str	x0, [x21, #216]
	.loc	1 196 45                // /mnt/ssddisk/jslave/ci/workspace/chipset_WLZ_4g_release/opensource/component_code/vendor/huawei/extra/build/build_script/kirin_kernel_release/kernel/block/hisi-bkops-core.c:196:45
	add	w9, w9, #1              // =1
	str	w9, [x21, #288]
	b	.LBB3_26
.Ltmp169:
.Lfunc_end3:
	.size	bkops_io_busy_idle_notify_handler, .Lfunc_end3-bkops_io_busy_idle_notify_handler
	.cfi_endproc
                                        // -- End function
	.section	.text.hisi_bkops_set_status_info,"ax",@progbits
	.hidden	hisi_bkops_set_status_info // -- Begin function hisi_bkops_set_status_info
	.globl	hisi_bkops_set_status_info
	.p2align	2
	.type	hisi_bkops_set_status_info,@function
hisi_bkops_set_status_info:             // @hisi_bkops_set_status_info
.Lfunc_begin4:
	.loc	1 294 0                 // /mnt/ssddisk/jslave/ci/workspace/chipset_WLZ_4g_release/opensource/component_code/vendor/huawei/extra/build/build_script/kirin_kernel_release/kernel/block/hisi-bkops-core.c:294:0
	.cfi_startproc
// %bb.0:
	//DEBUG_VALUE: hisi_bkops_set_status_info:bkops <- $x0
	//DEBUG_VALUE: hisi_bkops_set_status_info:bkops_status_max <- $w1
	//DEBUG_VALUE: hisi_bkops_set_status_info:bkops_status_max <- $w1
	//DEBUG_VALUE: hisi_bkops_set_status_info:bkops_status_str <- $x2
	//DEBUG_VALUE: hisi_bkops_set_status_info:bkops_status_str <- $x2
	.loc	1 295 6 prologue_end    // /mnt/ssddisk/jslave/ci/workspace/chipset_WLZ_4g_release/opensource/component_code/vendor/huawei/extra/build/build_script/kirin_kernel_release/kernel/block/hisi-bkops-core.c:295:6
	cmp	w1, #11                 // =11
	b.lo	.LBB4_2
.Ltmp170:
// %bb.1:
	//DEBUG_VALUE: hisi_bkops_set_status_info:bkops_status_str <- $x2
	//DEBUG_VALUE: hisi_bkops_set_status_info:bkops_status_max <- $w1
	//DEBUG_VALUE: hisi_bkops_set_status_info:bkops <- $x0
	stp	x29, x30, [sp, #-16]!   // 16-byte Folded Spill
	mov	x29, sp
	.cfi_def_cfa w29, 16
	.cfi_offset w30, -8
	.cfi_offset w29, -16
.Ltmp171:
	.loc	1 296 3                 // /mnt/ssddisk/jslave/ci/workspace/chipset_WLZ_4g_release/opensource/component_code/vendor/huawei/extra/build/build_script/kirin_kernel_release/kernel/block/hisi-bkops-core.c:296:3
	adrp	x0, .L.str.2
.Ltmp172:
	add	x0, x0, :lo12:.L.str.2
	bl	printk
.Ltmp173:
	.loc	1 0 3 is_stmt 0         // /mnt/ssddisk/jslave/ci/workspace/chipset_WLZ_4g_release/opensource/component_code/vendor/huawei/extra/build/build_script/kirin_kernel_release/kernel/block/hisi-bkops-core.c:0:3
	mov	w0, #-1
	.loc	1 297 3 is_stmt 1       // /mnt/ssddisk/jslave/ci/workspace/chipset_WLZ_4g_release/opensource/component_code/vendor/huawei/extra/build/build_script/kirin_kernel_release/kernel/block/hisi-bkops-core.c:297:3
	ldp	x29, x30, [sp], #16     // 16-byte Folded Reload
.Ltmp174:
	.loc	1 302 1                 // /mnt/ssddisk/jslave/ci/workspace/chipset_WLZ_4g_release/opensource/component_code/vendor/huawei/extra/build/build_script/kirin_kernel_release/kernel/block/hisi-bkops-core.c:302:1
	ret
.LBB4_2:
.Ltmp175:
	//DEBUG_VALUE: hisi_bkops_set_status_info:bkops_status_str <- $x2
	//DEBUG_VALUE: hisi_bkops_set_status_info:bkops_status_max <- $w1
	//DEBUG_VALUE: hisi_bkops_set_status_info:bkops <- $x0
	.loc	1 0 1 is_stmt 0         // /mnt/ssddisk/jslave/ci/workspace/chipset_WLZ_4g_release/opensource/component_code/vendor/huawei/extra/build/build_script/kirin_kernel_release/kernel/block/hisi-bkops-core.c:0:1
	mov	x8, x0
.Ltmp176:
	//DEBUG_VALUE: hisi_bkops_set_status_info:bkops <- $x8
	mov	w0, wzr
	.loc	1 299 38 is_stmt 1      // /mnt/ssddisk/jslave/ci/workspace/chipset_WLZ_4g_release/opensource/component_code/vendor/huawei/extra/build/build_script/kirin_kernel_release/kernel/block/hisi-bkops-core.c:299:38
	str	w1, [x8, #448]
	.loc	1 300 38                // /mnt/ssddisk/jslave/ci/workspace/chipset_WLZ_4g_release/opensource/component_code/vendor/huawei/extra/build/build_script/kirin_kernel_release/kernel/block/hisi-bkops-core.c:300:38
	str	x2, [x8, #456]
	.loc	1 302 1                 // /mnt/ssddisk/jslave/ci/workspace/chipset_WLZ_4g_release/opensource/component_code/vendor/huawei/extra/build/build_script/kirin_kernel_release/kernel/block/hisi-bkops-core.c:302:1
	ret
.Ltmp177:
.Lfunc_end4:
	.size	hisi_bkops_set_status_info, .Lfunc_end4-hisi_bkops_set_status_info
	.cfi_endproc
                                        // -- End function
	.section	.text.bkops_pm_callback,"ax",@progbits
	.hidden	bkops_pm_callback       // -- Begin function bkops_pm_callback
	.globl	bkops_pm_callback
	.p2align	2
	.type	bkops_pm_callback,@function
bkops_pm_callback:                      // @bkops_pm_callback
.Lfunc_begin5:
	.loc	1 320 0                 // /mnt/ssddisk/jslave/ci/workspace/chipset_WLZ_4g_release/opensource/component_code/vendor/huawei/extra/build/build_script/kirin_kernel_release/kernel/block/hisi-bkops-core.c:320:0
	.cfi_startproc
// %bb.0:
	stp	x20, x19, [sp, #-32]!   // 16-byte Folded Spill
	stp	x29, x30, [sp, #16]     // 16-byte Folded Spill
	add	x29, sp, #16            // =16
	.cfi_def_cfa w29, 16
	.cfi_offset w30, -8
	.cfi_offset w29, -16
	.cfi_offset w19, -24
	.cfi_offset w20, -32
	//DEBUG_VALUE: bkops_pm_callback:nb <- $x0
	//DEBUG_VALUE: bkops_pm_callback:action <- $x1
	//DEBUG_VALUE: bkops_pm_callback:action <- $x1
	//DEBUG_VALUE: bkops_pm_callback:ptr <- $x2
.Ltmp178:
	.loc	1 321 2 prologue_end    // /mnt/ssddisk/jslave/ci/workspace/chipset_WLZ_4g_release/opensource/component_code/vendor/huawei/extra/build/build_script/kirin_kernel_release/kernel/block/hisi-bkops-core.c:321:2
	sub	x8, x1, #1              // =1
	cmp	x8, #3                  // =3
	b.hi	.LBB5_4
.Ltmp179:
// %bb.1:
	//DEBUG_VALUE: bkops_pm_callback:ptr <- $x2
	//DEBUG_VALUE: bkops_pm_callback:action <- $x1
	//DEBUG_VALUE: bkops_pm_callback:nb <- $x0
	.loc	1 0 2 is_stmt 0         // /mnt/ssddisk/jslave/ci/workspace/chipset_WLZ_4g_release/opensource/component_code/vendor/huawei/extra/build/build_script/kirin_kernel_release/kernel/block/hisi-bkops-core.c:0:2
	adrp	x9, .LJTI5_0
	add	x9, x9, :lo12:.LJTI5_0
	adr	x10, .LBB5_2
	ldrb	w11, [x9, x8]
	add	x10, x10, x11, lsl #2
	br	x10
.Ltmp180:
.LBB5_2:
	//DEBUG_VALUE: bkops_pm_callback:ptr <- $x2
	//DEBUG_VALUE: bkops_pm_callback:action <- $x1
	//DEBUG_VALUE: bkops_pm_callback:nb <- $x0
	.loc	1 306 2 is_stmt 1       // /mnt/ssddisk/jslave/ci/workspace/chipset_WLZ_4g_release/opensource/component_code/vendor/huawei/extra/build/build_script/kirin_kernel_release/kernel/block/hisi-bkops-core.c:306:2
	adrp	x20, bkops_lock
	add	x20, x20, :lo12:bkops_lock
	mov	x0, x20
.Ltmp181:
	bl	mutex_lock
.Ltmp182:
	.loc	1 307 16                // /mnt/ssddisk/jslave/ci/workspace/chipset_WLZ_4g_release/opensource/component_code/vendor/huawei/extra/build/build_script/kirin_kernel_release/kernel/block/hisi-bkops-core.c:307:16
	adrp	x8, bkops_enabled
	orr	w19, wzr, #0x1
	.loc	1 308 2                 // /mnt/ssddisk/jslave/ci/workspace/chipset_WLZ_4g_release/opensource/component_code/vendor/huawei/extra/build/build_script/kirin_kernel_release/kernel/block/hisi-bkops-core.c:308:2
	mov	x0, x20
	.loc	1 307 16                // /mnt/ssddisk/jslave/ci/workspace/chipset_WLZ_4g_release/opensource/component_code/vendor/huawei/extra/build/build_script/kirin_kernel_release/kernel/block/hisi-bkops-core.c:307:16
	strb	w19, [x8, :lo12:bkops_enabled]
	.loc	1 308 2                 // /mnt/ssddisk/jslave/ci/workspace/chipset_WLZ_4g_release/opensource/component_code/vendor/huawei/extra/build/build_script/kirin_kernel_release/kernel/block/hisi-bkops-core.c:308:2
	bl	mutex_unlock
	b	.LBB5_5
.Ltmp183:
.LBB5_3:
	//DEBUG_VALUE: bkops_pm_callback:ptr <- $x2
	//DEBUG_VALUE: bkops_pm_callback:action <- $x1
	//DEBUG_VALUE: bkops_pm_callback:nb <- $x0
	.loc	1 313 2                 // /mnt/ssddisk/jslave/ci/workspace/chipset_WLZ_4g_release/opensource/component_code/vendor/huawei/extra/build/build_script/kirin_kernel_release/kernel/block/hisi-bkops-core.c:313:2
	adrp	x19, bkops_lock
	add	x19, x19, :lo12:bkops_lock
	mov	x0, x19
.Ltmp184:
	bl	mutex_lock
.Ltmp185:
	.loc	1 314 16                // /mnt/ssddisk/jslave/ci/workspace/chipset_WLZ_4g_release/opensource/component_code/vendor/huawei/extra/build/build_script/kirin_kernel_release/kernel/block/hisi-bkops-core.c:314:16
	adrp	x8, bkops_enabled
	.loc	1 315 2                 // /mnt/ssddisk/jslave/ci/workspace/chipset_WLZ_4g_release/opensource/component_code/vendor/huawei/extra/build/build_script/kirin_kernel_release/kernel/block/hisi-bkops-core.c:315:2
	mov	x0, x19
	.loc	1 314 16                // /mnt/ssddisk/jslave/ci/workspace/chipset_WLZ_4g_release/opensource/component_code/vendor/huawei/extra/build/build_script/kirin_kernel_release/kernel/block/hisi-bkops-core.c:314:16
	strb	wzr, [x8, :lo12:bkops_enabled]
	.loc	1 315 2                 // /mnt/ssddisk/jslave/ci/workspace/chipset_WLZ_4g_release/opensource/component_code/vendor/huawei/extra/build/build_script/kirin_kernel_release/kernel/block/hisi-bkops-core.c:315:2
	bl	mutex_unlock
	orr	w19, wzr, #0x1
	b	.LBB5_5
.Ltmp186:
.LBB5_4:
	//DEBUG_VALUE: bkops_pm_callback:ptr <- $x2
	//DEBUG_VALUE: bkops_pm_callback:action <- $x1
	//DEBUG_VALUE: bkops_pm_callback:nb <- $x0
	.loc	1 0 0 is_stmt 0         // /mnt/ssddisk/jslave/ci/workspace/chipset_WLZ_4g_release/opensource/component_code/vendor/huawei/extra/build/build_script/kirin_kernel_release/kernel/block/hisi-bkops-core.c:0:0
	mov	w19, wzr
.Ltmp187:
.LBB5_5:
	.loc	1 337 1 is_stmt 1       // /mnt/ssddisk/jslave/ci/workspace/chipset_WLZ_4g_release/opensource/component_code/vendor/huawei/extra/build/build_script/kirin_kernel_release/kernel/block/hisi-bkops-core.c:337:1
	ldp	x29, x30, [sp, #16]     // 16-byte Folded Reload
	mov	w0, w19
	ldp	x20, x19, [sp], #32     // 16-byte Folded Reload
	ret
.Ltmp188:
.Lfunc_end5:
	.size	bkops_pm_callback, .Lfunc_end5-bkops_pm_callback
	.cfi_endproc
	.section	.rodata.bkops_pm_callback,"a",@progbits
.LJTI5_0:
	.byte	(.LBB5_2-.LBB5_2)>>2
	.byte	(.LBB5_3-.LBB5_2)>>2
	.byte	(.LBB5_2-.LBB5_2)>>2
	.byte	(.LBB5_3-.LBB5_2)>>2
                                        // -- End function
	.section	.text.bkops_notify_reboot,"ax",@progbits
	.hidden	bkops_notify_reboot     // -- Begin function bkops_notify_reboot
	.globl	bkops_notify_reboot
	.p2align	2
	.type	bkops_notify_reboot,@function
bkops_notify_reboot:                    // @bkops_notify_reboot
.Lfunc_begin6:
	.loc	1 341 0                 // /mnt/ssddisk/jslave/ci/workspace/chipset_WLZ_4g_release/opensource/component_code/vendor/huawei/extra/build/build_script/kirin_kernel_release/kernel/block/hisi-bkops-core.c:341:0
	.cfi_startproc
// %bb.0:
	str	x19, [sp, #-32]!        // 8-byte Folded Spill
	stp	x29, x30, [sp, #16]     // 16-byte Folded Spill
	add	x29, sp, #16            // =16
	.cfi_def_cfa w29, 16
	.cfi_offset w30, -8
	.cfi_offset w29, -16
	.cfi_offset w19, -32
	//DEBUG_VALUE: bkops_notify_reboot:this <- $x0
	//DEBUG_VALUE: bkops_notify_reboot:code <- $x1
	//DEBUG_VALUE: bkops_notify_reboot:x <- $x2
.Ltmp189:
	.loc	1 306 2 prologue_end    // /mnt/ssddisk/jslave/ci/workspace/chipset_WLZ_4g_release/opensource/component_code/vendor/huawei/extra/build/build_script/kirin_kernel_release/kernel/block/hisi-bkops-core.c:306:2
	adrp	x19, bkops_lock
	add	x19, x19, :lo12:bkops_lock
	mov	x0, x19
.Ltmp190:
	bl	mutex_lock
.Ltmp191:
	.loc	1 307 16                // /mnt/ssddisk/jslave/ci/workspace/chipset_WLZ_4g_release/opensource/component_code/vendor/huawei/extra/build/build_script/kirin_kernel_release/kernel/block/hisi-bkops-core.c:307:16
	adrp	x8, bkops_enabled
	orr	w9, wzr, #0x1
	.loc	1 308 2                 // /mnt/ssddisk/jslave/ci/workspace/chipset_WLZ_4g_release/opensource/component_code/vendor/huawei/extra/build/build_script/kirin_kernel_release/kernel/block/hisi-bkops-core.c:308:2
	mov	x0, x19
	.loc	1 307 16                // /mnt/ssddisk/jslave/ci/workspace/chipset_WLZ_4g_release/opensource/component_code/vendor/huawei/extra/build/build_script/kirin_kernel_release/kernel/block/hisi-bkops-core.c:307:16
	strb	w9, [x8, :lo12:bkops_enabled]
	.loc	1 308 2                 // /mnt/ssddisk/jslave/ci/workspace/chipset_WLZ_4g_release/opensource/component_code/vendor/huawei/extra/build/build_script/kirin_kernel_release/kernel/block/hisi-bkops-core.c:308:2
	bl	mutex_unlock
.Ltmp192:
	.loc	1 343 2                 // /mnt/ssddisk/jslave/ci/workspace/chipset_WLZ_4g_release/opensource/component_code/vendor/huawei/extra/build/build_script/kirin_kernel_release/kernel/block/hisi-bkops-core.c:343:2
	ldp	x29, x30, [sp, #16]     // 16-byte Folded Reload
	mov	w0, wzr
	ldr	x19, [sp], #32          // 8-byte Folded Reload
	ret
.Ltmp193:
.Lfunc_end6:
	.size	bkops_notify_reboot, .Lfunc_end6-bkops_notify_reboot
	.cfi_endproc
                                        // -- End function
	.section	.text.hisi_bkops_alloc,"ax",@progbits
	.hidden	hisi_bkops_alloc        // -- Begin function hisi_bkops_alloc
	.globl	hisi_bkops_alloc
	.p2align	2
	.type	hisi_bkops_alloc,@function
hisi_bkops_alloc:                       // @hisi_bkops_alloc
.Lfunc_begin7:
	.loc	1 367 0                 // /mnt/ssddisk/jslave/ci/workspace/chipset_WLZ_4g_release/opensource/component_code/vendor/huawei/extra/build/build_script/kirin_kernel_release/kernel/block/hisi-bkops-core.c:367:0
	.cfi_startproc
// %bb.0:
	stp	x20, x19, [sp, #-32]!   // 16-byte Folded Spill
	stp	x29, x30, [sp, #16]     // 16-byte Folded Spill
	add	x29, sp, #16            // =16
	.cfi_def_cfa w29, 16
	.cfi_offset w30, -8
	.cfi_offset w29, -16
	.cfi_offset w19, -24
	.cfi_offset w20, -32
.Ltmp194:
	//DEBUG_VALUE: kzalloc:size <- 464
	//DEBUG_VALUE: kzalloc:flags <- 20971712
	//DEBUG_VALUE: kmalloc:size <- 464
	//DEBUG_VALUE: kmalloc:flags <- 21004480
	.file	148 "/mnt/ssddisk/jslave/ci/workspace/chipset_WLZ_4g_release/opensource/component_code/vendor/huawei/extra/build/build_script/kirin_kernel_release/kernel/include/linux/slab.h"
	.loc	148 520 9 prologue_end  // /mnt/ssddisk/jslave/ci/workspace/chipset_WLZ_4g_release/opensource/component_code/vendor/huawei/extra/build/build_script/kirin_kernel_release/kernel/include/linux/slab.h:520:9
	mov	w1, #32960
	mov	w0, #464
	movk	w1, #320, lsl #16
	bl	__kmalloc
	mov	x19, x0
.Ltmp195:
	.loc	1 371 6                 // /mnt/ssddisk/jslave/ci/workspace/chipset_WLZ_4g_release/opensource/component_code/vendor/huawei/extra/build/build_script/kirin_kernel_release/kernel/block/hisi-bkops-core.c:371:6
	cbz	x0, .LBB7_2
// %bb.1:
.Ltmp196:
	//DEBUG_VALUE: hisi_bkops_alloc:bkops <- $x19
	.loc	1 376 2                 // /mnt/ssddisk/jslave/ci/workspace/chipset_WLZ_4g_release/opensource/component_code/vendor/huawei/extra/build/build_script/kirin_kernel_release/kernel/block/hisi-bkops-core.c:376:2
	adrp	x10, __ufs_bkops_idle_work_func
	mov	x8, #68719476704
	mov	x20, x19
	add	x9, x19, #40            // =40
.Ltmp197:
	//DEBUG_VALUE: __write_once_size:res <- undef
	add	x10, x10, :lo12:__ufs_bkops_idle_work_func
.Ltmp198:
	.loc	1 376 2 is_stmt 0       // /mnt/ssddisk/jslave/ci/workspace/chipset_WLZ_4g_release/opensource/component_code/vendor/huawei/extra/build/build_script/kirin_kernel_release/kernel/block/hisi-bkops-core.c:376:2
	add	x0, x19, #64            // =64
	orr	w1, wzr, #0x200000
	mov	x2, xzr
	mov	x3, xzr
.Ltmp199:
	.loc	1 376 2                 // /mnt/ssddisk/jslave/ci/workspace/chipset_WLZ_4g_release/opensource/component_code/vendor/huawei/extra/build/build_script/kirin_kernel_release/kernel/block/hisi-bkops-core.c:376:2
	str	x8, [x20, #32]!
.Ltmp200:
	//DEBUG_VALUE: __write_once_size:p <- $x9
	//DEBUG_VALUE: __write_once_size:size <- 8
	//DEBUG_VALUE: INIT_LIST_HEAD:list <- $x9
	.file	149 "/mnt/ssddisk/jslave/ci/workspace/chipset_WLZ_4g_release/opensource/component_code/vendor/huawei/extra/build/build_script/kirin_kernel_release/kernel/include/linux/compiler.h"
	.loc	149 213 31 is_stmt 1    // /mnt/ssddisk/jslave/ci/workspace/chipset_WLZ_4g_release/opensource/component_code/vendor/huawei/extra/build/build_script/kirin_kernel_release/kernel/include/linux/compiler.h:213:31
	str	x9, [x19, #40]
.Ltmp201:
	.file	150 "/mnt/ssddisk/jslave/ci/workspace/chipset_WLZ_4g_release/opensource/component_code/vendor/huawei/extra/build/build_script/kirin_kernel_release/kernel/include/linux/list.h"
	.loc	150 29 13               // /mnt/ssddisk/jslave/ci/workspace/chipset_WLZ_4g_release/opensource/component_code/vendor/huawei/extra/build/build_script/kirin_kernel_release/kernel/include/linux/list.h:29:13
	stp	x9, x10, [x19, #48]
.Ltmp202:
	.loc	1 376 2                 // /mnt/ssddisk/jslave/ci/workspace/chipset_WLZ_4g_release/opensource/component_code/vendor/huawei/extra/build/build_script/kirin_kernel_release/kernel/block/hisi-bkops-core.c:376:2
	bl	init_timer_key
.Ltmp203:
	adrp	x8, delayed_work_timer_fn
	add	x8, x8, :lo12:delayed_work_timer_fn
	mov	w9, #1000
	mov	w10, #3600
	orr	w11, wzr, #0x20000000
	stp	x8, x20, [x19, #88]
.Ltmp204:
	.loc	1 377 29                // /mnt/ssddisk/jslave/ci/workspace/chipset_WLZ_4g_release/opensource/component_code/vendor/huawei/extra/build/build_script/kirin_kernel_release/kernel/block/hisi-bkops-core.c:377:29
	str	x9, [x19, #136]
	.loc	1 378 30                // /mnt/ssddisk/jslave/ci/workspace/chipset_WLZ_4g_release/opensource/component_code/vendor/huawei/extra/build/build_script/kirin_kernel_release/kernel/block/hisi-bkops-core.c:378:30
	str	x10, [x19, #208]
	.loc	1 379 33                // /mnt/ssddisk/jslave/ci/workspace/chipset_WLZ_4g_release/opensource/component_code/vendor/huawei/extra/build/build_script/kirin_kernel_release/kernel/block/hisi-bkops-core.c:379:33
	str	x11, [x19, #224]
	.loc	1 380 31                // /mnt/ssddisk/jslave/ci/workspace/chipset_WLZ_4g_release/opensource/component_code/vendor/huawei/extra/build/build_script/kirin_kernel_release/kernel/block/hisi-bkops-core.c:380:31
	str	x11, [x19, #240]
	b	.LBB7_3
.Ltmp205:
.LBB7_2:
	.loc	1 372 3                 // /mnt/ssddisk/jslave/ci/workspace/chipset_WLZ_4g_release/opensource/component_code/vendor/huawei/extra/build/build_script/kirin_kernel_release/kernel/block/hisi-bkops-core.c:372:3
	adrp	x0, .L.str.3
	add	x0, x0, :lo12:.L.str.3
	bl	printk
.Ltmp206:
.LBB7_3:
	.loc	1 383 1                 // /mnt/ssddisk/jslave/ci/workspace/chipset_WLZ_4g_release/opensource/component_code/vendor/huawei/extra/build/build_script/kirin_kernel_release/kernel/block/hisi-bkops-core.c:383:1
	ldp	x29, x30, [sp, #16]     // 16-byte Folded Reload
	mov	x0, x19
	ldp	x20, x19, [sp], #32     // 16-byte Folded Reload
	ret
.Ltmp207:
.Lfunc_end7:
	.size	hisi_bkops_alloc, .Lfunc_end7-hisi_bkops_alloc
	.cfi_endproc
                                        // -- End function
	.section	.text.hisi_bkops_manual_gc_proc_show,"ax",@progbits
	.hidden	hisi_bkops_manual_gc_proc_show // -- Begin function hisi_bkops_manual_gc_proc_show
	.globl	hisi_bkops_manual_gc_proc_show
	.p2align	2
	.type	hisi_bkops_manual_gc_proc_show,@function
hisi_bkops_manual_gc_proc_show:         // @hisi_bkops_manual_gc_proc_show
.Lfunc_begin8:
	.loc	1 386 0                 // /mnt/ssddisk/jslave/ci/workspace/chipset_WLZ_4g_release/opensource/component_code/vendor/huawei/extra/build/build_script/kirin_kernel_release/kernel/block/hisi-bkops-core.c:386:0
	.cfi_startproc
// %bb.0:
	stp	x29, x30, [sp, #-16]!   // 16-byte Folded Spill
	mov	x29, sp
	.cfi_def_cfa w29, 16
	.cfi_offset w30, -8
	.cfi_offset w29, -16
	//DEBUG_VALUE: hisi_bkops_manual_gc_proc_show:m <- $x0
	//DEBUG_VALUE: hisi_bkops_manual_gc_proc_show:v <- $x1
.Ltmp208:
	.loc	1 387 24 prologue_end   // /mnt/ssddisk/jslave/ci/workspace/chipset_WLZ_4g_release/opensource/component_code/vendor/huawei/extra/build/build_script/kirin_kernel_release/kernel/block/hisi-bkops-core.c:387:24
	adrp	x8, user_manual_gc
	ldrb	w2, [x8, :lo12:user_manual_gc]
	//DEBUG_VALUE: hisi_bkops_manual_gc_proc_show:m <- $x0
	.loc	1 387 2 is_stmt 0       // /mnt/ssddisk/jslave/ci/workspace/chipset_WLZ_4g_release/opensource/component_code/vendor/huawei/extra/build/build_script/kirin_kernel_release/kernel/block/hisi-bkops-core.c:387:2
	adrp	x1, .L.str.4
.Ltmp209:
	add	x1, x1, :lo12:.L.str.4
	//DEBUG_VALUE: hisi_bkops_manual_gc_proc_show:m <- $x0
	bl	seq_printf
.Ltmp210:
	.loc	1 389 2 is_stmt 1       // /mnt/ssddisk/jslave/ci/workspace/chipset_WLZ_4g_release/opensource/component_code/vendor/huawei/extra/build/build_script/kirin_kernel_release/kernel/block/hisi-bkops-core.c:389:2
	mov	w0, wzr
	ldp	x29, x30, [sp], #16     // 16-byte Folded Reload
	ret
.Ltmp211:
.Lfunc_end8:
	.size	hisi_bkops_manual_gc_proc_show, .Lfunc_end8-hisi_bkops_manual_gc_proc_show
	.cfi_endproc
                                        // -- End function
	.section	.text.hisi_bkops_manual_gc_proc_open,"ax",@progbits
	.hidden	hisi_bkops_manual_gc_proc_open // -- Begin function hisi_bkops_manual_gc_proc_open
	.globl	hisi_bkops_manual_gc_proc_open
	.p2align	2
	.type	hisi_bkops_manual_gc_proc_open,@function
hisi_bkops_manual_gc_proc_open:         // @hisi_bkops_manual_gc_proc_open
.Lfunc_begin9:
	.loc	1 394 0                 // /mnt/ssddisk/jslave/ci/workspace/chipset_WLZ_4g_release/opensource/component_code/vendor/huawei/extra/build/build_script/kirin_kernel_release/kernel/block/hisi-bkops-core.c:394:0
	.cfi_startproc
// %bb.0:
	stp	x29, x30, [sp, #-16]!   // 16-byte Folded Spill
	mov	x29, sp
	.cfi_def_cfa w29, 16
	.cfi_offset w30, -8
	.cfi_offset w29, -16
	//DEBUG_VALUE: hisi_bkops_manual_gc_proc_open:p_inode <- $x0
	//DEBUG_VALUE: hisi_bkops_manual_gc_proc_open:p_file <- $x1
	mov	x0, x1
.Ltmp212:
	//DEBUG_VALUE: hisi_bkops_manual_gc_proc_open:p_file <- $x0
	.loc	1 395 9 prologue_end    // /mnt/ssddisk/jslave/ci/workspace/chipset_WLZ_4g_release/opensource/component_code/vendor/huawei/extra/build/build_script/kirin_kernel_release/kernel/block/hisi-bkops-core.c:395:9
	adrp	x1, __cfi_hisi_bkops_manual_gc_proc_show
	add	x1, x1, :lo12:__cfi_hisi_bkops_manual_gc_proc_show
	//DEBUG_VALUE: hisi_bkops_manual_gc_proc_open:p_file <- $x0
	mov	x2, xzr
	bl	single_open
.Ltmp213:
	.loc	1 395 2 is_stmt 0       // /mnt/ssddisk/jslave/ci/workspace/chipset_WLZ_4g_release/opensource/component_code/vendor/huawei/extra/build/build_script/kirin_kernel_release/kernel/block/hisi-bkops-core.c:395:2
	ldp	x29, x30, [sp], #16     // 16-byte Folded Reload
	ret
.Ltmp214:
.Lfunc_end9:
	.size	hisi_bkops_manual_gc_proc_open, .Lfunc_end9-hisi_bkops_manual_gc_proc_open
	.cfi_endproc
                                        // -- End function
	.section	.text.hisi_bkops_manual_gc_proc_write,"ax",@progbits
	.hidden	hisi_bkops_manual_gc_proc_write // -- Begin function hisi_bkops_manual_gc_proc_write
	.globl	hisi_bkops_manual_gc_proc_write
	.p2align	2
	.type	hisi_bkops_manual_gc_proc_write,@function
hisi_bkops_manual_gc_proc_write:        // @hisi_bkops_manual_gc_proc_write
.Lfunc_begin10:
	.loc	1 400 0 is_stmt 1       // /mnt/ssddisk/jslave/ci/workspace/chipset_WLZ_4g_release/opensource/component_code/vendor/huawei/extra/build/build_script/kirin_kernel_release/kernel/block/hisi-bkops-core.c:400:0
	.cfi_startproc
// %bb.0:
	sub	sp, sp, #64             // =64
	stp	x22, x21, [sp, #16]     // 16-byte Folded Spill
	stp	x20, x19, [sp, #32]     // 16-byte Folded Spill
	stp	x29, x30, [sp, #48]     // 16-byte Folded Spill
	add	x29, sp, #48            // =48
	.cfi_def_cfa w29, 16
	.cfi_offset w30, -8
	.cfi_offset w29, -16
	.cfi_offset w19, -24
	.cfi_offset w20, -32
	.cfi_offset w21, -40
	.cfi_offset w22, -48
	//DEBUG_VALUE: hisi_bkops_manual_gc_proc_write:p_file <- $x0
	//DEBUG_VALUE: hisi_bkops_manual_gc_proc_write:userbuf <- $x1
	//DEBUG_VALUE: hisi_bkops_manual_gc_proc_write:count <- $x2
	//DEBUG_VALUE: hisi_bkops_manual_gc_proc_write:ppos <- $x3
.Ltmp215:
	//DEBUG_VALUE: copy_from_user:from <- $x1
	//DEBUG_VALUE: _copy_from_user:from <- $x1
	//DEBUG_VALUE: __uaccess_mask_ptr:ptr <- $x1
	adrp	x8, __stack_chk_guard
	ldr	x8, [x8, :lo12:__stack_chk_guard]
	mov	x0, #-22
.Ltmp216:
	str	x8, [sp, #8]
.Ltmp217:
	.loc	1 403 17 prologue_end   // /mnt/ssddisk/jslave/ci/workspace/chipset_WLZ_4g_release/opensource/component_code/vendor/huawei/extra/build/build_script/kirin_kernel_release/kernel/block/hisi-bkops-core.c:403:17
	cbz	x1, .LBB10_7
.Ltmp218:
// %bb.1:
	//DEBUG_VALUE: hisi_bkops_manual_gc_proc_write:ppos <- $x3
	//DEBUG_VALUE: hisi_bkops_manual_gc_proc_write:count <- $x2
	//DEBUG_VALUE: hisi_bkops_manual_gc_proc_write:userbuf <- $x1
	.loc	1 0 17 is_stmt 0        // /mnt/ssddisk/jslave/ci/workspace/chipset_WLZ_4g_release/opensource/component_code/vendor/huawei/extra/build/build_script/kirin_kernel_release/kernel/block/hisi-bkops-core.c:0:17
	mov	x19, x2
.Ltmp219:
	//DEBUG_VALUE: hisi_bkops_manual_gc_proc_write:count <- $x19
	.loc	1 403 17                // /mnt/ssddisk/jslave/ci/workspace/chipset_WLZ_4g_release/opensource/component_code/vendor/huawei/extra/build/build_script/kirin_kernel_release/kernel/block/hisi-bkops-core.c:403:17
	cbz	x2, .LBB10_7
.Ltmp220:
// %bb.2:
	//DEBUG_VALUE: hisi_bkops_manual_gc_proc_write:count <- $x19
	//DEBUG_VALUE: hisi_bkops_manual_gc_proc_write:ppos <- $x3
	//DEBUG_VALUE: hisi_bkops_manual_gc_proc_write:userbuf <- $x1
	.loc	1 0 17                  // /mnt/ssddisk/jslave/ci/workspace/chipset_WLZ_4g_release/opensource/component_code/vendor/huawei/extra/build/build_script/kirin_kernel_release/kernel/block/hisi-bkops-core.c:0:17
	mov	x20, x1
.Ltmp221:
	//DEBUG_VALUE: __uaccess_mask_ptr:ptr <- $x20
	//DEBUG_VALUE: _copy_from_user:from <- $x20
	//DEBUG_VALUE: copy_from_user:from <- $x20
	//DEBUG_VALUE: hisi_bkops_manual_gc_proc_write:userbuf <- $x20
	//DEBUG_VALUE: copy_from_user:n <- 1
	//DEBUG_VALUE: check_copy_size:bytes <- 1
	//DEBUG_VALUE: check_copy_size:is_source <- 0
	//DEBUG_VALUE: check_object_size:n <- 1
	//DEBUG_VALUE: check_object_size:to_user <- 0
	.file	151 "/mnt/ssddisk/jslave/ci/workspace/chipset_WLZ_4g_release/opensource/component_code/vendor/huawei/extra/build/build_script/kirin_kernel_release/kernel/include/linux/thread_info.h"
	.loc	151 108 3 is_stmt 1     // /mnt/ssddisk/jslave/ci/workspace/chipset_WLZ_4g_release/opensource/component_code/vendor/huawei/extra/build/build_script/kirin_kernel_release/kernel/include/linux/thread_info.h:108:3
	add	x0, sp, #4              // =4
	orr	w1, wzr, #0x1
	mov	w2, wzr
	orr	w21, wzr, #0x1
	add	x22, sp, #4             // =4
.Ltmp222:
	//DEBUG_VALUE: check_object_size:ptr <- [DW_OP_plus_uconst 4] $sp
	//DEBUG_VALUE: check_copy_size:addr <- [DW_OP_plus_uconst 4] $sp
	//DEBUG_VALUE: copy_from_user:to <- [DW_OP_plus_uconst 4] $sp
	//DEBUG_VALUE: hisi_bkops_manual_gc_proc_write:buf <- [DW_OP_plus_uconst 4, DW_OP_deref] $sp
	bl	__check_object_size
.Ltmp223:
	//DEBUG_VALUE: __range_ok:size <- 1
	//DEBUG_VALUE: __range_ok:addr <- $x20
	//DEBUG_VALUE: _copy_from_user:res <- 1
	//DEBUG_VALUE: _copy_from_user:n <- 1
	//DEBUG_VALUE: _copy_from_user:to <- [DW_OP_plus_uconst 4] $sp
	.file	152 "/mnt/ssddisk/jslave/ci/workspace/chipset_WLZ_4g_release/opensource/component_code/vendor/huawei/extra/build/build_script/kirin_kernel_release/kernel/arch/arm64/include/asm/current.h"
	.loc	152 19 2                // /mnt/ssddisk/jslave/ci/workspace/chipset_WLZ_4g_release/opensource/component_code/vendor/huawei/extra/build/build_script/kirin_kernel_release/kernel/arch/arm64/include/asm/current.h:19:2
	//APP
	mrs x8, sp_el0
	//NO_APP
.Ltmp224:
	//DEBUG_VALUE: get_current:sp_el0 <- $x8
	//DEBUG_VALUE: get_current:sp_el0 <- $x8
	.file	153 "/mnt/ssddisk/jslave/ci/workspace/chipset_WLZ_4g_release/opensource/component_code/vendor/huawei/extra/build/build_script/kirin_kernel_release/kernel/arch/arm64/include/asm/uaccess.h"
	.loc	153 84 24               // /mnt/ssddisk/jslave/ci/workspace/chipset_WLZ_4g_release/opensource/component_code/vendor/huawei/extra/build/build_script/kirin_kernel_release/kernel/arch/arm64/include/asm/uaccess.h:84:24
	ldr	x9, [x8, #8]
.Ltmp225:
	//DEBUG_VALUE: __range_ok:limit <- $x9
	.loc	153 87 2                // /mnt/ssddisk/jslave/ci/workspace/chipset_WLZ_4g_release/opensource/component_code/vendor/huawei/extra/build/build_script/kirin_kernel_release/kernel/arch/arm64/include/asm/uaccess.h:87:2
	mov	x10, x20
	//APP
		adds	x10, x10, #1
	csel	x9, xzr, x9, hi
	csinv	x10, x10, xzr, cc
	sbcs	xzr, x10, x9
	cset	x10, ls

	//NO_APP
.Ltmp226:
	//DEBUG_VALUE: __range_ok:addr <- $x10
	.file	154 "/mnt/ssddisk/jslave/ci/workspace/chipset_WLZ_4g_release/opensource/component_code/vendor/huawei/extra/build/build_script/kirin_kernel_release/kernel/include/linux/uaccess.h"
	.loc	154 114 6               // /mnt/ssddisk/jslave/ci/workspace/chipset_WLZ_4g_release/opensource/component_code/vendor/huawei/extra/build/build_script/kirin_kernel_release/kernel/include/linux/uaccess.h:114:6
	cbz	x10, .LBB10_10
.Ltmp227:
// %bb.3:
	//DEBUG_VALUE: _copy_from_user:to <- [DW_OP_plus_uconst 4] $sp
	//DEBUG_VALUE: hisi_bkops_manual_gc_proc_write:buf <- [DW_OP_plus_uconst 4, DW_OP_deref] $sp
	//DEBUG_VALUE: copy_from_user:to <- [DW_OP_plus_uconst 4] $sp
	//DEBUG_VALUE: hisi_bkops_manual_gc_proc_write:userbuf <- $x20
	//DEBUG_VALUE: copy_from_user:from <- $x20
	//DEBUG_VALUE: _copy_from_user:from <- $x20
	//DEBUG_VALUE: __uaccess_mask_ptr:ptr <- $x20
	//DEBUG_VALUE: hisi_bkops_manual_gc_proc_write:count <- $x19
	.loc	153 245 20              // /mnt/ssddisk/jslave/ci/workspace/chipset_WLZ_4g_release/opensource/component_code/vendor/huawei/extra/build/build_script/kirin_kernel_release/kernel/arch/arm64/include/asm/uaccess.h:245:20
	ldr	x8, [x8, #8]
	.loc	153 241 2               // /mnt/ssddisk/jslave/ci/workspace/chipset_WLZ_4g_release/opensource/component_code/vendor/huawei/extra/build/build_script/kirin_kernel_release/kernel/arch/arm64/include/asm/uaccess.h:241:2
	//APP
		bics	xzr, x20, x8
	csel	x1, x20, xzr, eq

	//NO_APP
.Ltmp228:
	//DEBUG_VALUE: __uaccess_mask_ptr:safe_ptr <- $x1
	.loc	153 248 2               // /mnt/ssddisk/jslave/ci/workspace/chipset_WLZ_4g_release/opensource/component_code/vendor/huawei/extra/build/build_script/kirin_kernel_release/kernel/arch/arm64/include/asm/uaccess.h:248:2
	//APP
	hint #20
	//NO_APP
.Ltmp229:
	.loc	154 116 9               // /mnt/ssddisk/jslave/ci/workspace/chipset_WLZ_4g_release/opensource/component_code/vendor/huawei/extra/build/build_script/kirin_kernel_release/kernel/include/linux/uaccess.h:116:9
	add	x0, sp, #4              // =4
	orr	w2, wzr, #0x1
	bl	__arch_copy_from_user
.Ltmp230:
	.loc	154 118 6               // /mnt/ssddisk/jslave/ci/workspace/chipset_WLZ_4g_release/opensource/component_code/vendor/huawei/extra/build/build_script/kirin_kernel_release/kernel/include/linux/uaccess.h:118:6
	cbnz	x0, .LBB10_9
.Ltmp231:
// %bb.4:
	//DEBUG_VALUE: hisi_bkops_manual_gc_proc_write:buf <- [DW_OP_plus_uconst 4, DW_OP_deref] $sp
	//DEBUG_VALUE: copy_from_user:to <- [DW_OP_plus_uconst 4] $sp
	//DEBUG_VALUE: hisi_bkops_manual_gc_proc_write:userbuf <- $x20
	//DEBUG_VALUE: copy_from_user:from <- $x20
	//DEBUG_VALUE: hisi_bkops_manual_gc_proc_write:count <- $x19
	//DEBUG_VALUE: copy_from_user:n <- 0
	.loc	1 409 6                 // /mnt/ssddisk/jslave/ci/workspace/chipset_WLZ_4g_release/opensource/component_code/vendor/huawei/extra/build/build_script/kirin_kernel_release/kernel/block/hisi-bkops-core.c:409:6
	ldrb	w8, [sp, #4]
.Ltmp232:
	//DEBUG_VALUE: hisi_bkops_manual_gc_proc_write:buf <- $w8
	.loc	1 409 17 is_stmt 0      // /mnt/ssddisk/jslave/ci/workspace/chipset_WLZ_4g_release/opensource/component_code/vendor/huawei/extra/build/build_script/kirin_kernel_release/kernel/block/hisi-bkops-core.c:409:17
	sub	w8, w8, #48             // =48
.Ltmp233:
	cmp	w8, #2                  // =2
	b.hs	.LBB10_6
.Ltmp234:
// %bb.5:
	//DEBUG_VALUE: hisi_bkops_manual_gc_proc_write:userbuf <- $x20
	//DEBUG_VALUE: hisi_bkops_manual_gc_proc_write:count <- $x19
	.loc	1 414 17 is_stmt 1      // /mnt/ssddisk/jslave/ci/workspace/chipset_WLZ_4g_release/opensource/component_code/vendor/huawei/extra/build/build_script/kirin_kernel_release/kernel/block/hisi-bkops-core.c:414:17
	adrp	x9, user_manual_gc
	.loc	1 0 0 is_stmt 0         // /mnt/ssddisk/jslave/ci/workspace/chipset_WLZ_4g_release/opensource/component_code/vendor/huawei/extra/build/build_script/kirin_kernel_release/kernel/block/hisi-bkops-core.c:0:0
	mov	x0, x19
	.loc	1 414 17                // /mnt/ssddisk/jslave/ci/workspace/chipset_WLZ_4g_release/opensource/component_code/vendor/huawei/extra/build/build_script/kirin_kernel_release/kernel/block/hisi-bkops-core.c:414:17
	strb	w8, [x9, :lo12:user_manual_gc]
	b	.LBB10_7
.Ltmp235:
.LBB10_6:
	//DEBUG_VALUE: hisi_bkops_manual_gc_proc_write:userbuf <- $x20
	//DEBUG_VALUE: hisi_bkops_manual_gc_proc_write:count <- $x19
	.loc	1 410 3 is_stmt 1       // /mnt/ssddisk/jslave/ci/workspace/chipset_WLZ_4g_release/opensource/component_code/vendor/huawei/extra/build/build_script/kirin_kernel_release/kernel/block/hisi-bkops-core.c:410:3
	adrp	x0, .L.str.5
	adrp	x1, .L__func__.hisi_bkops_manual_gc_proc_write
	add	x0, x0, :lo12:.L.str.5
	add	x1, x1, :lo12:.L__func__.hisi_bkops_manual_gc_proc_write
	mov	w2, #410
	bl	printk
	mov	x0, #-22
.Ltmp236:
.LBB10_7:
	.loc	1 0 3 is_stmt 0         // /mnt/ssddisk/jslave/ci/workspace/chipset_WLZ_4g_release/opensource/component_code/vendor/huawei/extra/build/build_script/kirin_kernel_release/kernel/block/hisi-bkops-core.c:0:3
	adrp	x9, __stack_chk_guard
	ldr	x8, [sp, #8]
	ldr	x9, [x9, :lo12:__stack_chk_guard]
	cmp	x9, x8
	b.ne	.LBB10_11
// %bb.8:
	.loc	1 417 1 is_stmt 1       // /mnt/ssddisk/jslave/ci/workspace/chipset_WLZ_4g_release/opensource/component_code/vendor/huawei/extra/build/build_script/kirin_kernel_release/kernel/block/hisi-bkops-core.c:417:1
	ldp	x29, x30, [sp, #48]     // 16-byte Folded Reload
	ldp	x20, x19, [sp, #32]     // 16-byte Folded Reload
	ldp	x22, x21, [sp, #16]     // 16-byte Folded Reload
	add	sp, sp, #64             // =64
	ret
.LBB10_9:
.Ltmp237:
	//DEBUG_VALUE: _copy_from_user:to <- [DW_OP_plus_uconst 4] $sp
	//DEBUG_VALUE: hisi_bkops_manual_gc_proc_write:buf <- [DW_OP_plus_uconst 4, DW_OP_deref] $sp
	//DEBUG_VALUE: copy_from_user:to <- [DW_OP_plus_uconst 4] $sp
	//DEBUG_VALUE: hisi_bkops_manual_gc_proc_write:userbuf <- $x20
	//DEBUG_VALUE: copy_from_user:from <- $x20
	//DEBUG_VALUE: _copy_from_user:from <- $x20
	//DEBUG_VALUE: hisi_bkops_manual_gc_proc_write:count <- $x19
	.loc	1 0 1 is_stmt 0         // /mnt/ssddisk/jslave/ci/workspace/chipset_WLZ_4g_release/opensource/component_code/vendor/huawei/extra/build/build_script/kirin_kernel_release/kernel/block/hisi-bkops-core.c:0:1
	mov	x21, x0
.Ltmp238:
	//DEBUG_VALUE: _copy_from_user:res <- $x21
.LBB10_10:
	//DEBUG_VALUE: _copy_from_user:to <- [DW_OP_plus_uconst 4] $sp
	//DEBUG_VALUE: hisi_bkops_manual_gc_proc_write:buf <- [DW_OP_plus_uconst 4, DW_OP_deref] $sp
	//DEBUG_VALUE: copy_from_user:to <- [DW_OP_plus_uconst 4] $sp
	//DEBUG_VALUE: hisi_bkops_manual_gc_proc_write:userbuf <- $x20
	//DEBUG_VALUE: copy_from_user:from <- $x20
	//DEBUG_VALUE: _copy_from_user:from <- $x20
	//DEBUG_VALUE: hisi_bkops_manual_gc_proc_write:count <- $x19
	orr	w8, wzr, #0x1
.Ltmp239:
	.loc	154 119 18 is_stmt 1    // /mnt/ssddisk/jslave/ci/workspace/chipset_WLZ_4g_release/opensource/component_code/vendor/huawei/extra/build/build_script/kirin_kernel_release/kernel/include/linux/uaccess.h:119:18
	sub	x8, x8, x21
	.loc	154 119 13 is_stmt 0    // /mnt/ssddisk/jslave/ci/workspace/chipset_WLZ_4g_release/opensource/component_code/vendor/huawei/extra/build/build_script/kirin_kernel_release/kernel/include/linux/uaccess.h:119:13
	add	x0, x22, x8
	.loc	154 119 3               // /mnt/ssddisk/jslave/ci/workspace/chipset_WLZ_4g_release/opensource/component_code/vendor/huawei/extra/build/build_script/kirin_kernel_release/kernel/include/linux/uaccess.h:119:3
	mov	w1, wzr
	mov	x2, x21
	bl	memset
	mov	x0, #-14
	b	.LBB10_7
.Ltmp240:
.LBB10_11:
	.loc	154 0 3                 // /mnt/ssddisk/jslave/ci/workspace/chipset_WLZ_4g_release/opensource/component_code/vendor/huawei/extra/build/build_script/kirin_kernel_release/kernel/include/linux/uaccess.h:0:3
	bl	__stack_chk_fail
.Lfunc_end10:
	.size	hisi_bkops_manual_gc_proc_write, .Lfunc_end10-hisi_bkops_manual_gc_proc_write
	.cfi_endproc
                                        // -- End function
	.section	.text.hisi_bkops_status_proc_show,"ax",@progbits
	.hidden	hisi_bkops_status_proc_show // -- Begin function hisi_bkops_status_proc_show
	.globl	hisi_bkops_status_proc_show
	.p2align	2
	.type	hisi_bkops_status_proc_show,@function
hisi_bkops_status_proc_show:            // @hisi_bkops_status_proc_show
.Lfunc_begin11:
	.loc	1 428 0 is_stmt 1       // /mnt/ssddisk/jslave/ci/workspace/chipset_WLZ_4g_release/opensource/component_code/vendor/huawei/extra/build/build_script/kirin_kernel_release/kernel/block/hisi-bkops-core.c:428:0
	.cfi_startproc
// %bb.0:
	sub	sp, sp, #48             // =48
	str	x19, [sp, #16]          // 8-byte Folded Spill
	stp	x29, x30, [sp, #32]     // 16-byte Folded Spill
	add	x29, sp, #32            // =32
	.cfi_def_cfa w29, 16
	.cfi_offset w30, -8
	.cfi_offset w29, -16
	.cfi_offset w19, -32
	//DEBUG_VALUE: hisi_bkops_status_proc_show:m <- $x0
	//DEBUG_VALUE: hisi_bkops_status_proc_show:v <- $x1
	adrp	x8, __stack_chk_guard
	ldr	x8, [x8, :lo12:__stack_chk_guard]
	mov	x19, x0
.Ltmp241:
	.loc	1 431 2 prologue_end    // /mnt/ssddisk/jslave/ci/workspace/chipset_WLZ_4g_release/opensource/component_code/vendor/huawei/extra/build/build_script/kirin_kernel_release/kernel/block/hisi-bkops-core.c:431:2
	add	x1, sp, #4              // =4
.Ltmp242:
	.loc	1 0 2 is_stmt 0         // /mnt/ssddisk/jslave/ci/workspace/chipset_WLZ_4g_release/opensource/component_code/vendor/huawei/extra/build/build_script/kirin_kernel_release/kernel/block/hisi-bkops-core.c:0:2
	str	x8, [sp, #8]
.Ltmp243:
	//DEBUG_VALUE: hisi_bkops_status_proc_show:status <- 0
	//DEBUG_VALUE: hisi_bkops_status_proc_show:m <- $x19
	.loc	1 429 6 is_stmt 1       // /mnt/ssddisk/jslave/ci/workspace/chipset_WLZ_4g_release/opensource/component_code/vendor/huawei/extra/build/build_script/kirin_kernel_release/kernel/block/hisi-bkops-core.c:429:6
	str	wzr, [sp, #4]
	.loc	1 431 22                // /mnt/ssddisk/jslave/ci/workspace/chipset_WLZ_4g_release/opensource/component_code/vendor/huawei/extra/build/build_script/kirin_kernel_release/kernel/block/hisi-bkops-core.c:431:22
	ldr	x0, [x0, #152]
.Ltmp244:
	//DEBUG_VALUE: hisi_bkops_status_proc_show:status <- [DW_OP_plus_uconst 4, DW_OP_deref] $sp
	.loc	1 431 2 is_stmt 0       // /mnt/ssddisk/jslave/ci/workspace/chipset_WLZ_4g_release/opensource/component_code/vendor/huawei/extra/build/build_script/kirin_kernel_release/kernel/block/hisi-bkops-core.c:431:2
	bl	hisi_bkops_query
	.loc	1 432 24 is_stmt 1      // /mnt/ssddisk/jslave/ci/workspace/chipset_WLZ_4g_release/opensource/component_code/vendor/huawei/extra/build/build_script/kirin_kernel_release/kernel/block/hisi-bkops-core.c:432:24
	ldr	w2, [sp, #4]
.Ltmp245:
	//DEBUG_VALUE: hisi_bkops_status_proc_show:status <- $w2
	.loc	1 432 2 is_stmt 0       // /mnt/ssddisk/jslave/ci/workspace/chipset_WLZ_4g_release/opensource/component_code/vendor/huawei/extra/build/build_script/kirin_kernel_release/kernel/block/hisi-bkops-core.c:432:2
	adrp	x1, .L.str.4
	add	x1, x1, :lo12:.L.str.4
	mov	x0, x19
	bl	seq_printf
.Ltmp246:
	.loc	1 0 2                   // /mnt/ssddisk/jslave/ci/workspace/chipset_WLZ_4g_release/opensource/component_code/vendor/huawei/extra/build/build_script/kirin_kernel_release/kernel/block/hisi-bkops-core.c:0:2
	adrp	x9, __stack_chk_guard
	ldr	x8, [sp, #8]
	ldr	x9, [x9, :lo12:__stack_chk_guard]
	cmp	x9, x8
	b.ne	.LBB11_2
.Ltmp247:
// %bb.1:
	//DEBUG_VALUE: hisi_bkops_status_proc_show:m <- $x19
	.loc	1 434 2 is_stmt 1       // /mnt/ssddisk/jslave/ci/workspace/chipset_WLZ_4g_release/opensource/component_code/vendor/huawei/extra/build/build_script/kirin_kernel_release/kernel/block/hisi-bkops-core.c:434:2
	ldp	x29, x30, [sp, #32]     // 16-byte Folded Reload
	ldr	x19, [sp, #16]          // 8-byte Folded Reload
.Ltmp248:
	mov	w0, wzr
	add	sp, sp, #48             // =48
	ret
.Ltmp249:
.LBB11_2:
	//DEBUG_VALUE: hisi_bkops_status_proc_show:m <- $x19
	.loc	1 0 2 is_stmt 0         // /mnt/ssddisk/jslave/ci/workspace/chipset_WLZ_4g_release/opensource/component_code/vendor/huawei/extra/build/build_script/kirin_kernel_release/kernel/block/hisi-bkops-core.c:0:2
	bl	__stack_chk_fail
.Lfunc_end11:
	.size	hisi_bkops_status_proc_show, .Lfunc_end11-hisi_bkops_status_proc_show
	.cfi_endproc
                                        // -- End function
	.section	.text.hisi_bkops_status_proc_open,"ax",@progbits
	.hidden	hisi_bkops_status_proc_open // -- Begin function hisi_bkops_status_proc_open
	.globl	hisi_bkops_status_proc_open
	.p2align	2
	.type	hisi_bkops_status_proc_open,@function
hisi_bkops_status_proc_open:            // @hisi_bkops_status_proc_open
.Lfunc_begin12:
	.loc	1 439 0 is_stmt 1       // /mnt/ssddisk/jslave/ci/workspace/chipset_WLZ_4g_release/opensource/component_code/vendor/huawei/extra/build/build_script/kirin_kernel_release/kernel/block/hisi-bkops-core.c:439:0
	.cfi_startproc
// %bb.0:
	str	x19, [sp, #-32]!        // 8-byte Folded Spill
	stp	x29, x30, [sp, #16]     // 16-byte Folded Spill
	add	x29, sp, #16            // =16
	.cfi_def_cfa w29, 16
	.cfi_offset w30, -8
	.cfi_offset w29, -16
	.cfi_offset w19, -32
	//DEBUG_VALUE: hisi_bkops_status_proc_open:p_inode <- $x0
	//DEBUG_VALUE: hisi_bkops_status_proc_open:p_file <- $x1
	mov	x19, x1
.Ltmp250:
	//DEBUG_VALUE: hisi_bkops_status_proc_open:p_file <- $x19
	//DEBUG_VALUE: hisi_bkops_status_proc_open:p_inode <- $x0
	//DEBUG_VALUE: hisi_bkops_status_proc_open:p_inode <- $x0
	.loc	1 441 46 prologue_end   // /mnt/ssddisk/jslave/ci/workspace/chipset_WLZ_4g_release/opensource/component_code/vendor/huawei/extra/build/build_script/kirin_kernel_release/kernel/block/hisi-bkops-core.c:441:46
	bl	PDE_DATA
.Ltmp251:
	.loc	1 440 9                 // /mnt/ssddisk/jslave/ci/workspace/chipset_WLZ_4g_release/opensource/component_code/vendor/huawei/extra/build/build_script/kirin_kernel_release/kernel/block/hisi-bkops-core.c:440:9
	adrp	x1, __cfi_hisi_bkops_status_proc_show
	.loc	1 441 46                // /mnt/ssddisk/jslave/ci/workspace/chipset_WLZ_4g_release/opensource/component_code/vendor/huawei/extra/build/build_script/kirin_kernel_release/kernel/block/hisi-bkops-core.c:441:46
	mov	x2, x0
	.loc	1 440 9                 // /mnt/ssddisk/jslave/ci/workspace/chipset_WLZ_4g_release/opensource/component_code/vendor/huawei/extra/build/build_script/kirin_kernel_release/kernel/block/hisi-bkops-core.c:440:9
	add	x1, x1, :lo12:__cfi_hisi_bkops_status_proc_show
	mov	x0, x19
.Ltmp252:
	//DEBUG_VALUE: hisi_bkops_status_proc_open:p_file <- $x0
	bl	single_open
.Ltmp253:
	.loc	1 440 2 is_stmt 0       // /mnt/ssddisk/jslave/ci/workspace/chipset_WLZ_4g_release/opensource/component_code/vendor/huawei/extra/build/build_script/kirin_kernel_release/kernel/block/hisi-bkops-core.c:440:2
	ldp	x29, x30, [sp, #16]     // 16-byte Folded Reload
	ldr	x19, [sp], #32          // 8-byte Folded Reload
	ret
.Ltmp254:
.Lfunc_end12:
	.size	hisi_bkops_status_proc_open, .Lfunc_end12-hisi_bkops_status_proc_open
	.cfi_endproc
                                        // -- End function
	.section	.text.hisi_bkops_enable,"ax",@progbits
	.hidden	hisi_bkops_enable       // -- Begin function hisi_bkops_enable
	.globl	hisi_bkops_enable
	.p2align	2
	.type	hisi_bkops_enable,@function
hisi_bkops_enable:                      // @hisi_bkops_enable
.Lfunc_begin13:
	.loc	1 468 0 is_stmt 1       // /mnt/ssddisk/jslave/ci/workspace/chipset_WLZ_4g_release/opensource/component_code/vendor/huawei/extra/build/build_script/kirin_kernel_release/kernel/block/hisi-bkops-core.c:468:0
	.cfi_startproc
// %bb.0:
	str	x23, [sp, #-64]!        // 8-byte Folded Spill
	stp	x22, x21, [sp, #16]     // 16-byte Folded Spill
	stp	x20, x19, [sp, #32]     // 16-byte Folded Spill
	stp	x29, x30, [sp, #48]     // 16-byte Folded Spill
	add	x29, sp, #48            // =48
	.cfi_def_cfa w29, 16
	.cfi_offset w30, -8
	.cfi_offset w29, -16
	.cfi_offset w19, -24
	.cfi_offset w20, -32
	.cfi_offset w21, -40
	.cfi_offset w22, -48
	.cfi_offset w23, -64
	//DEBUG_VALUE: hisi_bkops_enable:q <- $x0
	//DEBUG_VALUE: hisi_bkops_enable:bkops <- $x1
	//DEBUG_VALUE: hisi_bkops_enable:debugfs_parent_dir <- $x2
.Ltmp255:
	//DEBUG_VALUE: hisi_bkops_manual_gc_proc_init:bkops <- $x1
	mov	x22, x2
	mov	x19, x1
.Ltmp256:
	//DEBUG_VALUE: hisi_bkops_manual_gc_proc_init:bkops <- $x19
	mov	x21, x0
.Ltmp257:
	//DEBUG_VALUE: hisi_bkops_enable:debugfs_parent_dir <- $x22
	//DEBUG_VALUE: hisi_bkops_enable:bkops <- $x19
	//DEBUG_VALUE: hisi_bkops_enable:q <- $x21
	.loc	1 471 32 prologue_end   // /mnt/ssddisk/jslave/ci/workspace/chipset_WLZ_4g_release/opensource/component_code/vendor/huawei/extra/build/build_script/kirin_kernel_release/kernel/block/hisi-bkops-core.c:471:32
	bl	hisi_blk_get_lld
	.loc	1 473 6                 // /mnt/ssddisk/jslave/ci/workspace/chipset_WLZ_4g_release/opensource/component_code/vendor/huawei/extra/build/build_script/kirin_kernel_release/kernel/block/hisi-bkops-core.c:473:6
	ldrb	w8, [x0, #24]
	tbz	w8, #3, .LBB13_19
.Ltmp258:
// %bb.1:
	//DEBUG_VALUE: hisi_bkops_enable:q <- $x21
	//DEBUG_VALUE: hisi_bkops_enable:bkops <- $x19
	//DEBUG_VALUE: hisi_bkops_enable:debugfs_parent_dir <- $x22
	.loc	1 478 7                 // /mnt/ssddisk/jslave/ci/workspace/chipset_WLZ_4g_release/opensource/component_code/vendor/huawei/extra/build/build_script/kirin_kernel_release/kernel/block/hisi-bkops-core.c:478:7
	adrp	x23, hisi_bkops_inited
	ldrb	w8, [x23, :lo12:hisi_bkops_inited]
.Ltmp259:
	.loc	1 0 0 is_stmt 0         // /mnt/ssddisk/jslave/ci/workspace/chipset_WLZ_4g_release/opensource/component_code/vendor/huawei/extra/build/build_script/kirin_kernel_release/kernel/block/hisi-bkops-core.c:0:0
	mov	x20, x0
.Ltmp260:
	//DEBUG_VALUE: hisi_bkops_enable:blk_lld <- $x20
	.loc	1 478 6                 // /mnt/ssddisk/jslave/ci/workspace/chipset_WLZ_4g_release/opensource/component_code/vendor/huawei/extra/build/build_script/kirin_kernel_release/kernel/block/hisi-bkops-core.c:478:6
	tbnz	w8, #0, .LBB13_4
.Ltmp261:
// %bb.2:
	//DEBUG_VALUE: hisi_bkops_enable:blk_lld <- $x20
	//DEBUG_VALUE: hisi_bkops_enable:q <- $x21
	//DEBUG_VALUE: hisi_bkops_enable:bkops <- $x19
	//DEBUG_VALUE: hisi_bkops_enable:debugfs_parent_dir <- $x22
	.loc	1 354 22 is_stmt 1      // /mnt/ssddisk/jslave/ci/workspace/chipset_WLZ_4g_release/opensource/component_code/vendor/huawei/extra/build/build_script/kirin_kernel_release/kernel/block/hisi-bkops-core.c:354:22
	adrp	x0, .L.str.14
	add	x0, x0, :lo12:.L.str.14
	orr	w1, wzr, #0x18
	mov	w2, wzr
	mov	x3, xzr
	mov	x4, xzr
	bl	__alloc_workqueue_key
	.loc	1 354 20 is_stmt 0      // /mnt/ssddisk/jslave/ci/workspace/chipset_WLZ_4g_release/opensource/component_code/vendor/huawei/extra/build/build_script/kirin_kernel_release/kernel/block/hisi-bkops-core.c:354:20
	adrp	x8, bkops_workqueue_g
	str	x0, [x8, :lo12:bkops_workqueue_g]
	.loc	1 357 6 is_stmt 1       // /mnt/ssddisk/jslave/ci/workspace/chipset_WLZ_4g_release/opensource/component_code/vendor/huawei/extra/build/build_script/kirin_kernel_release/kernel/block/hisi-bkops-core.c:357:6
	cbz	x0, .LBB13_11
.Ltmp262:
// %bb.3:
	//DEBUG_VALUE: hisi_bkops_enable:blk_lld <- $x20
	//DEBUG_VALUE: hisi_bkops_enable:q <- $x21
	//DEBUG_VALUE: hisi_bkops_enable:bkops <- $x19
	//DEBUG_VALUE: hisi_bkops_enable:debugfs_parent_dir <- $x22
	.loc	1 358 3                 // /mnt/ssddisk/jslave/ci/workspace/chipset_WLZ_4g_release/opensource/component_code/vendor/huawei/extra/build/build_script/kirin_kernel_release/kernel/block/hisi-bkops-core.c:358:3
	adrp	x0, hisi_bkops_init.__cfi_bkops_pm_callback_nb
	add	x0, x0, :lo12:hisi_bkops_init.__cfi_bkops_pm_callback_nb
	bl	register_pm_notifier
.Ltmp263:
	.loc	1 359 3                 // /mnt/ssddisk/jslave/ci/workspace/chipset_WLZ_4g_release/opensource/component_code/vendor/huawei/extra/build/build_script/kirin_kernel_release/kernel/block/hisi-bkops-core.c:359:3
	adrp	x0, bkops_notifier
	add	x0, x0, :lo12:bkops_notifier
	bl	register_reboot_notifier
	orr	w8, wzr, #0x1
.Ltmp264:
	.loc	1 484 21                // /mnt/ssddisk/jslave/ci/workspace/chipset_WLZ_4g_release/opensource/component_code/vendor/huawei/extra/build/build_script/kirin_kernel_release/kernel/block/hisi-bkops-core.c:484:21
	strb	w8, [x23, :lo12:hisi_bkops_inited]
.Ltmp265:
.LBB13_4:
	//DEBUG_VALUE: hisi_bkops_enable:blk_lld <- $x20
	//DEBUG_VALUE: hisi_bkops_enable:q <- $x21
	//DEBUG_VALUE: hisi_bkops_enable:bkops <- $x19
	//DEBUG_VALUE: hisi_bkops_enable:debugfs_parent_dir <- $x22
	.loc	1 487 13                // /mnt/ssddisk/jslave/ci/workspace/chipset_WLZ_4g_release/opensource/component_code/vendor/huawei/extra/build/build_script/kirin_kernel_release/kernel/block/hisi-bkops-core.c:487:13
	ldr	w8, [x19]
	.loc	1 487 40 is_stmt 0      // /mnt/ssddisk/jslave/ci/workspace/chipset_WLZ_4g_release/opensource/component_code/vendor/huawei/extra/build/build_script/kirin_kernel_release/kernel/block/hisi-bkops-core.c:487:40
	sub	w8, w8, #1              // =1
	cmp	w8, #3                  // =3
	b.lo	.LBB13_6
.Ltmp266:
// %bb.5:
	//DEBUG_VALUE: hisi_bkops_enable:blk_lld <- $x20
	//DEBUG_VALUE: hisi_bkops_enable:q <- $x21
	//DEBUG_VALUE: hisi_bkops_enable:bkops <- $x19
	//DEBUG_VALUE: hisi_bkops_enable:debugfs_parent_dir <- $x22
	.loc	1 489 3 is_stmt 1       // /mnt/ssddisk/jslave/ci/workspace/chipset_WLZ_4g_release/opensource/component_code/vendor/huawei/extra/build/build_script/kirin_kernel_release/kernel/block/hisi-bkops-core.c:489:3
	adrp	x0, .L.str.8
	add	x0, x0, :lo12:.L.str.8
	b	.LBB13_13
.Ltmp267:
.LBB13_6:
	//DEBUG_VALUE: hisi_bkops_enable:blk_lld <- $x20
	//DEBUG_VALUE: hisi_bkops_enable:q <- $x21
	//DEBUG_VALUE: hisi_bkops_enable:bkops <- $x19
	//DEBUG_VALUE: hisi_bkops_enable:debugfs_parent_dir <- $x22
	.loc	1 493 13                // /mnt/ssddisk/jslave/ci/workspace/chipset_WLZ_4g_release/opensource/component_code/vendor/huawei/extra/build/build_script/kirin_kernel_release/kernel/block/hisi-bkops-core.c:493:13
	ldr	x8, [x19, #8]
.Ltmp268:
	.loc	1 493 6 is_stmt 0       // /mnt/ssddisk/jslave/ci/workspace/chipset_WLZ_4g_release/opensource/component_code/vendor/huawei/extra/build/build_script/kirin_kernel_release/kernel/block/hisi-bkops-core.c:493:6
	cbz	x8, .LBB13_12
.Ltmp269:
// %bb.7:
	//DEBUG_VALUE: hisi_bkops_enable:blk_lld <- $x20
	//DEBUG_VALUE: hisi_bkops_enable:q <- $x21
	//DEBUG_VALUE: hisi_bkops_enable:bkops <- $x19
	//DEBUG_VALUE: hisi_bkops_enable:debugfs_parent_dir <- $x22
	.loc	1 498 6 is_stmt 1       // /mnt/ssddisk/jslave/ci/workspace/chipset_WLZ_4g_release/opensource/component_code/vendor/huawei/extra/build/build_script/kirin_kernel_release/kernel/block/hisi-bkops-core.c:498:6
	mov	x0, x19
	mov	x1, x22
.Ltmp270:
	.loc	1 0 0 is_stmt 0         // /mnt/ssddisk/jslave/ci/workspace/chipset_WLZ_4g_release/opensource/component_code/vendor/huawei/extra/build/build_script/kirin_kernel_release/kernel/block/hisi-bkops-core.c:0:0
	add	x23, x19, #144          // =144
.Ltmp271:
	//DEBUG_VALUE: hisi_bkops_enable:event_node <- $x23
	.loc	1 498 6                 // /mnt/ssddisk/jslave/ci/workspace/chipset_WLZ_4g_release/opensource/component_code/vendor/huawei/extra/build/build_script/kirin_kernel_release/kernel/block/hisi-bkops-core.c:498:6
	bl	hisi_bkops_add_debugfs
.Ltmp272:
	.loc	1 498 6                 // /mnt/ssddisk/jslave/ci/workspace/chipset_WLZ_4g_release/opensource/component_code/vendor/huawei/extra/build/build_script/kirin_kernel_release/kernel/block/hisi-bkops-core.c:498:6
	cbz	w0, .LBB13_9
.Ltmp273:
// %bb.8:
	//DEBUG_VALUE: hisi_bkops_enable:event_node <- $x23
	//DEBUG_VALUE: hisi_bkops_enable:blk_lld <- $x20
	//DEBUG_VALUE: hisi_bkops_enable:q <- $x21
	//DEBUG_VALUE: hisi_bkops_enable:bkops <- $x19
	//DEBUG_VALUE: hisi_bkops_enable:debugfs_parent_dir <- $x22
	.loc	1 499 3 is_stmt 1       // /mnt/ssddisk/jslave/ci/workspace/chipset_WLZ_4g_release/opensource/component_code/vendor/huawei/extra/build/build_script/kirin_kernel_release/kernel/block/hisi-bkops-core.c:499:3
	adrp	x0, .L.str.10
	add	x0, x0, :lo12:.L.str.10
	bl	printk
.Ltmp274:
.LBB13_9:
	//DEBUG_VALUE: hisi_bkops_enable:event_node <- $x23
	//DEBUG_VALUE: hisi_bkops_enable:blk_lld <- $x20
	//DEBUG_VALUE: hisi_bkops_enable:q <- $x21
	//DEBUG_VALUE: hisi_bkops_enable:bkops <- $x19
	//DEBUG_VALUE: hisi_bkops_enable:debugfs_parent_dir <- $x22
	.loc	1 502 2                 // /mnt/ssddisk/jslave/ci/workspace/chipset_WLZ_4g_release/opensource/component_code/vendor/huawei/extra/build/build_script/kirin_kernel_release/kernel/block/hisi-bkops-core.c:502:2
	adrp	x1, .L.str.11
	add	x1, x1, :lo12:.L.str.11
	orr	w2, wzr, #0x20
	mov	x0, x23
	.loc	1 501 11                // /mnt/ssddisk/jslave/ci/workspace/chipset_WLZ_4g_release/opensource/component_code/vendor/huawei/extra/build/build_script/kirin_kernel_release/kernel/block/hisi-bkops-core.c:501:11
	str	x21, [x19, #24]
	.loc	1 502 2                 // /mnt/ssddisk/jslave/ci/workspace/chipset_WLZ_4g_release/opensource/component_code/vendor/huawei/extra/build/build_script/kirin_kernel_release/kernel/block/hisi-bkops-core.c:502:2
	bl	strncpy
	.loc	1 504 46                // /mnt/ssddisk/jslave/ci/workspace/chipset_WLZ_4g_release/opensource/component_code/vendor/huawei/extra/build/build_script/kirin_kernel_release/kernel/block/hisi-bkops-core.c:504:46
	adrp	x8, __cfi_bkops_io_busy_idle_notify_handler
	add	x8, x8, :lo12:__cfi_bkops_io_busy_idle_notify_handler
.Ltmp275:
	.loc	1 508 6                 // /mnt/ssddisk/jslave/ci/workspace/chipset_WLZ_4g_release/opensource/component_code/vendor/huawei/extra/build/build_script/kirin_kernel_release/kernel/block/hisi-bkops-core.c:508:6
	mov	x0, x20
	mov	x1, x23
.Ltmp276:
	.loc	1 504 46                // /mnt/ssddisk/jslave/ci/workspace/chipset_WLZ_4g_release/opensource/component_code/vendor/huawei/extra/build/build_script/kirin_kernel_release/kernel/block/hisi-bkops-core.c:504:46
	stp	x8, x19, [x19, #176]
.Ltmp277:
	.loc	1 508 6                 // /mnt/ssddisk/jslave/ci/workspace/chipset_WLZ_4g_release/opensource/component_code/vendor/huawei/extra/build/build_script/kirin_kernel_release/kernel/block/hisi-bkops-core.c:508:6
	bl	blk_lld_busy_idle_event_subscriber
.Ltmp278:
	.loc	1 508 6 is_stmt 0       // /mnt/ssddisk/jslave/ci/workspace/chipset_WLZ_4g_release/opensource/component_code/vendor/huawei/extra/build/build_script/kirin_kernel_release/kernel/block/hisi-bkops-core.c:508:6
	cbz	w0, .LBB13_16
.Ltmp279:
// %bb.10:
	//DEBUG_VALUE: hisi_bkops_enable:event_node <- $x23
	//DEBUG_VALUE: hisi_bkops_enable:blk_lld <- $x20
	//DEBUG_VALUE: hisi_bkops_enable:q <- $x21
	//DEBUG_VALUE: hisi_bkops_enable:bkops <- $x19
	//DEBUG_VALUE: hisi_bkops_enable:debugfs_parent_dir <- $x22
	.loc	1 516 2 is_stmt 1       // /mnt/ssddisk/jslave/ci/workspace/chipset_WLZ_4g_release/opensource/component_code/vendor/huawei/extra/build/build_script/kirin_kernel_release/kernel/block/hisi-bkops-core.c:516:2
	mov	x0, x19
	bl	hisi_bkops_remove_debugfs
	b	.LBB13_14
.Ltmp280:
.LBB13_11:
	//DEBUG_VALUE: hisi_bkops_enable:blk_lld <- $x20
	//DEBUG_VALUE: hisi_bkops_enable:q <- $x21
	//DEBUG_VALUE: hisi_bkops_enable:bkops <- $x19
	//DEBUG_VALUE: hisi_bkops_enable:debugfs_parent_dir <- $x22
	.loc	1 480 4                 // /mnt/ssddisk/jslave/ci/workspace/chipset_WLZ_4g_release/opensource/component_code/vendor/huawei/extra/build/build_script/kirin_kernel_release/kernel/block/hisi-bkops-core.c:480:4
	adrp	x0, .L.str.7
	adrp	x1, .L__func__.hisi_bkops_enable
	add	x0, x0, :lo12:.L.str.7
	add	x1, x1, :lo12:.L__func__.hisi_bkops_enable
	mov	w2, #481
	bl	printk
	b	.LBB13_14
.Ltmp281:
.LBB13_12:
	//DEBUG_VALUE: hisi_bkops_enable:blk_lld <- $x20
	//DEBUG_VALUE: hisi_bkops_enable:q <- $x21
	//DEBUG_VALUE: hisi_bkops_enable:bkops <- $x19
	//DEBUG_VALUE: hisi_bkops_enable:debugfs_parent_dir <- $x22
	.loc	1 494 3                 // /mnt/ssddisk/jslave/ci/workspace/chipset_WLZ_4g_release/opensource/component_code/vendor/huawei/extra/build/build_script/kirin_kernel_release/kernel/block/hisi-bkops-core.c:494:3
	adrp	x0, .L.str.9
	add	x0, x0, :lo12:.L.str.9
.Ltmp282:
.LBB13_13:
	//DEBUG_VALUE: hisi_bkops_enable:q <- $x21
	//DEBUG_VALUE: hisi_bkops_enable:bkops <- $x19
	//DEBUG_VALUE: hisi_bkops_enable:debugfs_parent_dir <- $x22
	.loc	1 0 0 is_stmt 0         // /mnt/ssddisk/jslave/ci/workspace/chipset_WLZ_4g_release/opensource/component_code/vendor/huawei/extra/build/build_script/kirin_kernel_release/kernel/block/hisi-bkops-core.c:0:0
	bl	printk
.Ltmp283:
.LBB13_14:
	//DEBUG_VALUE: hisi_bkops_enable:q <- $x21
	//DEBUG_VALUE: hisi_bkops_enable:bkops <- $x19
	//DEBUG_VALUE: hisi_bkops_enable:debugfs_parent_dir <- $x22
	.loc	1 518 2 is_stmt 1       // /mnt/ssddisk/jslave/ci/workspace/chipset_WLZ_4g_release/opensource/component_code/vendor/huawei/extra/build/build_script/kirin_kernel_release/kernel/block/hisi-bkops-core.c:518:2
	mov	x0, x19
	bl	kfree
	mov	w0, #-1
.Ltmp284:
.LBB13_15:
	//DEBUG_VALUE: hisi_bkops_enable:q <- $x21
	//DEBUG_VALUE: hisi_bkops_enable:bkops <- $x19
	//DEBUG_VALUE: hisi_bkops_enable:debugfs_parent_dir <- $x22
	.loc	1 520 1                 // /mnt/ssddisk/jslave/ci/workspace/chipset_WLZ_4g_release/opensource/component_code/vendor/huawei/extra/build/build_script/kirin_kernel_release/kernel/block/hisi-bkops-core.c:520:1
	ldp	x29, x30, [sp, #48]     // 16-byte Folded Reload
	ldp	x20, x19, [sp, #32]     // 16-byte Folded Reload
.Ltmp285:
	ldp	x22, x21, [sp, #16]     // 16-byte Folded Reload
.Ltmp286:
	ldr	x23, [sp], #64          // 8-byte Folded Reload
	ret
.LBB13_16:
.Ltmp287:
	//DEBUG_VALUE: hisi_bkops_enable:event_node <- $x23
	//DEBUG_VALUE: hisi_bkops_enable:blk_lld <- $x20
	//DEBUG_VALUE: hisi_bkops_enable:q <- $x21
	//DEBUG_VALUE: hisi_bkops_enable:bkops <- $x19
	//DEBUG_VALUE: hisi_bkops_enable:debugfs_parent_dir <- $x22
	.loc	1 455 8                 // /mnt/ssddisk/jslave/ci/workspace/chipset_WLZ_4g_release/opensource/component_code/vendor/huawei/extra/build/build_script/kirin_kernel_release/kernel/block/hisi-bkops-core.c:455:8
	adrp	x0, .L.str.15
	add	x0, x0, :lo12:.L.str.15
.Ltmp288:
	//DEBUG_VALUE: hisi_bkops_manual_gc_proc_init:dir <- $xzr
	mov	x1, xzr
	bl	proc_mkdir
.Ltmp289:
	.loc	1 456 6                 // /mnt/ssddisk/jslave/ci/workspace/chipset_WLZ_4g_release/opensource/component_code/vendor/huawei/extra/build/build_script/kirin_kernel_release/kernel/block/hisi-bkops-core.c:456:6
	cbz	x0, .LBB13_18
.Ltmp290:
// %bb.17:
	//DEBUG_VALUE: hisi_bkops_enable:event_node <- $x23
	//DEBUG_VALUE: hisi_bkops_enable:blk_lld <- $x20
	//DEBUG_VALUE: hisi_bkops_enable:q <- $x21
	//DEBUG_VALUE: hisi_bkops_enable:bkops <- $x19
	//DEBUG_VALUE: hisi_bkops_enable:debugfs_parent_dir <- $x22
	.loc	1 0 0 is_stmt 0         // /mnt/ssddisk/jslave/ci/workspace/chipset_WLZ_4g_release/opensource/component_code/vendor/huawei/extra/build/build_script/kirin_kernel_release/kernel/block/hisi-bkops-core.c:0:0
	mov	x20, x0
.Ltmp291:
	//DEBUG_VALUE: hisi_bkops_manual_gc_proc_init:dir <- $x20
	.loc	1 461 2 is_stmt 1       // /mnt/ssddisk/jslave/ci/workspace/chipset_WLZ_4g_release/opensource/component_code/vendor/huawei/extra/build/build_script/kirin_kernel_release/kernel/block/hisi-bkops-core.c:461:2
	adrp	x0, .L.str.17
	adrp	x3, hisi_bkops_manual_gc_fops
	add	x0, x0, :lo12:.L.str.17
	add	x3, x3, :lo12:hisi_bkops_manual_gc_fops
	mov	w1, #432
	mov	x2, x20
	bl	proc_create
	.loc	1 462 2                 // /mnt/ssddisk/jslave/ci/workspace/chipset_WLZ_4g_release/opensource/component_code/vendor/huawei/extra/build/build_script/kirin_kernel_release/kernel/block/hisi-bkops-core.c:462:2
	adrp	x0, .L.str.18
	adrp	x3, hisi_bkops_status_fops
	add	x0, x0, :lo12:.L.str.18
	add	x3, x3, :lo12:hisi_bkops_status_fops
	mov	w1, #288
	mov	x2, x20
	mov	x4, x19
	bl	proc_create_data
.Ltmp292:
	.loc	1 0 0 is_stmt 0         // /mnt/ssddisk/jslave/ci/workspace/chipset_WLZ_4g_release/opensource/component_code/vendor/huawei/extra/build/build_script/kirin_kernel_release/kernel/block/hisi-bkops-core.c:0:0
	mov	w0, wzr
	b	.LBB13_15
.Ltmp293:
.LBB13_18:
	//DEBUG_VALUE: hisi_bkops_enable:event_node <- $x23
	//DEBUG_VALUE: hisi_bkops_enable:blk_lld <- $x20
	//DEBUG_VALUE: hisi_bkops_enable:q <- $x21
	//DEBUG_VALUE: hisi_bkops_enable:bkops <- $x19
	//DEBUG_VALUE: hisi_bkops_enable:debugfs_parent_dir <- $x22
	.loc	1 457 3 is_stmt 1       // /mnt/ssddisk/jslave/ci/workspace/chipset_WLZ_4g_release/opensource/component_code/vendor/huawei/extra/build/build_script/kirin_kernel_release/kernel/block/hisi-bkops-core.c:457:3
	adrp	x0, .L.str.16
	adrp	x1, .L__func__.hisi_bkops_manual_gc_proc_init
	add	x0, x0, :lo12:.L.str.16
	add	x1, x1, :lo12:.L__func__.hisi_bkops_manual_gc_proc_init
	mov	w2, #457
	bl	printk
.Ltmp294:
	.loc	1 0 0 is_stmt 0         // /mnt/ssddisk/jslave/ci/workspace/chipset_WLZ_4g_release/opensource/component_code/vendor/huawei/extra/build/build_script/kirin_kernel_release/kernel/block/hisi-bkops-core.c:0:0
	mov	w0, wzr
	b	.LBB13_15
.Ltmp295:
.LBB13_19:
	//DEBUG_VALUE: hisi_bkops_enable:q <- $x21
	//DEBUG_VALUE: hisi_bkops_enable:bkops <- $x19
	//DEBUG_VALUE: hisi_bkops_enable:debugfs_parent_dir <- $x22
	.loc	1 474 3 is_stmt 1       // /mnt/ssddisk/jslave/ci/workspace/chipset_WLZ_4g_release/opensource/component_code/vendor/huawei/extra/build/build_script/kirin_kernel_release/kernel/block/hisi-bkops-core.c:474:3
	adrp	x0, .L.str.6
	add	x0, x0, :lo12:.L.str.6
	b	.LBB13_13
.Ltmp296:
.Lfunc_end13:
	.size	hisi_bkops_enable, .Lfunc_end13-hisi_bkops_enable
	.cfi_endproc
                                        // -- End function
	.section	.text.blk_mq_tagset_tz_query_register,"ax",@progbits
	.hidden	blk_mq_tagset_tz_query_register // -- Begin function blk_mq_tagset_tz_query_register
	.globl	blk_mq_tagset_tz_query_register
	.p2align	2
	.type	blk_mq_tagset_tz_query_register,@function
blk_mq_tagset_tz_query_register:        // @blk_mq_tagset_tz_query_register
.Lfunc_begin14:
	.loc	1 524 0                 // /mnt/ssddisk/jslave/ci/workspace/chipset_WLZ_4g_release/opensource/component_code/vendor/huawei/extra/build/build_script/kirin_kernel_release/kernel/block/hisi-bkops-core.c:524:0
	.cfi_startproc
// %bb.0:
	//DEBUG_VALUE: blk_mq_tagset_tz_query_register:tag_set <- $x0
	//DEBUG_VALUE: blk_mq_tagset_tz_query_register:tag_set <- $x0
	//DEBUG_VALUE: blk_mq_tagset_tz_query_register:func <- $x1
	//DEBUG_VALUE: blk_mq_tagset_tz_query_register:func <- $x1
	.loc	1 525 6 prologue_end    // /mnt/ssddisk/jslave/ci/workspace/chipset_WLZ_4g_release/opensource/component_code/vendor/huawei/extra/build/build_script/kirin_kernel_release/kernel/block/hisi-bkops-core.c:525:6
	cbz	x0, .LBB14_2
// %bb.1:
	//DEBUG_VALUE: blk_mq_tagset_tz_query_register:func <- $x1
	//DEBUG_VALUE: blk_mq_tagset_tz_query_register:tag_set <- $x0
.Ltmp297:
	.loc	1 526 30                // /mnt/ssddisk/jslave/ci/workspace/chipset_WLZ_4g_release/opensource/component_code/vendor/huawei/extra/build/build_script/kirin_kernel_release/kernel/block/hisi-bkops-core.c:526:30
	str	x1, [x0, #80]
.Ltmp298:
.LBB14_2:
	//DEBUG_VALUE: blk_mq_tagset_tz_query_register:func <- $x1
	//DEBUG_VALUE: blk_mq_tagset_tz_query_register:tag_set <- $x0
	.loc	1 527 1                 // /mnt/ssddisk/jslave/ci/workspace/chipset_WLZ_4g_release/opensource/component_code/vendor/huawei/extra/build/build_script/kirin_kernel_release/kernel/block/hisi-bkops-core.c:527:1
	ret
.Ltmp299:
.Lfunc_end14:
	.size	blk_mq_tagset_tz_query_register, .Lfunc_end14-blk_mq_tagset_tz_query_register
	.cfi_endproc
                                        // -- End function
	.section	.text.blk_lld_tz_query,"ax",@progbits
	.hidden	blk_lld_tz_query        // -- Begin function blk_lld_tz_query
	.globl	blk_lld_tz_query
	.p2align	2
	.type	blk_lld_tz_query,@function
blk_lld_tz_query:                       // @blk_lld_tz_query
.Lfunc_begin15:
	.loc	1 530 0                 // /mnt/ssddisk/jslave/ci/workspace/chipset_WLZ_4g_release/opensource/component_code/vendor/huawei/extra/build/build_script/kirin_kernel_release/kernel/block/hisi-bkops-core.c:530:0
	.cfi_startproc
// %bb.0:
	str	x21, [sp, #-48]!        // 8-byte Folded Spill
	stp	x20, x19, [sp, #16]     // 16-byte Folded Spill
	stp	x29, x30, [sp, #32]     // 16-byte Folded Spill
	add	x29, sp, #32            // =32
	.cfi_def_cfa w29, 16
	.cfi_offset w30, -8
	.cfi_offset w29, -16
	.cfi_offset w19, -24
	.cfi_offset w20, -32
	.cfi_offset w21, -48
	//DEBUG_VALUE: blk_lld_tz_query:bi_bdev <- $x0
	//DEBUG_VALUE: blk_lld_tz_query:buf <- $x1
	//DEBUG_VALUE: blk_lld_tz_query:buf_len <- $w2
.Ltmp300:
	//DEBUG_VALUE: bdev_get_queue:bdev <- $x0
	//DEBUG_VALUE: bdev_get_queue:bdev <- $x0
	//DEBUG_VALUE: blk_lld_tz_query:bi_bdev <- $x0
	.loc	1 534 6 prologue_end    // /mnt/ssddisk/jslave/ci/workspace/chipset_WLZ_4g_release/opensource/component_code/vendor/huawei/extra/build/build_script/kirin_kernel_release/kernel/block/hisi-bkops-core.c:534:6
	cbz	x0, .LBB15_4
.Ltmp301:
// %bb.1:
	//DEBUG_VALUE: bdev_get_queue:bdev <- $x0
	//DEBUG_VALUE: blk_lld_tz_query:buf_len <- $w2
	//DEBUG_VALUE: blk_lld_tz_query:buf <- $x1
	//DEBUG_VALUE: blk_lld_tz_query:bi_bdev <- $x0
	.loc	94 1439 15              // /mnt/ssddisk/jslave/ci/workspace/chipset_WLZ_4g_release/opensource/component_code/vendor/huawei/extra/build/build_script/kirin_kernel_release/kernel/include/linux/blkdev.h:1439:15
	ldr	x8, [x0, #160]
	mov	w19, w2
.Ltmp302:
	//DEBUG_VALUE: blk_lld_tz_query:buf_len <- $w19
	.loc	94 0 15 is_stmt 0       // /mnt/ssddisk/jslave/ci/workspace/chipset_WLZ_4g_release/opensource/component_code/vendor/huawei/extra/build/build_script/kirin_kernel_release/kernel/include/linux/blkdev.h:0:15
	mov	x20, x1
.Ltmp303:
	//DEBUG_VALUE: blk_lld_tz_query:buf <- $x20
	.loc	94 1439 24              // /mnt/ssddisk/jslave/ci/workspace/chipset_WLZ_4g_release/opensource/component_code/vendor/huawei/extra/build/build_script/kirin_kernel_release/kernel/include/linux/blkdev.h:1439:24
	ldr	x21, [x8, #1112]
.Ltmp304:
	//DEBUG_VALUE: blk_lld_tz_query:q <- $x21
	.loc	1 538 11 is_stmt 1      // /mnt/ssddisk/jslave/ci/workspace/chipset_WLZ_4g_release/opensource/component_code/vendor/huawei/extra/build/build_script/kirin_kernel_release/kernel/block/hisi-bkops-core.c:538:11
	mov	x0, x21
.Ltmp305:
	bl	hisi_blk_get_lld
.Ltmp306:
	//DEBUG_VALUE: blk_lld_tz_query:lld_fn <- $x0
	.loc	1 539 13                // /mnt/ssddisk/jslave/ci/workspace/chipset_WLZ_4g_release/opensource/component_code/vendor/huawei/extra/build/build_script/kirin_kernel_release/kernel/block/hisi-bkops-core.c:539:13
	cbz	x0, .LBB15_4
.Ltmp307:
// %bb.2:
	//DEBUG_VALUE: blk_lld_tz_query:lld_fn <- $x0
	//DEBUG_VALUE: blk_lld_tz_query:q <- $x21
	//DEBUG_VALUE: blk_lld_tz_query:buf <- $x20
	//DEBUG_VALUE: blk_lld_tz_query:buf_len <- $w19
	.loc	1 539 24 is_stmt 0      // /mnt/ssddisk/jslave/ci/workspace/chipset_WLZ_4g_release/opensource/component_code/vendor/huawei/extra/build/build_script/kirin_kernel_release/kernel/block/hisi-bkops-core.c:539:24
	ldr	x8, [x0, #64]
.Ltmp308:
	.loc	1 539 6                 // /mnt/ssddisk/jslave/ci/workspace/chipset_WLZ_4g_release/opensource/component_code/vendor/huawei/extra/build/build_script/kirin_kernel_release/kernel/block/hisi-bkops-core.c:539:6
	cbz	x8, .LBB15_4
.Ltmp309:
// %bb.3:
	//DEBUG_VALUE: blk_lld_tz_query:lld_fn <- $x0
	//DEBUG_VALUE: blk_lld_tz_query:q <- $x21
	//DEBUG_VALUE: blk_lld_tz_query:buf <- $x20
	//DEBUG_VALUE: blk_lld_tz_query:buf_len <- $w19
	.loc	1 540 10 is_stmt 1      // /mnt/ssddisk/jslave/ci/workspace/chipset_WLZ_4g_release/opensource/component_code/vendor/huawei/extra/build/build_script/kirin_kernel_release/kernel/block/hisi-bkops-core.c:540:10
	mov	x0, x21
.Ltmp310:
	mov	x1, x20
	mov	w2, w19
	blr	x8
	b	.LBB15_5
.Ltmp311:
.LBB15_4:
	.loc	1 0 10 is_stmt 0        // /mnt/ssddisk/jslave/ci/workspace/chipset_WLZ_4g_release/opensource/component_code/vendor/huawei/extra/build/build_script/kirin_kernel_release/kernel/block/hisi-bkops-core.c:0:10
	mov	w0, #-1
.LBB15_5:
	.loc	1 543 1 is_stmt 1       // /mnt/ssddisk/jslave/ci/workspace/chipset_WLZ_4g_release/opensource/component_code/vendor/huawei/extra/build/build_script/kirin_kernel_release/kernel/block/hisi-bkops-core.c:543:1
	ldp	x29, x30, [sp, #32]     // 16-byte Folded Reload
	ldp	x20, x19, [sp, #16]     // 16-byte Folded Reload
	ldr	x21, [sp], #48          // 8-byte Folded Reload
	ret
.Ltmp312:
.Lfunc_end15:
	.size	blk_lld_tz_query, .Lfunc_end15-blk_lld_tz_query
	.cfi_endproc
                                        // -- End function
	.section	.text.blk_mq_tagset_tz_ctrl_register,"ax",@progbits
	.hidden	blk_mq_tagset_tz_ctrl_register // -- Begin function blk_mq_tagset_tz_ctrl_register
	.globl	blk_mq_tagset_tz_ctrl_register
	.p2align	2
	.type	blk_mq_tagset_tz_ctrl_register,@function
blk_mq_tagset_tz_ctrl_register:         // @blk_mq_tagset_tz_ctrl_register
.Lfunc_begin16:
	.loc	1 547 0                 // /mnt/ssddisk/jslave/ci/workspace/chipset_WLZ_4g_release/opensource/component_code/vendor/huawei/extra/build/build_script/kirin_kernel_release/kernel/block/hisi-bkops-core.c:547:0
	.cfi_startproc
// %bb.0:
	//DEBUG_VALUE: blk_mq_tagset_tz_ctrl_register:tag_set <- $x0
	//DEBUG_VALUE: blk_mq_tagset_tz_ctrl_register:tag_set <- $x0
	//DEBUG_VALUE: blk_mq_tagset_tz_ctrl_register:func <- $x1
	//DEBUG_VALUE: blk_mq_tagset_tz_ctrl_register:func <- $x1
	.loc	1 548 6 prologue_end    // /mnt/ssddisk/jslave/ci/workspace/chipset_WLZ_4g_release/opensource/component_code/vendor/huawei/extra/build/build_script/kirin_kernel_release/kernel/block/hisi-bkops-core.c:548:6
	cbz	x0, .LBB16_2
// %bb.1:
	//DEBUG_VALUE: blk_mq_tagset_tz_ctrl_register:func <- $x1
	//DEBUG_VALUE: blk_mq_tagset_tz_ctrl_register:tag_set <- $x0
.Ltmp313:
	.loc	1 549 29                // /mnt/ssddisk/jslave/ci/workspace/chipset_WLZ_4g_release/opensource/component_code/vendor/huawei/extra/build/build_script/kirin_kernel_release/kernel/block/hisi-bkops-core.c:549:29
	str	x1, [x0, #88]
.Ltmp314:
.LBB16_2:
	//DEBUG_VALUE: blk_mq_tagset_tz_ctrl_register:func <- $x1
	//DEBUG_VALUE: blk_mq_tagset_tz_ctrl_register:tag_set <- $x0
	.loc	1 550 1                 // /mnt/ssddisk/jslave/ci/workspace/chipset_WLZ_4g_release/opensource/component_code/vendor/huawei/extra/build/build_script/kirin_kernel_release/kernel/block/hisi-bkops-core.c:550:1
	ret
.Ltmp315:
.Lfunc_end16:
	.size	blk_mq_tagset_tz_ctrl_register, .Lfunc_end16-blk_mq_tagset_tz_ctrl_register
	.cfi_endproc
                                        // -- End function
	.section	.text.blk_lld_tz_ctrl,"ax",@progbits
	.hidden	blk_lld_tz_ctrl         // -- Begin function blk_lld_tz_ctrl
	.globl	blk_lld_tz_ctrl
	.p2align	2
	.type	blk_lld_tz_ctrl,@function
blk_lld_tz_ctrl:                        // @blk_lld_tz_ctrl
.Lfunc_begin17:
	.loc	1 553 0                 // /mnt/ssddisk/jslave/ci/workspace/chipset_WLZ_4g_release/opensource/component_code/vendor/huawei/extra/build/build_script/kirin_kernel_release/kernel/block/hisi-bkops-core.c:553:0
	.cfi_startproc
// %bb.0:
	str	x21, [sp, #-48]!        // 8-byte Folded Spill
	stp	x20, x19, [sp, #16]     // 16-byte Folded Spill
	stp	x29, x30, [sp, #32]     // 16-byte Folded Spill
	add	x29, sp, #32            // =32
	.cfi_def_cfa w29, 16
	.cfi_offset w30, -8
	.cfi_offset w29, -16
	.cfi_offset w19, -24
	.cfi_offset w20, -32
	.cfi_offset w21, -48
	//DEBUG_VALUE: blk_lld_tz_ctrl:bi_bdev <- $x0
	//DEBUG_VALUE: blk_lld_tz_ctrl:desc_id <- $w1
	//DEBUG_VALUE: blk_lld_tz_ctrl:index <- $w2
.Ltmp316:
	//DEBUG_VALUE: bdev_get_queue:bdev <- $x0
	//DEBUG_VALUE: bdev_get_queue:bdev <- $x0
	//DEBUG_VALUE: blk_lld_tz_ctrl:bi_bdev <- $x0
	.loc	1 557 6 prologue_end    // /mnt/ssddisk/jslave/ci/workspace/chipset_WLZ_4g_release/opensource/component_code/vendor/huawei/extra/build/build_script/kirin_kernel_release/kernel/block/hisi-bkops-core.c:557:6
	cbz	x0, .LBB17_4
.Ltmp317:
// %bb.1:
	//DEBUG_VALUE: bdev_get_queue:bdev <- $x0
	//DEBUG_VALUE: blk_lld_tz_ctrl:index <- $w2
	//DEBUG_VALUE: blk_lld_tz_ctrl:desc_id <- $w1
	//DEBUG_VALUE: blk_lld_tz_ctrl:bi_bdev <- $x0
	.loc	94 1439 15              // /mnt/ssddisk/jslave/ci/workspace/chipset_WLZ_4g_release/opensource/component_code/vendor/huawei/extra/build/build_script/kirin_kernel_release/kernel/include/linux/blkdev.h:1439:15
	ldr	x8, [x0, #160]
	mov	w19, w2
.Ltmp318:
	//DEBUG_VALUE: blk_lld_tz_ctrl:index <- $w19
	.loc	94 0 15 is_stmt 0       // /mnt/ssddisk/jslave/ci/workspace/chipset_WLZ_4g_release/opensource/component_code/vendor/huawei/extra/build/build_script/kirin_kernel_release/kernel/include/linux/blkdev.h:0:15
	mov	w20, w1
.Ltmp319:
	//DEBUG_VALUE: blk_lld_tz_ctrl:desc_id <- $w20
	.loc	94 1439 24              // /mnt/ssddisk/jslave/ci/workspace/chipset_WLZ_4g_release/opensource/component_code/vendor/huawei/extra/build/build_script/kirin_kernel_release/kernel/include/linux/blkdev.h:1439:24
	ldr	x21, [x8, #1112]
.Ltmp320:
	//DEBUG_VALUE: blk_lld_tz_ctrl:q <- $x21
	.loc	1 561 11 is_stmt 1      // /mnt/ssddisk/jslave/ci/workspace/chipset_WLZ_4g_release/opensource/component_code/vendor/huawei/extra/build/build_script/kirin_kernel_release/kernel/block/hisi-bkops-core.c:561:11
	mov	x0, x21
.Ltmp321:
	bl	hisi_blk_get_lld
.Ltmp322:
	//DEBUG_VALUE: blk_lld_tz_ctrl:lld_fn <- $x0
	.loc	1 562 13                // /mnt/ssddisk/jslave/ci/workspace/chipset_WLZ_4g_release/opensource/component_code/vendor/huawei/extra/build/build_script/kirin_kernel_release/kernel/block/hisi-bkops-core.c:562:13
	cbz	x0, .LBB17_4
.Ltmp323:
// %bb.2:
	//DEBUG_VALUE: blk_lld_tz_ctrl:lld_fn <- $x0
	//DEBUG_VALUE: blk_lld_tz_ctrl:q <- $x21
	//DEBUG_VALUE: blk_lld_tz_ctrl:desc_id <- $w20
	//DEBUG_VALUE: blk_lld_tz_ctrl:index <- $w19
	.loc	1 562 24 is_stmt 0      // /mnt/ssddisk/jslave/ci/workspace/chipset_WLZ_4g_release/opensource/component_code/vendor/huawei/extra/build/build_script/kirin_kernel_release/kernel/block/hisi-bkops-core.c:562:24
	ldr	x8, [x0, #72]
.Ltmp324:
	.loc	1 562 6                 // /mnt/ssddisk/jslave/ci/workspace/chipset_WLZ_4g_release/opensource/component_code/vendor/huawei/extra/build/build_script/kirin_kernel_release/kernel/block/hisi-bkops-core.c:562:6
	cbz	x8, .LBB17_4
.Ltmp325:
// %bb.3:
	//DEBUG_VALUE: blk_lld_tz_ctrl:lld_fn <- $x0
	//DEBUG_VALUE: blk_lld_tz_ctrl:q <- $x21
	//DEBUG_VALUE: blk_lld_tz_ctrl:desc_id <- $w20
	//DEBUG_VALUE: blk_lld_tz_ctrl:index <- $w19
	//DEBUG_VALUE: blk_lld_tz_ctrl:index <- $w19
	.loc	1 563 10 is_stmt 1      // /mnt/ssddisk/jslave/ci/workspace/chipset_WLZ_4g_release/opensource/component_code/vendor/huawei/extra/build/build_script/kirin_kernel_release/kernel/block/hisi-bkops-core.c:563:10
	mov	x0, x21
.Ltmp326:
	mov	w1, w20
	mov	w2, w19
	blr	x8
	b	.LBB17_5
.Ltmp327:
.LBB17_4:
	.loc	1 0 10 is_stmt 0        // /mnt/ssddisk/jslave/ci/workspace/chipset_WLZ_4g_release/opensource/component_code/vendor/huawei/extra/build/build_script/kirin_kernel_release/kernel/block/hisi-bkops-core.c:0:10
	mov	w0, #-1
.LBB17_5:
	.loc	1 566 1 is_stmt 1       // /mnt/ssddisk/jslave/ci/workspace/chipset_WLZ_4g_release/opensource/component_code/vendor/huawei/extra/build/build_script/kirin_kernel_release/kernel/block/hisi-bkops-core.c:566:1
	ldp	x29, x30, [sp, #32]     // 16-byte Folded Reload
	ldp	x20, x19, [sp, #16]     // 16-byte Folded Reload
	ldr	x21, [sp], #48          // 8-byte Folded Reload
	ret
.Ltmp328:
.Lfunc_end17:
	.size	blk_lld_tz_ctrl, .Lfunc_end17-blk_lld_tz_ctrl
	.cfi_endproc
                                        // -- End function
	.type	.L.str,@object          // @.str
	.section	.rodata.str1.1,"aMS",@progbits,1
.L.str:
	.asciz	"\0013[BKOPS]hisi_bkops_query failed!\n"
	.size	.L.str, 35

	.type	.L.str.1,@object        // @.str.1
.L.str.1:
	.asciz	"\0013[BKOPS]hisi_bkops_start failed!\n"
	.size	.L.str.1, 35

	.type	bkops_workqueue_g,@object // @bkops_workqueue_g
	.section	.bss.bkops_workqueue_g,"aw",@nobits
	.p2align	3
bkops_workqueue_g:
	.xword	0
	.size	bkops_workqueue_g, 8

	.type	.L.str.2,@object        // @.str.2
	.section	.rodata.str1.1,"aMS",@progbits,1
.L.str.2:
	.asciz	"\0013[BKOPS]bkops_status_max %d is too big!\n"
	.size	.L.str.2, 42

	.type	.L.str.3,@object        // @.str.3
.L.str.3:
	.asciz	"\0013[BKOPS]Failed to alloc bkops_func\n"
	.size	.L.str.3, 37

	.type	.L.str.4,@object        // @.str.4
.L.str.4:
	.asciz	"%d\n"
	.size	.L.str.4, 4

	.type	user_manual_gc,@object  // @user_manual_gc
	.section	.bss.user_manual_gc,"aw",@nobits
	.p2align	2
user_manual_gc:
	.byte	0                       // 0x0
	.size	user_manual_gc, 1

	.type	.L.str.5,@object        // @.str.5
	.section	.rodata.str1.1,"aMS",@progbits,1
.L.str.5:
	.asciz	"\0013[BKOPS]%s %d: input error.\n"
	.size	.L.str.5, 30

	.type	.L__func__.hisi_bkops_manual_gc_proc_write,@object // @__func__.hisi_bkops_manual_gc_proc_write
.L__func__.hisi_bkops_manual_gc_proc_write:
	.asciz	"hisi_bkops_manual_gc_proc_write"
	.size	.L__func__.hisi_bkops_manual_gc_proc_write, 32

	.type	.L.str.6,@object        // @.str.6
.L.str.6:
	.asciz	"\0013[BKOPS]Busy Idle was not enabled!\n"
	.size	.L.str.6, 37

	.type	hisi_bkops_inited,@object // @hisi_bkops_inited
	.section	.bss.hisi_bkops_inited,"aw",@nobits
	.p2align	2
hisi_bkops_inited:
	.byte	0                       // 0x0
	.size	hisi_bkops_inited, 1

	.type	.L.str.7,@object        // @.str.7
	.section	.rodata.str1.1,"aMS",@progbits,1
.L.str.7:
	.asciz	"\0013[BKOPS]%s %d hisi_bkops_init failed!\n"
	.size	.L.str.7, 40

	.type	.L__func__.hisi_bkops_enable,@object // @__func__.hisi_bkops_enable
.L__func__.hisi_bkops_enable:
	.asciz	"hisi_bkops_enable"
	.size	.L__func__.hisi_bkops_enable, 18

	.type	.L.str.8,@object        // @.str.8
.L.str.8:
	.asciz	"\0013[BKOPS]bkops dev type not specified!\n"
	.size	.L.str.8, 40

	.type	.L.str.9,@object        // @.str.9
.L.str.9:
	.asciz	"\0013[BKOPS]bkops_ops is NULL!\n"
	.size	.L.str.9, 29

	.type	.L.str.10,@object       // @.str.10
.L.str.10:
	.asciz	"\0013[BKOPS]Failed to create mmc bkops debugfs!\n"
	.size	.L.str.10, 46

	.type	.L.str.11,@object       // @.str.11
.L.str.11:
	.asciz	"hisi_bkops"
	.size	.L.str.11, 11

	.type	bkops_lock,@object      // @bkops_lock
	.section	.data.bkops_lock,"aw",@progbits
	.p2align	3
bkops_lock:
	.zero	8
	.zero	4
	.word	3735899821              // 0xdead4ead
	.word	4294967295              // 0xffffffff
	.zero	4
	.xword	-1
	.zero	4
	.zero	4
	.xword	bkops_lock+40
	.xword	bkops_lock+40
	.xword	0
	.size	bkops_lock, 64

	.type	bkops_enabled,@object   // @bkops_enabled
	.section	.bss.bkops_enabled,"aw",@nobits
	.p2align	2
bkops_enabled:
	.byte	0                       // 0x0
	.size	bkops_enabled, 1

	.type	hisi_bkops_start.bkops_start_rs,@object // @hisi_bkops_start.bkops_start_rs
	.section	.data.hisi_bkops_start.bkops_start_rs,"aw",@progbits
	.p2align	3
hisi_bkops_start.bkops_start_rs:
	.zero	4
	.word	3735899821              // 0xdead4ead
	.word	4294967295              // 0xffffffff
	.zero	4
	.xword	-1
	.word	15000                   // 0x3a98
	.word	1                       // 0x1
	.word	0                       // 0x0
	.word	0                       // 0x0
	.xword	0                       // 0x0
	.xword	0                       // 0x0
	.size	hisi_bkops_start.bkops_start_rs, 56

	.type	.L__func__.hisi_bkops_start,@object // @__func__.hisi_bkops_start
	.section	.rodata.str1.1,"aMS",@progbits,1
.L__func__.hisi_bkops_start:
	.asciz	"hisi_bkops_start"
	.size	.L__func__.hisi_bkops_start, 17

	.type	.L.str.12,@object       // @.str.12
.L.str.12:
	.asciz	"\0016[BKOPS]bkops_start_count: %u\n"
	.size	.L.str.12, 32

	.type	.L.str.14,@object       // @.str.14
.L.str.14:
	.asciz	"bkops_workqueue"
	.size	.L.str.14, 16

	.type	hisi_bkops_init.__cfi_bkops_pm_callback_nb,@object // @hisi_bkops_init.__cfi_bkops_pm_callback_nb
	.section	.data.hisi_bkops_init.__cfi_bkops_pm_callback_nb,"aw",@progbits
	.p2align	3
hisi_bkops_init.__cfi_bkops_pm_callback_nb:
	.xword	__cfi_bkops_pm_callback
	.xword	0
	.word	0                       // 0x0
	.zero	4
	.size	hisi_bkops_init.__cfi_bkops_pm_callback_nb, 24

	.type	bkops_notifier,@object  // @bkops_notifier
	.section	.data.bkops_notifier,"aw",@progbits
	.p2align	3
bkops_notifier:
	.xword	__cfi_bkops_notify_reboot
	.xword	0
	.word	2147483647              // 0x7fffffff
	.zero	4
	.size	bkops_notifier, 24

	.type	.L.str.15,@object       // @.str.15
	.section	.rodata.str1.1,"aMS",@progbits,1
.L.str.15:
	.asciz	"block"
	.size	.L.str.15, 6

	.type	.L.str.16,@object       // @.str.16
.L.str.16:
	.asciz	"\0013[BKOPS]%s %d: proc mk error.\n"
	.size	.L.str.16, 32

	.type	.L__func__.hisi_bkops_manual_gc_proc_init,@object // @__func__.hisi_bkops_manual_gc_proc_init
.L__func__.hisi_bkops_manual_gc_proc_init:
	.asciz	"hisi_bkops_manual_gc_proc_init"
	.size	.L__func__.hisi_bkops_manual_gc_proc_init, 31

	.type	.L.str.17,@object       // @.str.17
.L.str.17:
	.asciz	"manual_gc"
	.size	.L.str.17, 10

	.type	hisi_bkops_manual_gc_fops,@object // @hisi_bkops_manual_gc_fops
	.section	.rodata.hisi_bkops_manual_gc_fops,"a",@progbits
	.p2align	3
hisi_bkops_manual_gc_fops:
	.xword	0
	.xword	seq_lseek
	.xword	seq_read
	.xword	__cfi_hisi_bkops_manual_gc_proc_write
	.xword	0
	.xword	0
	.xword	0
	.xword	0
	.xword	0
	.xword	0
	.xword	0
	.xword	0
	.xword	__cfi_hisi_bkops_manual_gc_proc_open
	.xword	0
	.xword	single_release
	.xword	0
	.xword	0
	.xword	0
	.xword	0
	.xword	0
	.xword	0
	.xword	0
	.xword	0
	.xword	0
	.xword	0
	.xword	0
	.xword	0
	.xword	0
	.xword	0
	.xword	0
	.size	hisi_bkops_manual_gc_fops, 240

	.type	.L.str.18,@object       // @.str.18
	.section	.rodata.str1.1,"aMS",@progbits,1
.L.str.18:
	.asciz	"status"
	.size	.L.str.18, 7

	.type	hisi_bkops_status_fops,@object // @hisi_bkops_status_fops
	.section	.rodata.hisi_bkops_status_fops,"a",@progbits
	.p2align	3
hisi_bkops_status_fops:
	.xword	0
	.xword	seq_lseek
	.xword	seq_read
	.xword	0
	.xword	0
	.xword	0
	.xword	0
	.xword	0
	.xword	0
	.xword	0
	.xword	0
	.xword	0
	.xword	__cfi_hisi_bkops_status_proc_open
	.xword	0
	.xword	single_release
	.xword	0
	.xword	0
	.xword	0
	.xword	0
	.xword	0
	.xword	0
	.xword	0
	.xword	0
	.xword	0
	.xword	0
	.xword	0
	.xword	0
	.xword	0
	.xword	0
	.xword	0
	.size	hisi_bkops_status_fops, 240
